ARM GAS  x:\temp2\cc1gRVhO.s 			page 1


   1              		.cpu cortex-m4
   2              		.eabi_attribute 27, 1
   3              		.eabi_attribute 28, 1
   4              		.eabi_attribute 20, 1
   5              		.eabi_attribute 21, 1
   6              		.eabi_attribute 23, 3
   7              		.eabi_attribute 24, 1
   8              		.eabi_attribute 25, 1
   9              		.eabi_attribute 26, 1
  10              		.eabi_attribute 30, 1
  11              		.eabi_attribute 34, 1
  12              		.eabi_attribute 18, 4
  13              		.file	"stm32f4xx_ll_usb.c"
  14              		.text
  15              	.Ltext0:
  16              		.cfi_sections	.debug_frame
  17              		.section	.text.USB_CoreInit,"ax",%progbits
  18              		.align	1
  19              		.global	USB_CoreInit
  20              		.syntax unified
  21              		.thumb
  22              		.thumb_func
  23              		.fpu fpv4-sp-d16
  25              	USB_CoreInit:
  26              	.LFB126:
  27              		.file 1 "Drivers/STM32F4xx_HAL_Driver/Src/stm32f4xx_ll_usb.c"
   1:Drivers/STM32F4xx_HAL_Driver/Src/stm32f4xx_ll_usb.c **** /**
   2:Drivers/STM32F4xx_HAL_Driver/Src/stm32f4xx_ll_usb.c ****   ******************************************************************************
   3:Drivers/STM32F4xx_HAL_Driver/Src/stm32f4xx_ll_usb.c ****   * @file    stm32f4xx_ll_usb.c
   4:Drivers/STM32F4xx_HAL_Driver/Src/stm32f4xx_ll_usb.c ****   * @author  MCD Application Team
   5:Drivers/STM32F4xx_HAL_Driver/Src/stm32f4xx_ll_usb.c ****   * @brief   USB Low Layer HAL module driver.
   6:Drivers/STM32F4xx_HAL_Driver/Src/stm32f4xx_ll_usb.c ****   *    
   7:Drivers/STM32F4xx_HAL_Driver/Src/stm32f4xx_ll_usb.c ****   *          This file provides firmware functions to manage the following 
   8:Drivers/STM32F4xx_HAL_Driver/Src/stm32f4xx_ll_usb.c ****   *          functionalities of the USB Peripheral Controller:
   9:Drivers/STM32F4xx_HAL_Driver/Src/stm32f4xx_ll_usb.c ****   *           + Initialization/de-initialization functions
  10:Drivers/STM32F4xx_HAL_Driver/Src/stm32f4xx_ll_usb.c ****   *           + I/O operation functions
  11:Drivers/STM32F4xx_HAL_Driver/Src/stm32f4xx_ll_usb.c ****   *           + Peripheral Control functions 
  12:Drivers/STM32F4xx_HAL_Driver/Src/stm32f4xx_ll_usb.c ****   *           + Peripheral State functions
  13:Drivers/STM32F4xx_HAL_Driver/Src/stm32f4xx_ll_usb.c ****   *         
  14:Drivers/STM32F4xx_HAL_Driver/Src/stm32f4xx_ll_usb.c ****   @verbatim
  15:Drivers/STM32F4xx_HAL_Driver/Src/stm32f4xx_ll_usb.c ****   ==============================================================================
  16:Drivers/STM32F4xx_HAL_Driver/Src/stm32f4xx_ll_usb.c ****                     ##### How to use this driver #####
  17:Drivers/STM32F4xx_HAL_Driver/Src/stm32f4xx_ll_usb.c ****   ==============================================================================
  18:Drivers/STM32F4xx_HAL_Driver/Src/stm32f4xx_ll_usb.c ****     [..]
  19:Drivers/STM32F4xx_HAL_Driver/Src/stm32f4xx_ll_usb.c ****       (#) Fill parameters of Init structure in USB_OTG_CfgTypeDef structure.
  20:Drivers/STM32F4xx_HAL_Driver/Src/stm32f4xx_ll_usb.c ****   
  21:Drivers/STM32F4xx_HAL_Driver/Src/stm32f4xx_ll_usb.c ****       (#) Call USB_CoreInit() API to initialize the USB Core peripheral.
  22:Drivers/STM32F4xx_HAL_Driver/Src/stm32f4xx_ll_usb.c **** 
  23:Drivers/STM32F4xx_HAL_Driver/Src/stm32f4xx_ll_usb.c ****       (#) The upper HAL HCD/PCD driver will call the right routines for its internal processes.
  24:Drivers/STM32F4xx_HAL_Driver/Src/stm32f4xx_ll_usb.c **** 
  25:Drivers/STM32F4xx_HAL_Driver/Src/stm32f4xx_ll_usb.c ****   @endverbatim
  26:Drivers/STM32F4xx_HAL_Driver/Src/stm32f4xx_ll_usb.c ****   ******************************************************************************
  27:Drivers/STM32F4xx_HAL_Driver/Src/stm32f4xx_ll_usb.c ****   * @attention
  28:Drivers/STM32F4xx_HAL_Driver/Src/stm32f4xx_ll_usb.c ****   *
  29:Drivers/STM32F4xx_HAL_Driver/Src/stm32f4xx_ll_usb.c ****   * <h2><center>&copy; COPYRIGHT(c) 2017 STMicroelectronics</center></h2>
  30:Drivers/STM32F4xx_HAL_Driver/Src/stm32f4xx_ll_usb.c ****   *
  31:Drivers/STM32F4xx_HAL_Driver/Src/stm32f4xx_ll_usb.c ****   * Redistribution and use in source and binary forms, with or without modification,
ARM GAS  x:\temp2\cc1gRVhO.s 			page 2


  32:Drivers/STM32F4xx_HAL_Driver/Src/stm32f4xx_ll_usb.c ****   * are permitted provided that the following conditions are met:
  33:Drivers/STM32F4xx_HAL_Driver/Src/stm32f4xx_ll_usb.c ****   *   1. Redistributions of source code must retain the above copyright notice,
  34:Drivers/STM32F4xx_HAL_Driver/Src/stm32f4xx_ll_usb.c ****   *      this list of conditions and the following disclaimer.
  35:Drivers/STM32F4xx_HAL_Driver/Src/stm32f4xx_ll_usb.c ****   *   2. Redistributions in binary form must reproduce the above copyright notice,
  36:Drivers/STM32F4xx_HAL_Driver/Src/stm32f4xx_ll_usb.c ****   *      this list of conditions and the following disclaimer in the documentation
  37:Drivers/STM32F4xx_HAL_Driver/Src/stm32f4xx_ll_usb.c ****   *      and/or other materials provided with the distribution.
  38:Drivers/STM32F4xx_HAL_Driver/Src/stm32f4xx_ll_usb.c ****   *   3. Neither the name of STMicroelectronics nor the names of its contributors
  39:Drivers/STM32F4xx_HAL_Driver/Src/stm32f4xx_ll_usb.c ****   *      may be used to endorse or promote products derived from this software
  40:Drivers/STM32F4xx_HAL_Driver/Src/stm32f4xx_ll_usb.c ****   *      without specific prior written permission.
  41:Drivers/STM32F4xx_HAL_Driver/Src/stm32f4xx_ll_usb.c ****   *
  42:Drivers/STM32F4xx_HAL_Driver/Src/stm32f4xx_ll_usb.c ****   * THIS SOFTWARE IS PROVIDED BY THE COPYRIGHT HOLDERS AND CONTRIBUTORS "AS IS"
  43:Drivers/STM32F4xx_HAL_Driver/Src/stm32f4xx_ll_usb.c ****   * AND ANY EXPRESS OR IMPLIED WARRANTIES, INCLUDING, BUT NOT LIMITED TO, THE
  44:Drivers/STM32F4xx_HAL_Driver/Src/stm32f4xx_ll_usb.c ****   * IMPLIED WARRANTIES OF MERCHANTABILITY AND FITNESS FOR A PARTICULAR PURPOSE ARE
  45:Drivers/STM32F4xx_HAL_Driver/Src/stm32f4xx_ll_usb.c ****   * DISCLAIMED. IN NO EVENT SHALL THE COPYRIGHT HOLDER OR CONTRIBUTORS BE LIABLE
  46:Drivers/STM32F4xx_HAL_Driver/Src/stm32f4xx_ll_usb.c ****   * FOR ANY DIRECT, INDIRECT, INCIDENTAL, SPECIAL, EXEMPLARY, OR CONSEQUENTIAL
  47:Drivers/STM32F4xx_HAL_Driver/Src/stm32f4xx_ll_usb.c ****   * DAMAGES (INCLUDING, BUT NOT LIMITED TO, PROCUREMENT OF SUBSTITUTE GOODS OR
  48:Drivers/STM32F4xx_HAL_Driver/Src/stm32f4xx_ll_usb.c ****   * SERVICES; LOSS OF USE, DATA, OR PROFITS; OR BUSINESS INTERRUPTION) HOWEVER
  49:Drivers/STM32F4xx_HAL_Driver/Src/stm32f4xx_ll_usb.c ****   * CAUSED AND ON ANY THEORY OF LIABILITY, WHETHER IN CONTRACT, STRICT LIABILITY,
  50:Drivers/STM32F4xx_HAL_Driver/Src/stm32f4xx_ll_usb.c ****   * OR TORT (INCLUDING NEGLIGENCE OR OTHERWISE) ARISING IN ANY WAY OUT OF THE USE
  51:Drivers/STM32F4xx_HAL_Driver/Src/stm32f4xx_ll_usb.c ****   * OF THIS SOFTWARE, EVEN IF ADVISED OF THE POSSIBILITY OF SUCH DAMAGE.
  52:Drivers/STM32F4xx_HAL_Driver/Src/stm32f4xx_ll_usb.c ****   *
  53:Drivers/STM32F4xx_HAL_Driver/Src/stm32f4xx_ll_usb.c ****   ******************************************************************************
  54:Drivers/STM32F4xx_HAL_Driver/Src/stm32f4xx_ll_usb.c ****   */ 
  55:Drivers/STM32F4xx_HAL_Driver/Src/stm32f4xx_ll_usb.c **** 
  56:Drivers/STM32F4xx_HAL_Driver/Src/stm32f4xx_ll_usb.c **** /* Includes ------------------------------------------------------------------*/
  57:Drivers/STM32F4xx_HAL_Driver/Src/stm32f4xx_ll_usb.c **** #include "stm32f4xx_hal.h"
  58:Drivers/STM32F4xx_HAL_Driver/Src/stm32f4xx_ll_usb.c **** 
  59:Drivers/STM32F4xx_HAL_Driver/Src/stm32f4xx_ll_usb.c **** /** @addtogroup STM32F4xx_LL_USB_DRIVER
  60:Drivers/STM32F4xx_HAL_Driver/Src/stm32f4xx_ll_usb.c ****   * @{
  61:Drivers/STM32F4xx_HAL_Driver/Src/stm32f4xx_ll_usb.c ****   */
  62:Drivers/STM32F4xx_HAL_Driver/Src/stm32f4xx_ll_usb.c **** 
  63:Drivers/STM32F4xx_HAL_Driver/Src/stm32f4xx_ll_usb.c **** #if defined(HAL_PCD_MODULE_ENABLED) || defined(HAL_HCD_MODULE_ENABLED)
  64:Drivers/STM32F4xx_HAL_Driver/Src/stm32f4xx_ll_usb.c **** #if defined(STM32F405xx) || defined(STM32F415xx) || defined(STM32F407xx) || defined(STM32F417xx) ||
  65:Drivers/STM32F4xx_HAL_Driver/Src/stm32f4xx_ll_usb.c ****     defined(STM32F427xx) || defined(STM32F437xx) || defined(STM32F429xx) || defined(STM32F439xx) ||
  66:Drivers/STM32F4xx_HAL_Driver/Src/stm32f4xx_ll_usb.c ****     defined(STM32F401xC) || defined(STM32F401xE) || defined(STM32F411xE) || defined(STM32F446xx) ||
  67:Drivers/STM32F4xx_HAL_Driver/Src/stm32f4xx_ll_usb.c ****     defined(STM32F469xx) || defined(STM32F479xx) || defined(STM32F412Zx) || defined(STM32F412Vx) ||
  68:Drivers/STM32F4xx_HAL_Driver/Src/stm32f4xx_ll_usb.c ****     defined(STM32F412Rx) || defined(STM32F412Cx) || defined(STM32F413xx) || defined(STM32F423xx)
  69:Drivers/STM32F4xx_HAL_Driver/Src/stm32f4xx_ll_usb.c **** /* Private typedef -----------------------------------------------------------*/
  70:Drivers/STM32F4xx_HAL_Driver/Src/stm32f4xx_ll_usb.c **** /* Private define ------------------------------------------------------------*/
  71:Drivers/STM32F4xx_HAL_Driver/Src/stm32f4xx_ll_usb.c **** /* Private macro -------------------------------------------------------------*/
  72:Drivers/STM32F4xx_HAL_Driver/Src/stm32f4xx_ll_usb.c **** /* Private variables ---------------------------------------------------------*/
  73:Drivers/STM32F4xx_HAL_Driver/Src/stm32f4xx_ll_usb.c **** /* Private function prototypes -----------------------------------------------*/
  74:Drivers/STM32F4xx_HAL_Driver/Src/stm32f4xx_ll_usb.c **** /* Private functions ---------------------------------------------------------*/
  75:Drivers/STM32F4xx_HAL_Driver/Src/stm32f4xx_ll_usb.c **** static HAL_StatusTypeDef USB_CoreReset(USB_OTG_GlobalTypeDef *USBx);
  76:Drivers/STM32F4xx_HAL_Driver/Src/stm32f4xx_ll_usb.c **** 
  77:Drivers/STM32F4xx_HAL_Driver/Src/stm32f4xx_ll_usb.c **** /* Exported functions --------------------------------------------------------*/
  78:Drivers/STM32F4xx_HAL_Driver/Src/stm32f4xx_ll_usb.c **** 
  79:Drivers/STM32F4xx_HAL_Driver/Src/stm32f4xx_ll_usb.c **** /** @defgroup LL_USB_Exported_Functions USB Low Layer Exported Functions
  80:Drivers/STM32F4xx_HAL_Driver/Src/stm32f4xx_ll_usb.c ****   * @{
  81:Drivers/STM32F4xx_HAL_Driver/Src/stm32f4xx_ll_usb.c ****   */
  82:Drivers/STM32F4xx_HAL_Driver/Src/stm32f4xx_ll_usb.c **** 
  83:Drivers/STM32F4xx_HAL_Driver/Src/stm32f4xx_ll_usb.c **** /** @defgroup LL_USB_Group1 Initialization/de-initialization functions 
  84:Drivers/STM32F4xx_HAL_Driver/Src/stm32f4xx_ll_usb.c ****  *  @brief    Initialization and Configuration functions 
  85:Drivers/STM32F4xx_HAL_Driver/Src/stm32f4xx_ll_usb.c ****  *
  86:Drivers/STM32F4xx_HAL_Driver/Src/stm32f4xx_ll_usb.c **** @verbatim    
  87:Drivers/STM32F4xx_HAL_Driver/Src/stm32f4xx_ll_usb.c ****  ===============================================================================
  88:Drivers/STM32F4xx_HAL_Driver/Src/stm32f4xx_ll_usb.c ****               ##### Initialization/de-initialization functions #####
ARM GAS  x:\temp2\cc1gRVhO.s 			page 3


  89:Drivers/STM32F4xx_HAL_Driver/Src/stm32f4xx_ll_usb.c ****  ===============================================================================
  90:Drivers/STM32F4xx_HAL_Driver/Src/stm32f4xx_ll_usb.c ****     [..]  This section provides functions allowing to:
  91:Drivers/STM32F4xx_HAL_Driver/Src/stm32f4xx_ll_usb.c ****  
  92:Drivers/STM32F4xx_HAL_Driver/Src/stm32f4xx_ll_usb.c **** @endverbatim
  93:Drivers/STM32F4xx_HAL_Driver/Src/stm32f4xx_ll_usb.c ****   * @{
  94:Drivers/STM32F4xx_HAL_Driver/Src/stm32f4xx_ll_usb.c ****   */
  95:Drivers/STM32F4xx_HAL_Driver/Src/stm32f4xx_ll_usb.c **** 
  96:Drivers/STM32F4xx_HAL_Driver/Src/stm32f4xx_ll_usb.c **** /**
  97:Drivers/STM32F4xx_HAL_Driver/Src/stm32f4xx_ll_usb.c ****   * @brief  Initializes the USB Core
  98:Drivers/STM32F4xx_HAL_Driver/Src/stm32f4xx_ll_usb.c ****   * @param  USBx USB Instance
  99:Drivers/STM32F4xx_HAL_Driver/Src/stm32f4xx_ll_usb.c ****   * @param  cfg  pointer to a USB_OTG_CfgTypeDef structure that contains
 100:Drivers/STM32F4xx_HAL_Driver/Src/stm32f4xx_ll_usb.c ****   *         the configuration information for the specified USBx peripheral.
 101:Drivers/STM32F4xx_HAL_Driver/Src/stm32f4xx_ll_usb.c ****   * @retval HAL status
 102:Drivers/STM32F4xx_HAL_Driver/Src/stm32f4xx_ll_usb.c ****   */
 103:Drivers/STM32F4xx_HAL_Driver/Src/stm32f4xx_ll_usb.c **** HAL_StatusTypeDef USB_CoreInit(USB_OTG_GlobalTypeDef *USBx, USB_OTG_CfgTypeDef cfg)
 104:Drivers/STM32F4xx_HAL_Driver/Src/stm32f4xx_ll_usb.c **** {
  28              		.loc 1 104 0
  29              		.cfi_startproc
  30              		@ args = 56, pretend = 16, frame = 0
  31              		@ frame_needed = 0, uses_anonymous_args = 0
  32              	.LVL0:
  33 0000 84B0     		sub	sp, sp, #16
  34              	.LCFI0:
  35              		.cfi_def_cfa_offset 16
  36 0002 10B5     		push	{r4, lr}
  37              	.LCFI1:
  38              		.cfi_def_cfa_offset 24
  39              		.cfi_offset 4, -24
  40              		.cfi_offset 14, -20
  41 0004 0446     		mov	r4, r0
  42 0006 03A8     		add	r0, sp, #12
  43              	.LVL1:
  44 0008 80E80E00 		stm	r0, {r1, r2, r3}
 105:Drivers/STM32F4xx_HAL_Driver/Src/stm32f4xx_ll_usb.c ****   if (cfg.phy_itface == USB_OTG_ULPI_PHY)
  45              		.loc 1 105 0
  46 000c 089B     		ldr	r3, [sp, #32]
  47 000e 012B     		cmp	r3, #1
  48 0010 20D1     		bne	.L2
 106:Drivers/STM32F4xx_HAL_Driver/Src/stm32f4xx_ll_usb.c ****   {
 107:Drivers/STM32F4xx_HAL_Driver/Src/stm32f4xx_ll_usb.c ****     
 108:Drivers/STM32F4xx_HAL_Driver/Src/stm32f4xx_ll_usb.c ****     USBx->GCCFG &= ~(USB_OTG_GCCFG_PWRDWN);
  49              		.loc 1 108 0
  50 0012 A36B     		ldr	r3, [r4, #56]
  51 0014 23F48033 		bic	r3, r3, #65536
  52 0018 A363     		str	r3, [r4, #56]
 109:Drivers/STM32F4xx_HAL_Driver/Src/stm32f4xx_ll_usb.c **** 
 110:Drivers/STM32F4xx_HAL_Driver/Src/stm32f4xx_ll_usb.c ****     /* Init The ULPI Interface */
 111:Drivers/STM32F4xx_HAL_Driver/Src/stm32f4xx_ll_usb.c ****     USBx->GUSBCFG &= ~(USB_OTG_GUSBCFG_TSDPS | USB_OTG_GUSBCFG_ULPIFSLS | USB_OTG_GUSBCFG_PHYSEL);
  53              		.loc 1 111 0
  54 001a E368     		ldr	r3, [r4, #12]
  55 001c 23F48403 		bic	r3, r3, #4325376
  56 0020 23F04003 		bic	r3, r3, #64
  57 0024 E360     		str	r3, [r4, #12]
 112:Drivers/STM32F4xx_HAL_Driver/Src/stm32f4xx_ll_usb.c ****    
 113:Drivers/STM32F4xx_HAL_Driver/Src/stm32f4xx_ll_usb.c ****     /* Select vbus source */
 114:Drivers/STM32F4xx_HAL_Driver/Src/stm32f4xx_ll_usb.c ****     USBx->GUSBCFG &= ~(USB_OTG_GUSBCFG_ULPIEVBUSD | USB_OTG_GUSBCFG_ULPIEVBUSI);
  58              		.loc 1 114 0
ARM GAS  x:\temp2\cc1gRVhO.s 			page 4


  59 0026 E368     		ldr	r3, [r4, #12]
  60 0028 23F44013 		bic	r3, r3, #3145728
  61 002c E360     		str	r3, [r4, #12]
 115:Drivers/STM32F4xx_HAL_Driver/Src/stm32f4xx_ll_usb.c ****     if(cfg.use_external_vbus == 1U)
  62              		.loc 1 115 0
  63 002e 0F9B     		ldr	r3, [sp, #60]
  64 0030 012B     		cmp	r3, #1
  65 0032 0AD0     		beq	.L7
  66              	.L3:
 116:Drivers/STM32F4xx_HAL_Driver/Src/stm32f4xx_ll_usb.c ****     {
 117:Drivers/STM32F4xx_HAL_Driver/Src/stm32f4xx_ll_usb.c ****       USBx->GUSBCFG |= USB_OTG_GUSBCFG_ULPIEVBUSD;
 118:Drivers/STM32F4xx_HAL_Driver/Src/stm32f4xx_ll_usb.c ****     }
 119:Drivers/STM32F4xx_HAL_Driver/Src/stm32f4xx_ll_usb.c ****     /* Reset after a PHY select  */
 120:Drivers/STM32F4xx_HAL_Driver/Src/stm32f4xx_ll_usb.c ****     USB_CoreReset(USBx); 
  67              		.loc 1 120 0
  68 0034 2046     		mov	r0, r4
  69 0036 FFF7FEFF 		bl	USB_CoreReset
  70              	.LVL2:
  71              	.L4:
 121:Drivers/STM32F4xx_HAL_Driver/Src/stm32f4xx_ll_usb.c ****   }
 122:Drivers/STM32F4xx_HAL_Driver/Src/stm32f4xx_ll_usb.c ****   else /* FS interface (embedded Phy) */
 123:Drivers/STM32F4xx_HAL_Driver/Src/stm32f4xx_ll_usb.c ****   {
 124:Drivers/STM32F4xx_HAL_Driver/Src/stm32f4xx_ll_usb.c ****     /* Select FS Embedded PHY */
 125:Drivers/STM32F4xx_HAL_Driver/Src/stm32f4xx_ll_usb.c ****     USBx->GUSBCFG |= USB_OTG_GUSBCFG_PHYSEL;
 126:Drivers/STM32F4xx_HAL_Driver/Src/stm32f4xx_ll_usb.c ****     
 127:Drivers/STM32F4xx_HAL_Driver/Src/stm32f4xx_ll_usb.c ****     /* Reset after a PHY select and set Host mode */
 128:Drivers/STM32F4xx_HAL_Driver/Src/stm32f4xx_ll_usb.c ****     USB_CoreReset(USBx);
 129:Drivers/STM32F4xx_HAL_Driver/Src/stm32f4xx_ll_usb.c ****     
 130:Drivers/STM32F4xx_HAL_Driver/Src/stm32f4xx_ll_usb.c ****     /* Deactivate the power down*/
 131:Drivers/STM32F4xx_HAL_Driver/Src/stm32f4xx_ll_usb.c ****     USBx->GCCFG = USB_OTG_GCCFG_PWRDWN;
 132:Drivers/STM32F4xx_HAL_Driver/Src/stm32f4xx_ll_usb.c ****   }
 133:Drivers/STM32F4xx_HAL_Driver/Src/stm32f4xx_ll_usb.c ****  
 134:Drivers/STM32F4xx_HAL_Driver/Src/stm32f4xx_ll_usb.c ****   if(cfg.dma_enable == ENABLE)
  72              		.loc 1 134 0
  73 003a 069B     		ldr	r3, [sp, #24]
  74 003c 012B     		cmp	r3, #1
  75 003e 14D0     		beq	.L8
  76              	.L5:
 135:Drivers/STM32F4xx_HAL_Driver/Src/stm32f4xx_ll_usb.c ****   {
 136:Drivers/STM32F4xx_HAL_Driver/Src/stm32f4xx_ll_usb.c ****     USBx->GAHBCFG |= USB_OTG_GAHBCFG_HBSTLEN_2;
 137:Drivers/STM32F4xx_HAL_Driver/Src/stm32f4xx_ll_usb.c ****     USBx->GAHBCFG |= USB_OTG_GAHBCFG_DMAEN;
 138:Drivers/STM32F4xx_HAL_Driver/Src/stm32f4xx_ll_usb.c ****   }  
 139:Drivers/STM32F4xx_HAL_Driver/Src/stm32f4xx_ll_usb.c **** 
 140:Drivers/STM32F4xx_HAL_Driver/Src/stm32f4xx_ll_usb.c ****   return HAL_OK;
 141:Drivers/STM32F4xx_HAL_Driver/Src/stm32f4xx_ll_usb.c **** }
  77              		.loc 1 141 0
  78 0040 0020     		movs	r0, #0
  79 0042 BDE81040 		pop	{r4, lr}
  80              	.LCFI2:
  81              		.cfi_remember_state
  82              		.cfi_restore 14
  83              		.cfi_restore 4
  84              		.cfi_def_cfa_offset 16
  85              	.LVL3:
  86 0046 04B0     		add	sp, sp, #16
  87              	.LCFI3:
  88              		.cfi_def_cfa_offset 0
ARM GAS  x:\temp2\cc1gRVhO.s 			page 5


  89 0048 7047     		bx	lr
  90              	.LVL4:
  91              	.L7:
  92              	.LCFI4:
  93              		.cfi_restore_state
 117:Drivers/STM32F4xx_HAL_Driver/Src/stm32f4xx_ll_usb.c ****     }
  94              		.loc 1 117 0
  95 004a E368     		ldr	r3, [r4, #12]
  96 004c 43F48013 		orr	r3, r3, #1048576
  97 0050 E360     		str	r3, [r4, #12]
  98 0052 EFE7     		b	.L3
  99              	.L2:
 125:Drivers/STM32F4xx_HAL_Driver/Src/stm32f4xx_ll_usb.c ****     
 100              		.loc 1 125 0
 101 0054 E368     		ldr	r3, [r4, #12]
 102 0056 43F04003 		orr	r3, r3, #64
 103 005a E360     		str	r3, [r4, #12]
 128:Drivers/STM32F4xx_HAL_Driver/Src/stm32f4xx_ll_usb.c ****     
 104              		.loc 1 128 0
 105 005c 2046     		mov	r0, r4
 106 005e FFF7FEFF 		bl	USB_CoreReset
 107              	.LVL5:
 131:Drivers/STM32F4xx_HAL_Driver/Src/stm32f4xx_ll_usb.c ****   }
 108              		.loc 1 131 0
 109 0062 4FF48033 		mov	r3, #65536
 110 0066 A363     		str	r3, [r4, #56]
 111 0068 E7E7     		b	.L4
 112              	.L8:
 136:Drivers/STM32F4xx_HAL_Driver/Src/stm32f4xx_ll_usb.c ****     USBx->GAHBCFG |= USB_OTG_GAHBCFG_DMAEN;
 113              		.loc 1 136 0
 114 006a A368     		ldr	r3, [r4, #8]
 115 006c 43F00603 		orr	r3, r3, #6
 116 0070 A360     		str	r3, [r4, #8]
 137:Drivers/STM32F4xx_HAL_Driver/Src/stm32f4xx_ll_usb.c ****   }  
 117              		.loc 1 137 0
 118 0072 A368     		ldr	r3, [r4, #8]
 119 0074 43F02003 		orr	r3, r3, #32
 120 0078 A360     		str	r3, [r4, #8]
 121 007a E1E7     		b	.L5
 122              		.cfi_endproc
 123              	.LFE126:
 125              		.section	.text.USB_EnableGlobalInt,"ax",%progbits
 126              		.align	1
 127              		.global	USB_EnableGlobalInt
 128              		.syntax unified
 129              		.thumb
 130              		.thumb_func
 131              		.fpu fpv4-sp-d16
 133              	USB_EnableGlobalInt:
 134              	.LFB127:
 142:Drivers/STM32F4xx_HAL_Driver/Src/stm32f4xx_ll_usb.c **** 
 143:Drivers/STM32F4xx_HAL_Driver/Src/stm32f4xx_ll_usb.c **** /**
 144:Drivers/STM32F4xx_HAL_Driver/Src/stm32f4xx_ll_usb.c ****   * @brief  USB_EnableGlobalInt
 145:Drivers/STM32F4xx_HAL_Driver/Src/stm32f4xx_ll_usb.c ****   *         Enables the controller's Global Int in the AHB Config reg
 146:Drivers/STM32F4xx_HAL_Driver/Src/stm32f4xx_ll_usb.c ****   * @param  USBx  Selected device
 147:Drivers/STM32F4xx_HAL_Driver/Src/stm32f4xx_ll_usb.c ****   * @retval HAL status
 148:Drivers/STM32F4xx_HAL_Driver/Src/stm32f4xx_ll_usb.c ****   */
ARM GAS  x:\temp2\cc1gRVhO.s 			page 6


 149:Drivers/STM32F4xx_HAL_Driver/Src/stm32f4xx_ll_usb.c **** HAL_StatusTypeDef USB_EnableGlobalInt(USB_OTG_GlobalTypeDef *USBx)
 150:Drivers/STM32F4xx_HAL_Driver/Src/stm32f4xx_ll_usb.c **** {
 135              		.loc 1 150 0
 136              		.cfi_startproc
 137              		@ args = 0, pretend = 0, frame = 0
 138              		@ frame_needed = 0, uses_anonymous_args = 0
 139              		@ link register save eliminated.
 140              	.LVL6:
 151:Drivers/STM32F4xx_HAL_Driver/Src/stm32f4xx_ll_usb.c ****   USBx->GAHBCFG |= USB_OTG_GAHBCFG_GINT;
 141              		.loc 1 151 0
 142 0000 8368     		ldr	r3, [r0, #8]
 143 0002 43F00103 		orr	r3, r3, #1
 144 0006 8360     		str	r3, [r0, #8]
 152:Drivers/STM32F4xx_HAL_Driver/Src/stm32f4xx_ll_usb.c ****   return HAL_OK;
 153:Drivers/STM32F4xx_HAL_Driver/Src/stm32f4xx_ll_usb.c **** }
 145              		.loc 1 153 0
 146 0008 0020     		movs	r0, #0
 147              	.LVL7:
 148 000a 7047     		bx	lr
 149              		.cfi_endproc
 150              	.LFE127:
 152              		.section	.text.USB_DisableGlobalInt,"ax",%progbits
 153              		.align	1
 154              		.global	USB_DisableGlobalInt
 155              		.syntax unified
 156              		.thumb
 157              		.thumb_func
 158              		.fpu fpv4-sp-d16
 160              	USB_DisableGlobalInt:
 161              	.LFB128:
 154:Drivers/STM32F4xx_HAL_Driver/Src/stm32f4xx_ll_usb.c **** 
 155:Drivers/STM32F4xx_HAL_Driver/Src/stm32f4xx_ll_usb.c **** 
 156:Drivers/STM32F4xx_HAL_Driver/Src/stm32f4xx_ll_usb.c **** /**
 157:Drivers/STM32F4xx_HAL_Driver/Src/stm32f4xx_ll_usb.c ****   * @brief  USB_DisableGlobalInt
 158:Drivers/STM32F4xx_HAL_Driver/Src/stm32f4xx_ll_usb.c ****   *         Disable the controller's Global Int in the AHB Config reg
 159:Drivers/STM32F4xx_HAL_Driver/Src/stm32f4xx_ll_usb.c ****   * @param  USBx  Selected device
 160:Drivers/STM32F4xx_HAL_Driver/Src/stm32f4xx_ll_usb.c ****   * @retval HAL status
 161:Drivers/STM32F4xx_HAL_Driver/Src/stm32f4xx_ll_usb.c **** */
 162:Drivers/STM32F4xx_HAL_Driver/Src/stm32f4xx_ll_usb.c **** HAL_StatusTypeDef USB_DisableGlobalInt(USB_OTG_GlobalTypeDef *USBx)
 163:Drivers/STM32F4xx_HAL_Driver/Src/stm32f4xx_ll_usb.c **** {
 162              		.loc 1 163 0
 163              		.cfi_startproc
 164              		@ args = 0, pretend = 0, frame = 0
 165              		@ frame_needed = 0, uses_anonymous_args = 0
 166              		@ link register save eliminated.
 167              	.LVL8:
 164:Drivers/STM32F4xx_HAL_Driver/Src/stm32f4xx_ll_usb.c ****   USBx->GAHBCFG &= ~USB_OTG_GAHBCFG_GINT;
 168              		.loc 1 164 0
 169 0000 8368     		ldr	r3, [r0, #8]
 170 0002 23F00103 		bic	r3, r3, #1
 171 0006 8360     		str	r3, [r0, #8]
 165:Drivers/STM32F4xx_HAL_Driver/Src/stm32f4xx_ll_usb.c ****   return HAL_OK;
 166:Drivers/STM32F4xx_HAL_Driver/Src/stm32f4xx_ll_usb.c **** }
 172              		.loc 1 166 0
 173 0008 0020     		movs	r0, #0
 174              	.LVL9:
 175 000a 7047     		bx	lr
ARM GAS  x:\temp2\cc1gRVhO.s 			page 7


 176              		.cfi_endproc
 177              	.LFE128:
 179              		.section	.text.USB_SetCurrentMode,"ax",%progbits
 180              		.align	1
 181              		.global	USB_SetCurrentMode
 182              		.syntax unified
 183              		.thumb
 184              		.thumb_func
 185              		.fpu fpv4-sp-d16
 187              	USB_SetCurrentMode:
 188              	.LFB129:
 167:Drivers/STM32F4xx_HAL_Driver/Src/stm32f4xx_ll_usb.c ****    
 168:Drivers/STM32F4xx_HAL_Driver/Src/stm32f4xx_ll_usb.c **** /**
 169:Drivers/STM32F4xx_HAL_Driver/Src/stm32f4xx_ll_usb.c ****   * @brief  USB_SetCurrentMode : Set functional mode
 170:Drivers/STM32F4xx_HAL_Driver/Src/stm32f4xx_ll_usb.c ****   * @param  USBx  Selected device
 171:Drivers/STM32F4xx_HAL_Driver/Src/stm32f4xx_ll_usb.c ****   * @param  mode   current core mode
 172:Drivers/STM32F4xx_HAL_Driver/Src/stm32f4xx_ll_usb.c ****   *          This parameter can be one of these values:
 173:Drivers/STM32F4xx_HAL_Driver/Src/stm32f4xx_ll_usb.c ****   *            @arg USB_OTG_DEVICE_MODE: Peripheral mode
 174:Drivers/STM32F4xx_HAL_Driver/Src/stm32f4xx_ll_usb.c ****   *            @arg USB_OTG_HOST_MODE: Host mode
 175:Drivers/STM32F4xx_HAL_Driver/Src/stm32f4xx_ll_usb.c ****   *            @arg USB_OTG_DRD_MODE: Dual Role Device mode  
 176:Drivers/STM32F4xx_HAL_Driver/Src/stm32f4xx_ll_usb.c ****   * @retval HAL status
 177:Drivers/STM32F4xx_HAL_Driver/Src/stm32f4xx_ll_usb.c ****   */
 178:Drivers/STM32F4xx_HAL_Driver/Src/stm32f4xx_ll_usb.c **** HAL_StatusTypeDef USB_SetCurrentMode(USB_OTG_GlobalTypeDef *USBx , USB_OTG_ModeTypeDef mode)
 179:Drivers/STM32F4xx_HAL_Driver/Src/stm32f4xx_ll_usb.c **** {
 189              		.loc 1 179 0
 190              		.cfi_startproc
 191              		@ args = 0, pretend = 0, frame = 0
 192              		@ frame_needed = 0, uses_anonymous_args = 0
 193              	.LVL10:
 194 0000 08B5     		push	{r3, lr}
 195              	.LCFI5:
 196              		.cfi_def_cfa_offset 8
 197              		.cfi_offset 3, -8
 198              		.cfi_offset 14, -4
 180:Drivers/STM32F4xx_HAL_Driver/Src/stm32f4xx_ll_usb.c ****   USBx->GUSBCFG &= ~(USB_OTG_GUSBCFG_FHMOD | USB_OTG_GUSBCFG_FDMOD); 
 199              		.loc 1 180 0
 200 0002 C368     		ldr	r3, [r0, #12]
 201 0004 23F0C043 		bic	r3, r3, #1610612736
 202 0008 C360     		str	r3, [r0, #12]
 181:Drivers/STM32F4xx_HAL_Driver/Src/stm32f4xx_ll_usb.c ****   
 182:Drivers/STM32F4xx_HAL_Driver/Src/stm32f4xx_ll_usb.c ****   if ( mode == USB_OTG_HOST_MODE)
 203              		.loc 1 182 0
 204 000a 0129     		cmp	r1, #1
 205 000c 09D0     		beq	.L15
 183:Drivers/STM32F4xx_HAL_Driver/Src/stm32f4xx_ll_usb.c ****   {
 184:Drivers/STM32F4xx_HAL_Driver/Src/stm32f4xx_ll_usb.c ****     USBx->GUSBCFG |= USB_OTG_GUSBCFG_FHMOD; 
 185:Drivers/STM32F4xx_HAL_Driver/Src/stm32f4xx_ll_usb.c ****   }
 186:Drivers/STM32F4xx_HAL_Driver/Src/stm32f4xx_ll_usb.c ****   else if ( mode == USB_OTG_DEVICE_MODE)
 206              		.loc 1 186 0
 207 000e 19B9     		cbnz	r1, .L13
 187:Drivers/STM32F4xx_HAL_Driver/Src/stm32f4xx_ll_usb.c ****   {
 188:Drivers/STM32F4xx_HAL_Driver/Src/stm32f4xx_ll_usb.c ****     USBx->GUSBCFG |= USB_OTG_GUSBCFG_FDMOD; 
 208              		.loc 1 188 0
 209 0010 C368     		ldr	r3, [r0, #12]
 210 0012 43F08043 		orr	r3, r3, #1073741824
 211 0016 C360     		str	r3, [r0, #12]
 212              	.L13:
ARM GAS  x:\temp2\cc1gRVhO.s 			page 8


 189:Drivers/STM32F4xx_HAL_Driver/Src/stm32f4xx_ll_usb.c ****   }
 190:Drivers/STM32F4xx_HAL_Driver/Src/stm32f4xx_ll_usb.c ****   HAL_Delay(50U);
 213              		.loc 1 190 0
 214 0018 3220     		movs	r0, #50
 215              	.LVL11:
 216 001a FFF7FEFF 		bl	HAL_Delay
 217              	.LVL12:
 191:Drivers/STM32F4xx_HAL_Driver/Src/stm32f4xx_ll_usb.c ****   
 192:Drivers/STM32F4xx_HAL_Driver/Src/stm32f4xx_ll_usb.c ****   return HAL_OK;
 193:Drivers/STM32F4xx_HAL_Driver/Src/stm32f4xx_ll_usb.c **** }
 218              		.loc 1 193 0
 219 001e 0020     		movs	r0, #0
 220 0020 08BD     		pop	{r3, pc}
 221              	.LVL13:
 222              	.L15:
 184:Drivers/STM32F4xx_HAL_Driver/Src/stm32f4xx_ll_usb.c ****   }
 223              		.loc 1 184 0
 224 0022 C368     		ldr	r3, [r0, #12]
 225 0024 43F00053 		orr	r3, r3, #536870912
 226 0028 C360     		str	r3, [r0, #12]
 227 002a F5E7     		b	.L13
 228              		.cfi_endproc
 229              	.LFE129:
 231              		.section	.text.USB_DevInit,"ax",%progbits
 232              		.align	1
 233              		.global	USB_DevInit
 234              		.syntax unified
 235              		.thumb
 236              		.thumb_func
 237              		.fpu fpv4-sp-d16
 239              	USB_DevInit:
 240              	.LFB130:
 194:Drivers/STM32F4xx_HAL_Driver/Src/stm32f4xx_ll_usb.c **** 
 195:Drivers/STM32F4xx_HAL_Driver/Src/stm32f4xx_ll_usb.c **** /**
 196:Drivers/STM32F4xx_HAL_Driver/Src/stm32f4xx_ll_usb.c ****   * @brief  USB_DevInit : Initializes the USB_OTG controller registers 
 197:Drivers/STM32F4xx_HAL_Driver/Src/stm32f4xx_ll_usb.c ****   *         for device mode
 198:Drivers/STM32F4xx_HAL_Driver/Src/stm32f4xx_ll_usb.c ****   * @param  USBx  Selected device
 199:Drivers/STM32F4xx_HAL_Driver/Src/stm32f4xx_ll_usb.c ****   * @param  cfg   pointer to a USB_OTG_CfgTypeDef structure that contains
 200:Drivers/STM32F4xx_HAL_Driver/Src/stm32f4xx_ll_usb.c ****   *         the configuration information for the specified USBx peripheral.
 201:Drivers/STM32F4xx_HAL_Driver/Src/stm32f4xx_ll_usb.c ****   * @retval HAL status
 202:Drivers/STM32F4xx_HAL_Driver/Src/stm32f4xx_ll_usb.c ****   */
 203:Drivers/STM32F4xx_HAL_Driver/Src/stm32f4xx_ll_usb.c **** HAL_StatusTypeDef USB_DevInit (USB_OTG_GlobalTypeDef *USBx, USB_OTG_CfgTypeDef cfg)
 204:Drivers/STM32F4xx_HAL_Driver/Src/stm32f4xx_ll_usb.c **** {
 241              		.loc 1 204 0
 242              		.cfi_startproc
 243              		@ args = 56, pretend = 16, frame = 0
 244              		@ frame_needed = 0, uses_anonymous_args = 0
 245              	.LVL14:
 246 0000 84B0     		sub	sp, sp, #16
 247              	.LCFI6:
 248              		.cfi_def_cfa_offset 16
 249 0002 F8B5     		push	{r3, r4, r5, r6, r7, lr}
 250              	.LCFI7:
 251              		.cfi_def_cfa_offset 40
 252              		.cfi_offset 3, -40
 253              		.cfi_offset 4, -36
 254              		.cfi_offset 5, -32
ARM GAS  x:\temp2\cc1gRVhO.s 			page 9


 255              		.cfi_offset 6, -28
 256              		.cfi_offset 7, -24
 257              		.cfi_offset 14, -20
 258 0004 0446     		mov	r4, r0
 259 0006 07A8     		add	r0, sp, #28
 260              	.LVL15:
 261 0008 80E80E00 		stm	r0, {r1, r2, r3}
 262              	.LVL16:
 205:Drivers/STM32F4xx_HAL_Driver/Src/stm32f4xx_ll_usb.c ****   uint32_t i = 0U;
 206:Drivers/STM32F4xx_HAL_Driver/Src/stm32f4xx_ll_usb.c **** 
 207:Drivers/STM32F4xx_HAL_Driver/Src/stm32f4xx_ll_usb.c ****   /*Activate VBUS Sensing B */
 208:Drivers/STM32F4xx_HAL_Driver/Src/stm32f4xx_ll_usb.c **** #if defined(STM32F446xx) || defined(STM32F469xx) || defined(STM32F479xx) || defined(STM32F412Zx) ||
 209:Drivers/STM32F4xx_HAL_Driver/Src/stm32f4xx_ll_usb.c ****     defined(STM32F412Rx) || defined(STM32F412Cx) || defined(STM32F413xx) || defined(STM32F423xx)
 210:Drivers/STM32F4xx_HAL_Driver/Src/stm32f4xx_ll_usb.c ****   USBx->GCCFG |= USB_OTG_GCCFG_VBDEN;
 211:Drivers/STM32F4xx_HAL_Driver/Src/stm32f4xx_ll_usb.c ****   
 212:Drivers/STM32F4xx_HAL_Driver/Src/stm32f4xx_ll_usb.c ****   if (cfg.vbus_sensing_enable == 0U)
 213:Drivers/STM32F4xx_HAL_Driver/Src/stm32f4xx_ll_usb.c ****   {
 214:Drivers/STM32F4xx_HAL_Driver/Src/stm32f4xx_ll_usb.c ****     /* Deactivate VBUS Sensing B */
 215:Drivers/STM32F4xx_HAL_Driver/Src/stm32f4xx_ll_usb.c ****     USBx->GCCFG &= ~USB_OTG_GCCFG_VBDEN;
 216:Drivers/STM32F4xx_HAL_Driver/Src/stm32f4xx_ll_usb.c ****     
 217:Drivers/STM32F4xx_HAL_Driver/Src/stm32f4xx_ll_usb.c ****     /* B-peripheral session valid override enable*/ 
 218:Drivers/STM32F4xx_HAL_Driver/Src/stm32f4xx_ll_usb.c ****     USBx->GOTGCTL |= USB_OTG_GOTGCTL_BVALOEN;
 219:Drivers/STM32F4xx_HAL_Driver/Src/stm32f4xx_ll_usb.c ****     USBx->GOTGCTL |= USB_OTG_GOTGCTL_BVALOVAL;
 220:Drivers/STM32F4xx_HAL_Driver/Src/stm32f4xx_ll_usb.c ****   }
 221:Drivers/STM32F4xx_HAL_Driver/Src/stm32f4xx_ll_usb.c **** #else
 222:Drivers/STM32F4xx_HAL_Driver/Src/stm32f4xx_ll_usb.c ****   if (cfg.vbus_sensing_enable == 0U)
 263              		.loc 1 222 0
 264 000c 119F     		ldr	r7, [sp, #68]
 265 000e BFB9     		cbnz	r7, .L17
 223:Drivers/STM32F4xx_HAL_Driver/Src/stm32f4xx_ll_usb.c ****   {
 224:Drivers/STM32F4xx_HAL_Driver/Src/stm32f4xx_ll_usb.c ****     USBx->GCCFG |= USB_OTG_GCCFG_NOVBUSSENS;
 266              		.loc 1 224 0
 267 0010 A36B     		ldr	r3, [r4, #56]
 268 0012 43F40013 		orr	r3, r3, #2097152
 269 0016 A363     		str	r3, [r4, #56]
 270              	.L18:
 225:Drivers/STM32F4xx_HAL_Driver/Src/stm32f4xx_ll_usb.c ****   }
 226:Drivers/STM32F4xx_HAL_Driver/Src/stm32f4xx_ll_usb.c ****   else
 227:Drivers/STM32F4xx_HAL_Driver/Src/stm32f4xx_ll_usb.c ****   {
 228:Drivers/STM32F4xx_HAL_Driver/Src/stm32f4xx_ll_usb.c ****     /* Enable VBUS */
 229:Drivers/STM32F4xx_HAL_Driver/Src/stm32f4xx_ll_usb.c ****     USBx->GCCFG |= USB_OTG_GCCFG_VBUSBSEN;
 230:Drivers/STM32F4xx_HAL_Driver/Src/stm32f4xx_ll_usb.c ****   }
 231:Drivers/STM32F4xx_HAL_Driver/Src/stm32f4xx_ll_usb.c **** #endif /* STM32F446xx || STM32F469xx || STM32F479xx || STM32F412Zx || STM32F412Rx || STM32F412Vx ||
 232:Drivers/STM32F4xx_HAL_Driver/Src/stm32f4xx_ll_usb.c ****   
 233:Drivers/STM32F4xx_HAL_Driver/Src/stm32f4xx_ll_usb.c ****   /* Restart the Phy Clock */
 234:Drivers/STM32F4xx_HAL_Driver/Src/stm32f4xx_ll_usb.c ****   USBx_PCGCCTL = 0U;
 271              		.loc 1 234 0
 272 0018 2546     		mov	r5, r4
 273 001a 0023     		movs	r3, #0
 274 001c C4F8003E 		str	r3, [r4, #3584]
 235:Drivers/STM32F4xx_HAL_Driver/Src/stm32f4xx_ll_usb.c ****   
 236:Drivers/STM32F4xx_HAL_Driver/Src/stm32f4xx_ll_usb.c ****   /* Device mode configuration */
 237:Drivers/STM32F4xx_HAL_Driver/Src/stm32f4xx_ll_usb.c ****   USBx_DEVICE->DCFG |= DCFG_FRAME_INTERVAL_80;
 275              		.loc 1 237 0
 276 0020 04F50066 		add	r6, r4, #2048
 277 0024 D4F80038 		ldr	r3, [r4, #2048]
 278 0028 C4F80038 		str	r3, [r4, #2048]
ARM GAS  x:\temp2\cc1gRVhO.s 			page 10


 238:Drivers/STM32F4xx_HAL_Driver/Src/stm32f4xx_ll_usb.c ****   
 239:Drivers/STM32F4xx_HAL_Driver/Src/stm32f4xx_ll_usb.c ****   if(cfg.phy_itface  == USB_OTG_ULPI_PHY)
 279              		.loc 1 239 0
 280 002c 0C9B     		ldr	r3, [sp, #48]
 281 002e 012B     		cmp	r3, #1
 282 0030 10D1     		bne	.L19
 240:Drivers/STM32F4xx_HAL_Driver/Src/stm32f4xx_ll_usb.c ****   {
 241:Drivers/STM32F4xx_HAL_Driver/Src/stm32f4xx_ll_usb.c ****     if(cfg.speed == USB_OTG_SPEED_HIGH)
 283              		.loc 1 241 0
 284 0032 099B     		ldr	r3, [sp, #36]
 285 0034 4BB9     		cbnz	r3, .L20
 242:Drivers/STM32F4xx_HAL_Driver/Src/stm32f4xx_ll_usb.c ****     {      
 243:Drivers/STM32F4xx_HAL_Driver/Src/stm32f4xx_ll_usb.c ****       /* Set High speed phy */
 244:Drivers/STM32F4xx_HAL_Driver/Src/stm32f4xx_ll_usb.c ****       USB_SetDevSpeed (USBx , USB_OTG_SPEED_HIGH);
 286              		.loc 1 244 0
 287 0036 0021     		movs	r1, #0
 288 0038 2046     		mov	r0, r4
 289 003a FFF7FEFF 		bl	USB_SetDevSpeed
 290              	.LVL17:
 291 003e 0DE0     		b	.L21
 292              	.L17:
 229:Drivers/STM32F4xx_HAL_Driver/Src/stm32f4xx_ll_usb.c ****   }
 293              		.loc 1 229 0
 294 0040 A36B     		ldr	r3, [r4, #56]
 295 0042 43F40023 		orr	r3, r3, #524288
 296 0046 A363     		str	r3, [r4, #56]
 297 0048 E6E7     		b	.L18
 298              	.L20:
 245:Drivers/STM32F4xx_HAL_Driver/Src/stm32f4xx_ll_usb.c ****     }
 246:Drivers/STM32F4xx_HAL_Driver/Src/stm32f4xx_ll_usb.c ****     else 
 247:Drivers/STM32F4xx_HAL_Driver/Src/stm32f4xx_ll_usb.c ****     {
 248:Drivers/STM32F4xx_HAL_Driver/Src/stm32f4xx_ll_usb.c ****       /* set High speed phy in Full speed mode */
 249:Drivers/STM32F4xx_HAL_Driver/Src/stm32f4xx_ll_usb.c ****       USB_SetDevSpeed (USBx , USB_OTG_SPEED_HIGH_IN_FULL);
 299              		.loc 1 249 0
 300 004a 0121     		movs	r1, #1
 301 004c 2046     		mov	r0, r4
 302 004e FFF7FEFF 		bl	USB_SetDevSpeed
 303              	.LVL18:
 304 0052 03E0     		b	.L21
 305              	.L19:
 250:Drivers/STM32F4xx_HAL_Driver/Src/stm32f4xx_ll_usb.c ****     }
 251:Drivers/STM32F4xx_HAL_Driver/Src/stm32f4xx_ll_usb.c ****   }
 252:Drivers/STM32F4xx_HAL_Driver/Src/stm32f4xx_ll_usb.c ****   else
 253:Drivers/STM32F4xx_HAL_Driver/Src/stm32f4xx_ll_usb.c ****   {
 254:Drivers/STM32F4xx_HAL_Driver/Src/stm32f4xx_ll_usb.c ****     /* Set Full speed phy */
 255:Drivers/STM32F4xx_HAL_Driver/Src/stm32f4xx_ll_usb.c ****     USB_SetDevSpeed (USBx , USB_OTG_SPEED_FULL);
 306              		.loc 1 255 0
 307 0054 0321     		movs	r1, #3
 308 0056 2046     		mov	r0, r4
 309 0058 FFF7FEFF 		bl	USB_SetDevSpeed
 310              	.LVL19:
 311              	.L21:
 256:Drivers/STM32F4xx_HAL_Driver/Src/stm32f4xx_ll_usb.c ****   }
 257:Drivers/STM32F4xx_HAL_Driver/Src/stm32f4xx_ll_usb.c **** 
 258:Drivers/STM32F4xx_HAL_Driver/Src/stm32f4xx_ll_usb.c ****   /* Flush the FIFOs */
 259:Drivers/STM32F4xx_HAL_Driver/Src/stm32f4xx_ll_usb.c ****   USB_FlushTxFifo(USBx , 0x10U); /* all Tx FIFOs */
 312              		.loc 1 259 0
ARM GAS  x:\temp2\cc1gRVhO.s 			page 11


 313 005c 1021     		movs	r1, #16
 314 005e 2046     		mov	r0, r4
 315 0060 FFF7FEFF 		bl	USB_FlushTxFifo
 316              	.LVL20:
 260:Drivers/STM32F4xx_HAL_Driver/Src/stm32f4xx_ll_usb.c ****   USB_FlushRxFifo(USBx);
 317              		.loc 1 260 0
 318 0064 2046     		mov	r0, r4
 319 0066 FFF7FEFF 		bl	USB_FlushRxFifo
 320              	.LVL21:
 261:Drivers/STM32F4xx_HAL_Driver/Src/stm32f4xx_ll_usb.c ****   
 262:Drivers/STM32F4xx_HAL_Driver/Src/stm32f4xx_ll_usb.c ****   /* Clear all pending Device Interrupts */
 263:Drivers/STM32F4xx_HAL_Driver/Src/stm32f4xx_ll_usb.c ****   USBx_DEVICE->DIEPMSK = 0U;
 321              		.loc 1 263 0
 322 006a 0023     		movs	r3, #0
 323 006c 3361     		str	r3, [r6, #16]
 264:Drivers/STM32F4xx_HAL_Driver/Src/stm32f4xx_ll_usb.c ****   USBx_DEVICE->DOEPMSK = 0U;
 324              		.loc 1 264 0
 325 006e 7361     		str	r3, [r6, #20]
 265:Drivers/STM32F4xx_HAL_Driver/Src/stm32f4xx_ll_usb.c ****   USBx_DEVICE->DAINT = 0xFFFFFFFFU;
 326              		.loc 1 265 0
 327 0070 4FF0FF32 		mov	r2, #-1
 328 0074 B261     		str	r2, [r6, #24]
 266:Drivers/STM32F4xx_HAL_Driver/Src/stm32f4xx_ll_usb.c ****   USBx_DEVICE->DAINTMSK = 0U;
 329              		.loc 1 266 0
 330 0076 F361     		str	r3, [r6, #28]
 267:Drivers/STM32F4xx_HAL_Driver/Src/stm32f4xx_ll_usb.c ****   
 268:Drivers/STM32F4xx_HAL_Driver/Src/stm32f4xx_ll_usb.c ****   for (i = 0U; i < cfg.dev_endpoints; i++)
 331              		.loc 1 268 0
 332 0078 08E0     		b	.L22
 333              	.LVL22:
 334              	.L36:
 269:Drivers/STM32F4xx_HAL_Driver/Src/stm32f4xx_ll_usb.c ****   {
 270:Drivers/STM32F4xx_HAL_Driver/Src/stm32f4xx_ll_usb.c ****     if ((USBx_INEP(i)->DIEPCTL & USB_OTG_DIEPCTL_EPENA) == USB_OTG_DIEPCTL_EPENA)
 271:Drivers/STM32F4xx_HAL_Driver/Src/stm32f4xx_ll_usb.c ****     {
 272:Drivers/STM32F4xx_HAL_Driver/Src/stm32f4xx_ll_usb.c ****       USBx_INEP(i)->DIEPCTL = (USB_OTG_DIEPCTL_EPDIS | USB_OTG_DIEPCTL_SNAK);
 335              		.loc 1 272 0
 336 007a 4FF09040 		mov	r0, #1207959552
 337 007e C2F80009 		str	r0, [r2, #2304]
 338              	.L24:
 273:Drivers/STM32F4xx_HAL_Driver/Src/stm32f4xx_ll_usb.c ****     }
 274:Drivers/STM32F4xx_HAL_Driver/Src/stm32f4xx_ll_usb.c ****     else
 275:Drivers/STM32F4xx_HAL_Driver/Src/stm32f4xx_ll_usb.c ****     {
 276:Drivers/STM32F4xx_HAL_Driver/Src/stm32f4xx_ll_usb.c ****       USBx_INEP(i)->DIEPCTL = 0U;
 277:Drivers/STM32F4xx_HAL_Driver/Src/stm32f4xx_ll_usb.c ****     }
 278:Drivers/STM32F4xx_HAL_Driver/Src/stm32f4xx_ll_usb.c ****     
 279:Drivers/STM32F4xx_HAL_Driver/Src/stm32f4xx_ll_usb.c ****     USBx_INEP(i)->DIEPTSIZ = 0U;
 339              		.loc 1 279 0 discriminator 2
 340 0082 0022     		movs	r2, #0
 341 0084 0A61     		str	r2, [r1, #16]
 280:Drivers/STM32F4xx_HAL_Driver/Src/stm32f4xx_ll_usb.c ****     USBx_INEP(i)->DIEPINT  = 0xFFU;
 342              		.loc 1 280 0 discriminator 2
 343 0086 FF22     		movs	r2, #255
 344 0088 8A60     		str	r2, [r1, #8]
 268:Drivers/STM32F4xx_HAL_Driver/Src/stm32f4xx_ll_usb.c ****   {
 345              		.loc 1 268 0 discriminator 2
 346 008a 0133     		adds	r3, r3, #1
 347              	.LVL23:
ARM GAS  x:\temp2\cc1gRVhO.s 			page 12


 348              	.L22:
 268:Drivers/STM32F4xx_HAL_Driver/Src/stm32f4xx_ll_usb.c ****   {
 349              		.loc 1 268 0 is_stmt 0 discriminator 1
 350 008c 0799     		ldr	r1, [sp, #28]
 351 008e 9942     		cmp	r1, r3
 352 0090 0BD9     		bls	.L35
 270:Drivers/STM32F4xx_HAL_Driver/Src/stm32f4xx_ll_usb.c ****     {
 353              		.loc 1 270 0 is_stmt 1
 354 0092 05EB4312 		add	r2, r5, r3, lsl #5
 355 0096 02F51061 		add	r1, r2, #2304
 356 009a D2F80009 		ldr	r0, [r2, #2304]
 357 009e 0028     		cmp	r0, #0
 358 00a0 EBDB     		blt	.L36
 276:Drivers/STM32F4xx_HAL_Driver/Src/stm32f4xx_ll_usb.c ****     }
 359              		.loc 1 276 0
 360 00a2 0020     		movs	r0, #0
 361 00a4 C2F80009 		str	r0, [r2, #2304]
 362 00a8 EBE7     		b	.L24
 363              	.L35:
 281:Drivers/STM32F4xx_HAL_Driver/Src/stm32f4xx_ll_usb.c ****   }
 282:Drivers/STM32F4xx_HAL_Driver/Src/stm32f4xx_ll_usb.c ****   
 283:Drivers/STM32F4xx_HAL_Driver/Src/stm32f4xx_ll_usb.c ****   for (i = 0U; i < cfg.dev_endpoints; i++)
 364              		.loc 1 283 0
 365 00aa 0023     		movs	r3, #0
 366              	.LVL24:
 367 00ac 08E0     		b	.L26
 368              	.LVL25:
 369              	.L38:
 284:Drivers/STM32F4xx_HAL_Driver/Src/stm32f4xx_ll_usb.c ****   {
 285:Drivers/STM32F4xx_HAL_Driver/Src/stm32f4xx_ll_usb.c ****     if ((USBx_OUTEP(i)->DOEPCTL & USB_OTG_DOEPCTL_EPENA) == USB_OTG_DOEPCTL_EPENA)
 286:Drivers/STM32F4xx_HAL_Driver/Src/stm32f4xx_ll_usb.c ****     {
 287:Drivers/STM32F4xx_HAL_Driver/Src/stm32f4xx_ll_usb.c ****       USBx_OUTEP(i)->DOEPCTL = (USB_OTG_DOEPCTL_EPDIS | USB_OTG_DOEPCTL_SNAK);
 370              		.loc 1 287 0
 371 00ae 4FF0904C 		mov	ip, #1207959552
 372 00b2 C2F800CB 		str	ip, [r2, #2816]
 373              	.L28:
 288:Drivers/STM32F4xx_HAL_Driver/Src/stm32f4xx_ll_usb.c ****     }
 289:Drivers/STM32F4xx_HAL_Driver/Src/stm32f4xx_ll_usb.c ****     else
 290:Drivers/STM32F4xx_HAL_Driver/Src/stm32f4xx_ll_usb.c ****     {
 291:Drivers/STM32F4xx_HAL_Driver/Src/stm32f4xx_ll_usb.c ****       USBx_OUTEP(i)->DOEPCTL = 0U;
 292:Drivers/STM32F4xx_HAL_Driver/Src/stm32f4xx_ll_usb.c ****     }
 293:Drivers/STM32F4xx_HAL_Driver/Src/stm32f4xx_ll_usb.c ****     
 294:Drivers/STM32F4xx_HAL_Driver/Src/stm32f4xx_ll_usb.c ****     USBx_OUTEP(i)->DOEPTSIZ = 0U;
 374              		.loc 1 294 0 discriminator 2
 375 00b6 0022     		movs	r2, #0
 376 00b8 0261     		str	r2, [r0, #16]
 295:Drivers/STM32F4xx_HAL_Driver/Src/stm32f4xx_ll_usb.c ****     USBx_OUTEP(i)->DOEPINT  = 0xFFU;
 377              		.loc 1 295 0 discriminator 2
 378 00ba FF22     		movs	r2, #255
 379 00bc 8260     		str	r2, [r0, #8]
 283:Drivers/STM32F4xx_HAL_Driver/Src/stm32f4xx_ll_usb.c ****   {
 380              		.loc 1 283 0 discriminator 2
 381 00be 0133     		adds	r3, r3, #1
 382              	.LVL26:
 383              	.L26:
 283:Drivers/STM32F4xx_HAL_Driver/Src/stm32f4xx_ll_usb.c ****   {
 384              		.loc 1 283 0 is_stmt 0 discriminator 1
ARM GAS  x:\temp2\cc1gRVhO.s 			page 13


 385 00c0 9942     		cmp	r1, r3
 386 00c2 0DD9     		bls	.L37
 285:Drivers/STM32F4xx_HAL_Driver/Src/stm32f4xx_ll_usb.c ****     {
 387              		.loc 1 285 0 is_stmt 1
 388 00c4 05EB4312 		add	r2, r5, r3, lsl #5
 389 00c8 02F53060 		add	r0, r2, #2816
 390 00cc D2F800CB 		ldr	ip, [r2, #2816]
 391 00d0 BCF1000F 		cmp	ip, #0
 392 00d4 EBDB     		blt	.L38
 291:Drivers/STM32F4xx_HAL_Driver/Src/stm32f4xx_ll_usb.c ****     }
 393              		.loc 1 291 0
 394 00d6 4FF0000C 		mov	ip, #0
 395 00da C2F800CB 		str	ip, [r2, #2816]
 396 00de EAE7     		b	.L28
 397              	.L37:
 296:Drivers/STM32F4xx_HAL_Driver/Src/stm32f4xx_ll_usb.c ****   }
 297:Drivers/STM32F4xx_HAL_Driver/Src/stm32f4xx_ll_usb.c ****   
 298:Drivers/STM32F4xx_HAL_Driver/Src/stm32f4xx_ll_usb.c ****   USBx_DEVICE->DIEPMSK &= ~(USB_OTG_DIEPMSK_TXFURM);
 398              		.loc 1 298 0
 399 00e0 3369     		ldr	r3, [r6, #16]
 400              	.LVL27:
 401 00e2 23F48073 		bic	r3, r3, #256
 402 00e6 3361     		str	r3, [r6, #16]
 299:Drivers/STM32F4xx_HAL_Driver/Src/stm32f4xx_ll_usb.c ****   
 300:Drivers/STM32F4xx_HAL_Driver/Src/stm32f4xx_ll_usb.c ****   if (cfg.dma_enable == 1U)
 403              		.loc 1 300 0
 404 00e8 0A9B     		ldr	r3, [sp, #40]
 405 00ea 012B     		cmp	r3, #1
 406 00ec 1AD0     		beq	.L39
 407              	.L30:
 301:Drivers/STM32F4xx_HAL_Driver/Src/stm32f4xx_ll_usb.c ****   {
 302:Drivers/STM32F4xx_HAL_Driver/Src/stm32f4xx_ll_usb.c ****     /*Set threshold parameters */
 303:Drivers/STM32F4xx_HAL_Driver/Src/stm32f4xx_ll_usb.c ****     USBx_DEVICE->DTHRCTL = (USB_OTG_DTHRCTL_TXTHRLEN_6 | USB_OTG_DTHRCTL_RXTHRLEN_6);
 304:Drivers/STM32F4xx_HAL_Driver/Src/stm32f4xx_ll_usb.c ****     USBx_DEVICE->DTHRCTL |= (USB_OTG_DTHRCTL_RXTHREN | USB_OTG_DTHRCTL_ISOTHREN | USB_OTG_DTHRCTL_N
 305:Drivers/STM32F4xx_HAL_Driver/Src/stm32f4xx_ll_usb.c ****     
 306:Drivers/STM32F4xx_HAL_Driver/Src/stm32f4xx_ll_usb.c ****     i= USBx_DEVICE->DTHRCTL;
 307:Drivers/STM32F4xx_HAL_Driver/Src/stm32f4xx_ll_usb.c ****   }
 308:Drivers/STM32F4xx_HAL_Driver/Src/stm32f4xx_ll_usb.c ****   
 309:Drivers/STM32F4xx_HAL_Driver/Src/stm32f4xx_ll_usb.c ****   /* Disable all interrupts. */
 310:Drivers/STM32F4xx_HAL_Driver/Src/stm32f4xx_ll_usb.c ****   USBx->GINTMSK = 0U;
 408              		.loc 1 310 0
 409 00ee 0022     		movs	r2, #0
 410 00f0 A261     		str	r2, [r4, #24]
 311:Drivers/STM32F4xx_HAL_Driver/Src/stm32f4xx_ll_usb.c ****   
 312:Drivers/STM32F4xx_HAL_Driver/Src/stm32f4xx_ll_usb.c ****   /* Clear any pending interrupts */
 313:Drivers/STM32F4xx_HAL_Driver/Src/stm32f4xx_ll_usb.c ****   USBx->GINTSTS = 0xBFFFFFFFU;
 411              		.loc 1 313 0
 412 00f2 6FF08042 		mvn	r2, #1073741824
 413 00f6 6261     		str	r2, [r4, #20]
 314:Drivers/STM32F4xx_HAL_Driver/Src/stm32f4xx_ll_usb.c **** 
 315:Drivers/STM32F4xx_HAL_Driver/Src/stm32f4xx_ll_usb.c ****   /* Enable the common interrupts */
 316:Drivers/STM32F4xx_HAL_Driver/Src/stm32f4xx_ll_usb.c ****   if (cfg.dma_enable == DISABLE)
 414              		.loc 1 316 0
 415 00f8 1BB9     		cbnz	r3, .L31
 317:Drivers/STM32F4xx_HAL_Driver/Src/stm32f4xx_ll_usb.c ****   {
 318:Drivers/STM32F4xx_HAL_Driver/Src/stm32f4xx_ll_usb.c ****     USBx->GINTMSK |= USB_OTG_GINTMSK_RXFLVLM; 
 416              		.loc 1 318 0
ARM GAS  x:\temp2\cc1gRVhO.s 			page 14


 417 00fa A369     		ldr	r3, [r4, #24]
 418 00fc 43F01003 		orr	r3, r3, #16
 419 0100 A361     		str	r3, [r4, #24]
 420              	.L31:
 319:Drivers/STM32F4xx_HAL_Driver/Src/stm32f4xx_ll_usb.c ****   }
 320:Drivers/STM32F4xx_HAL_Driver/Src/stm32f4xx_ll_usb.c ****   
 321:Drivers/STM32F4xx_HAL_Driver/Src/stm32f4xx_ll_usb.c ****   /* Enable interrupts matching to the Device mode ONLY */
 322:Drivers/STM32F4xx_HAL_Driver/Src/stm32f4xx_ll_usb.c ****   USBx->GINTMSK |= (USB_OTG_GINTMSK_USBSUSPM | USB_OTG_GINTMSK_USBRST |\
 421              		.loc 1 322 0
 422 0102 A269     		ldr	r2, [r4, #24]
 423 0104 104B     		ldr	r3, .L41
 424 0106 1343     		orrs	r3, r3, r2
 425 0108 A361     		str	r3, [r4, #24]
 323:Drivers/STM32F4xx_HAL_Driver/Src/stm32f4xx_ll_usb.c ****                     USB_OTG_GINTMSK_ENUMDNEM | USB_OTG_GINTMSK_IEPINT |\
 324:Drivers/STM32F4xx_HAL_Driver/Src/stm32f4xx_ll_usb.c ****                     USB_OTG_GINTMSK_OEPINT   | USB_OTG_GINTMSK_IISOIXFRM|\
 325:Drivers/STM32F4xx_HAL_Driver/Src/stm32f4xx_ll_usb.c ****                     USB_OTG_GINTMSK_PXFRM_IISOOXFRM | USB_OTG_GINTMSK_WUIM);
 326:Drivers/STM32F4xx_HAL_Driver/Src/stm32f4xx_ll_usb.c ****   
 327:Drivers/STM32F4xx_HAL_Driver/Src/stm32f4xx_ll_usb.c ****   if(cfg.Sof_enable)
 426              		.loc 1 327 0
 427 010a 0D9B     		ldr	r3, [sp, #52]
 428 010c 1BB1     		cbz	r3, .L32
 328:Drivers/STM32F4xx_HAL_Driver/Src/stm32f4xx_ll_usb.c ****   {
 329:Drivers/STM32F4xx_HAL_Driver/Src/stm32f4xx_ll_usb.c ****     USBx->GINTMSK |= USB_OTG_GINTMSK_SOFM;
 429              		.loc 1 329 0
 430 010e A369     		ldr	r3, [r4, #24]
 431 0110 43F00803 		orr	r3, r3, #8
 432 0114 A361     		str	r3, [r4, #24]
 433              	.L32:
 330:Drivers/STM32F4xx_HAL_Driver/Src/stm32f4xx_ll_usb.c ****   }
 331:Drivers/STM32F4xx_HAL_Driver/Src/stm32f4xx_ll_usb.c **** 
 332:Drivers/STM32F4xx_HAL_Driver/Src/stm32f4xx_ll_usb.c ****   if (cfg.vbus_sensing_enable == ENABLE)
 434              		.loc 1 332 0
 435 0116 012F     		cmp	r7, #1
 436 0118 0ED0     		beq	.L40
 437              	.L33:
 333:Drivers/STM32F4xx_HAL_Driver/Src/stm32f4xx_ll_usb.c ****   {
 334:Drivers/STM32F4xx_HAL_Driver/Src/stm32f4xx_ll_usb.c ****     USBx->GINTMSK |= (USB_OTG_GINTMSK_SRQIM | USB_OTG_GINTMSK_OTGINT); 
 335:Drivers/STM32F4xx_HAL_Driver/Src/stm32f4xx_ll_usb.c ****   }
 336:Drivers/STM32F4xx_HAL_Driver/Src/stm32f4xx_ll_usb.c ****   
 337:Drivers/STM32F4xx_HAL_Driver/Src/stm32f4xx_ll_usb.c ****   return HAL_OK;
 338:Drivers/STM32F4xx_HAL_Driver/Src/stm32f4xx_ll_usb.c **** }
 438              		.loc 1 338 0
 439 011a 0020     		movs	r0, #0
 440 011c BDE8F840 		pop	{r3, r4, r5, r6, r7, lr}
 441              	.LCFI8:
 442              		.cfi_remember_state
 443              		.cfi_restore 14
 444              		.cfi_restore 7
 445              		.cfi_restore 6
 446              		.cfi_restore 5
 447              		.cfi_restore 4
 448              		.cfi_restore 3
 449              		.cfi_def_cfa_offset 16
 450              	.LVL28:
 451 0120 04B0     		add	sp, sp, #16
 452              	.LCFI9:
 453              		.cfi_def_cfa_offset 0
ARM GAS  x:\temp2\cc1gRVhO.s 			page 15


 454 0122 7047     		bx	lr
 455              	.LVL29:
 456              	.L39:
 457              	.LCFI10:
 458              		.cfi_restore_state
 303:Drivers/STM32F4xx_HAL_Driver/Src/stm32f4xx_ll_usb.c ****     USBx_DEVICE->DTHRCTL |= (USB_OTG_DTHRCTL_RXTHREN | USB_OTG_DTHRCTL_ISOTHREN | USB_OTG_DTHRCTL_N
 459              		.loc 1 303 0
 460 0124 094A     		ldr	r2, .L41+4
 461 0126 3263     		str	r2, [r6, #48]
 304:Drivers/STM32F4xx_HAL_Driver/Src/stm32f4xx_ll_usb.c ****     
 462              		.loc 1 304 0
 463 0128 326B     		ldr	r2, [r6, #48]
 464 012a 42F48032 		orr	r2, r2, #65536
 465 012e 42F00302 		orr	r2, r2, #3
 466 0132 3263     		str	r2, [r6, #48]
 306:Drivers/STM32F4xx_HAL_Driver/Src/stm32f4xx_ll_usb.c ****   }
 467              		.loc 1 306 0
 468 0134 326B     		ldr	r2, [r6, #48]
 469 0136 DAE7     		b	.L30
 470              	.L40:
 334:Drivers/STM32F4xx_HAL_Driver/Src/stm32f4xx_ll_usb.c ****   }
 471              		.loc 1 334 0
 472 0138 A369     		ldr	r3, [r4, #24]
 473 013a 43F08043 		orr	r3, r3, #1073741824
 474 013e 43F00403 		orr	r3, r3, #4
 475 0142 A361     		str	r3, [r4, #24]
 476 0144 E9E7     		b	.L33
 477              	.L42:
 478 0146 00BF     		.align	2
 479              	.L41:
 480 0148 00383C80 		.word	-2143537152
 481 014c 00018000 		.word	8388864
 482              		.cfi_endproc
 483              	.LFE130:
 485              		.section	.text.USB_FlushTxFifo,"ax",%progbits
 486              		.align	1
 487              		.global	USB_FlushTxFifo
 488              		.syntax unified
 489              		.thumb
 490              		.thumb_func
 491              		.fpu fpv4-sp-d16
 493              	USB_FlushTxFifo:
 494              	.LFB131:
 339:Drivers/STM32F4xx_HAL_Driver/Src/stm32f4xx_ll_usb.c **** 
 340:Drivers/STM32F4xx_HAL_Driver/Src/stm32f4xx_ll_usb.c **** 
 341:Drivers/STM32F4xx_HAL_Driver/Src/stm32f4xx_ll_usb.c **** /**
 342:Drivers/STM32F4xx_HAL_Driver/Src/stm32f4xx_ll_usb.c ****   * @brief  USB_OTG_FlushTxFifo : Flush a Tx FIFO
 343:Drivers/STM32F4xx_HAL_Driver/Src/stm32f4xx_ll_usb.c ****   * @param  USBx  Selected device
 344:Drivers/STM32F4xx_HAL_Driver/Src/stm32f4xx_ll_usb.c ****   * @param  num  FIFO number
 345:Drivers/STM32F4xx_HAL_Driver/Src/stm32f4xx_ll_usb.c ****   *         This parameter can be a value from 1 to 15
 346:Drivers/STM32F4xx_HAL_Driver/Src/stm32f4xx_ll_usb.c ****             15 means Flush all Tx FIFOs
 347:Drivers/STM32F4xx_HAL_Driver/Src/stm32f4xx_ll_usb.c ****   * @retval HAL status
 348:Drivers/STM32F4xx_HAL_Driver/Src/stm32f4xx_ll_usb.c ****   */
 349:Drivers/STM32F4xx_HAL_Driver/Src/stm32f4xx_ll_usb.c **** HAL_StatusTypeDef USB_FlushTxFifo (USB_OTG_GlobalTypeDef *USBx, uint32_t num )
 350:Drivers/STM32F4xx_HAL_Driver/Src/stm32f4xx_ll_usb.c **** {
 495              		.loc 1 350 0
 496              		.cfi_startproc
ARM GAS  x:\temp2\cc1gRVhO.s 			page 16


 497              		@ args = 0, pretend = 0, frame = 0
 498              		@ frame_needed = 0, uses_anonymous_args = 0
 499              		@ link register save eliminated.
 500              	.LVL30:
 351:Drivers/STM32F4xx_HAL_Driver/Src/stm32f4xx_ll_usb.c ****   uint32_t count = 0;
 352:Drivers/STM32F4xx_HAL_Driver/Src/stm32f4xx_ll_usb.c ****   
 353:Drivers/STM32F4xx_HAL_Driver/Src/stm32f4xx_ll_usb.c ****   USBx->GRSTCTL = ( USB_OTG_GRSTCTL_TXFFLSH |(uint32_t)( num << 6)); 
 501              		.loc 1 353 0
 502 0000 8901     		lsls	r1, r1, #6
 503              	.LVL31:
 504 0002 41F02001 		orr	r1, r1, #32
 505 0006 0161     		str	r1, [r0, #16]
 351:Drivers/STM32F4xx_HAL_Driver/Src/stm32f4xx_ll_usb.c ****   uint32_t count = 0;
 506              		.loc 1 351 0
 507 0008 0023     		movs	r3, #0
 508              	.LVL32:
 509              	.L45:
 354:Drivers/STM32F4xx_HAL_Driver/Src/stm32f4xx_ll_usb.c ****   
 355:Drivers/STM32F4xx_HAL_Driver/Src/stm32f4xx_ll_usb.c ****   do
 356:Drivers/STM32F4xx_HAL_Driver/Src/stm32f4xx_ll_usb.c ****   {
 357:Drivers/STM32F4xx_HAL_Driver/Src/stm32f4xx_ll_usb.c ****     if (++count > 200000)
 510              		.loc 1 357 0
 511 000a 0133     		adds	r3, r3, #1
 512              	.LVL33:
 513 000c 054A     		ldr	r2, .L47
 514 000e 9342     		cmp	r3, r2
 515 0010 05D8     		bhi	.L46
 358:Drivers/STM32F4xx_HAL_Driver/Src/stm32f4xx_ll_usb.c ****     {
 359:Drivers/STM32F4xx_HAL_Driver/Src/stm32f4xx_ll_usb.c ****       return HAL_TIMEOUT;
 360:Drivers/STM32F4xx_HAL_Driver/Src/stm32f4xx_ll_usb.c ****     }
 361:Drivers/STM32F4xx_HAL_Driver/Src/stm32f4xx_ll_usb.c ****   }
 362:Drivers/STM32F4xx_HAL_Driver/Src/stm32f4xx_ll_usb.c ****   while ((USBx->GRSTCTL & USB_OTG_GRSTCTL_TXFFLSH) == USB_OTG_GRSTCTL_TXFFLSH);
 516              		.loc 1 362 0
 517 0012 0269     		ldr	r2, [r0, #16]
 518 0014 12F0200F 		tst	r2, #32
 519 0018 F7D1     		bne	.L45
 363:Drivers/STM32F4xx_HAL_Driver/Src/stm32f4xx_ll_usb.c ****   
 364:Drivers/STM32F4xx_HAL_Driver/Src/stm32f4xx_ll_usb.c ****   return HAL_OK;
 520              		.loc 1 364 0
 521 001a 0020     		movs	r0, #0
 522              	.LVL34:
 523 001c 7047     		bx	lr
 524              	.LVL35:
 525              	.L46:
 359:Drivers/STM32F4xx_HAL_Driver/Src/stm32f4xx_ll_usb.c ****     }
 526              		.loc 1 359 0
 527 001e 0320     		movs	r0, #3
 528              	.LVL36:
 365:Drivers/STM32F4xx_HAL_Driver/Src/stm32f4xx_ll_usb.c **** }
 529              		.loc 1 365 0
 530 0020 7047     		bx	lr
 531              	.L48:
 532 0022 00BF     		.align	2
 533              	.L47:
 534 0024 400D0300 		.word	200000
 535              		.cfi_endproc
 536              	.LFE131:
ARM GAS  x:\temp2\cc1gRVhO.s 			page 17


 538              		.section	.text.USB_FlushRxFifo,"ax",%progbits
 539              		.align	1
 540              		.global	USB_FlushRxFifo
 541              		.syntax unified
 542              		.thumb
 543              		.thumb_func
 544              		.fpu fpv4-sp-d16
 546              	USB_FlushRxFifo:
 547              	.LFB132:
 366:Drivers/STM32F4xx_HAL_Driver/Src/stm32f4xx_ll_usb.c **** 
 367:Drivers/STM32F4xx_HAL_Driver/Src/stm32f4xx_ll_usb.c **** 
 368:Drivers/STM32F4xx_HAL_Driver/Src/stm32f4xx_ll_usb.c **** /**
 369:Drivers/STM32F4xx_HAL_Driver/Src/stm32f4xx_ll_usb.c ****   * @brief  USB_FlushRxFifo : Flush Rx FIFO
 370:Drivers/STM32F4xx_HAL_Driver/Src/stm32f4xx_ll_usb.c ****   * @param  USBx  Selected device
 371:Drivers/STM32F4xx_HAL_Driver/Src/stm32f4xx_ll_usb.c ****   * @retval HAL status
 372:Drivers/STM32F4xx_HAL_Driver/Src/stm32f4xx_ll_usb.c ****   */
 373:Drivers/STM32F4xx_HAL_Driver/Src/stm32f4xx_ll_usb.c **** HAL_StatusTypeDef USB_FlushRxFifo(USB_OTG_GlobalTypeDef *USBx)
 374:Drivers/STM32F4xx_HAL_Driver/Src/stm32f4xx_ll_usb.c **** {
 548              		.loc 1 374 0
 549              		.cfi_startproc
 550              		@ args = 0, pretend = 0, frame = 0
 551              		@ frame_needed = 0, uses_anonymous_args = 0
 552              		@ link register save eliminated.
 553              	.LVL37:
 375:Drivers/STM32F4xx_HAL_Driver/Src/stm32f4xx_ll_usb.c ****   uint32_t count = 0;
 376:Drivers/STM32F4xx_HAL_Driver/Src/stm32f4xx_ll_usb.c ****   
 377:Drivers/STM32F4xx_HAL_Driver/Src/stm32f4xx_ll_usb.c ****   USBx->GRSTCTL = USB_OTG_GRSTCTL_RXFFLSH;
 554              		.loc 1 377 0
 555 0000 1023     		movs	r3, #16
 556 0002 0361     		str	r3, [r0, #16]
 375:Drivers/STM32F4xx_HAL_Driver/Src/stm32f4xx_ll_usb.c ****   uint32_t count = 0;
 557              		.loc 1 375 0
 558 0004 0023     		movs	r3, #0
 559              	.LVL38:
 560              	.L51:
 378:Drivers/STM32F4xx_HAL_Driver/Src/stm32f4xx_ll_usb.c ****   
 379:Drivers/STM32F4xx_HAL_Driver/Src/stm32f4xx_ll_usb.c ****   do
 380:Drivers/STM32F4xx_HAL_Driver/Src/stm32f4xx_ll_usb.c ****   {
 381:Drivers/STM32F4xx_HAL_Driver/Src/stm32f4xx_ll_usb.c ****     if (++count > 200000)
 561              		.loc 1 381 0
 562 0006 0133     		adds	r3, r3, #1
 563              	.LVL39:
 564 0008 054A     		ldr	r2, .L53
 565 000a 9342     		cmp	r3, r2
 566 000c 05D8     		bhi	.L52
 382:Drivers/STM32F4xx_HAL_Driver/Src/stm32f4xx_ll_usb.c ****     {
 383:Drivers/STM32F4xx_HAL_Driver/Src/stm32f4xx_ll_usb.c ****       return HAL_TIMEOUT;
 384:Drivers/STM32F4xx_HAL_Driver/Src/stm32f4xx_ll_usb.c ****     }
 385:Drivers/STM32F4xx_HAL_Driver/Src/stm32f4xx_ll_usb.c ****   }
 386:Drivers/STM32F4xx_HAL_Driver/Src/stm32f4xx_ll_usb.c ****   while ((USBx->GRSTCTL & USB_OTG_GRSTCTL_RXFFLSH) == USB_OTG_GRSTCTL_RXFFLSH);
 567              		.loc 1 386 0
 568 000e 0269     		ldr	r2, [r0, #16]
 569 0010 12F0100F 		tst	r2, #16
 570 0014 F7D1     		bne	.L51
 387:Drivers/STM32F4xx_HAL_Driver/Src/stm32f4xx_ll_usb.c ****   
 388:Drivers/STM32F4xx_HAL_Driver/Src/stm32f4xx_ll_usb.c ****   return HAL_OK;
 571              		.loc 1 388 0
ARM GAS  x:\temp2\cc1gRVhO.s 			page 18


 572 0016 0020     		movs	r0, #0
 573              	.LVL40:
 574 0018 7047     		bx	lr
 575              	.LVL41:
 576              	.L52:
 383:Drivers/STM32F4xx_HAL_Driver/Src/stm32f4xx_ll_usb.c ****     }
 577              		.loc 1 383 0
 578 001a 0320     		movs	r0, #3
 579              	.LVL42:
 389:Drivers/STM32F4xx_HAL_Driver/Src/stm32f4xx_ll_usb.c **** }
 580              		.loc 1 389 0
 581 001c 7047     		bx	lr
 582              	.L54:
 583 001e 00BF     		.align	2
 584              	.L53:
 585 0020 400D0300 		.word	200000
 586              		.cfi_endproc
 587              	.LFE132:
 589              		.section	.text.USB_SetDevSpeed,"ax",%progbits
 590              		.align	1
 591              		.global	USB_SetDevSpeed
 592              		.syntax unified
 593              		.thumb
 594              		.thumb_func
 595              		.fpu fpv4-sp-d16
 597              	USB_SetDevSpeed:
 598              	.LFB133:
 390:Drivers/STM32F4xx_HAL_Driver/Src/stm32f4xx_ll_usb.c **** 
 391:Drivers/STM32F4xx_HAL_Driver/Src/stm32f4xx_ll_usb.c **** /**
 392:Drivers/STM32F4xx_HAL_Driver/Src/stm32f4xx_ll_usb.c ****   * @brief  USB_SetDevSpeed :Initializes the DevSpd field of DCFG register 
 393:Drivers/STM32F4xx_HAL_Driver/Src/stm32f4xx_ll_usb.c ****   *         depending the PHY type and the enumeration speed of the device.
 394:Drivers/STM32F4xx_HAL_Driver/Src/stm32f4xx_ll_usb.c ****   * @param  USBx  Selected device
 395:Drivers/STM32F4xx_HAL_Driver/Src/stm32f4xx_ll_usb.c ****   * @param  speed  device speed
 396:Drivers/STM32F4xx_HAL_Driver/Src/stm32f4xx_ll_usb.c ****   *          This parameter can be one of these values:
 397:Drivers/STM32F4xx_HAL_Driver/Src/stm32f4xx_ll_usb.c ****   *            @arg USB_OTG_SPEED_HIGH: High speed mode
 398:Drivers/STM32F4xx_HAL_Driver/Src/stm32f4xx_ll_usb.c ****   *            @arg USB_OTG_SPEED_HIGH_IN_FULL: High speed core in Full Speed mode
 399:Drivers/STM32F4xx_HAL_Driver/Src/stm32f4xx_ll_usb.c ****   *            @arg USB_OTG_SPEED_FULL: Full speed mode
 400:Drivers/STM32F4xx_HAL_Driver/Src/stm32f4xx_ll_usb.c ****   *            @arg USB_OTG_SPEED_LOW: Low speed mode
 401:Drivers/STM32F4xx_HAL_Driver/Src/stm32f4xx_ll_usb.c ****   * @retval  Hal status
 402:Drivers/STM32F4xx_HAL_Driver/Src/stm32f4xx_ll_usb.c ****   */
 403:Drivers/STM32F4xx_HAL_Driver/Src/stm32f4xx_ll_usb.c **** HAL_StatusTypeDef USB_SetDevSpeed(USB_OTG_GlobalTypeDef *USBx , uint8_t speed)
 404:Drivers/STM32F4xx_HAL_Driver/Src/stm32f4xx_ll_usb.c **** {
 599              		.loc 1 404 0
 600              		.cfi_startproc
 601              		@ args = 0, pretend = 0, frame = 0
 602              		@ frame_needed = 0, uses_anonymous_args = 0
 603              		@ link register save eliminated.
 604              	.LVL43:
 405:Drivers/STM32F4xx_HAL_Driver/Src/stm32f4xx_ll_usb.c ****   USBx_DEVICE->DCFG |= speed;
 605              		.loc 1 405 0
 606 0000 D0F80038 		ldr	r3, [r0, #2048]
 607 0004 1943     		orrs	r1, r1, r3
 608              	.LVL44:
 609 0006 C0F80018 		str	r1, [r0, #2048]
 406:Drivers/STM32F4xx_HAL_Driver/Src/stm32f4xx_ll_usb.c ****   return HAL_OK;
 407:Drivers/STM32F4xx_HAL_Driver/Src/stm32f4xx_ll_usb.c **** }
 610              		.loc 1 407 0
ARM GAS  x:\temp2\cc1gRVhO.s 			page 19


 611 000a 0020     		movs	r0, #0
 612              	.LVL45:
 613 000c 7047     		bx	lr
 614              		.cfi_endproc
 615              	.LFE133:
 617              		.section	.text.USB_GetDevSpeed,"ax",%progbits
 618              		.align	1
 619              		.global	USB_GetDevSpeed
 620              		.syntax unified
 621              		.thumb
 622              		.thumb_func
 623              		.fpu fpv4-sp-d16
 625              	USB_GetDevSpeed:
 626              	.LFB134:
 408:Drivers/STM32F4xx_HAL_Driver/Src/stm32f4xx_ll_usb.c **** 
 409:Drivers/STM32F4xx_HAL_Driver/Src/stm32f4xx_ll_usb.c **** /**
 410:Drivers/STM32F4xx_HAL_Driver/Src/stm32f4xx_ll_usb.c ****   * @brief  USB_GetDevSpeed :Return the  Dev Speed 
 411:Drivers/STM32F4xx_HAL_Driver/Src/stm32f4xx_ll_usb.c ****   * @param  USBx  Selected device
 412:Drivers/STM32F4xx_HAL_Driver/Src/stm32f4xx_ll_usb.c ****   * @retval speed : device speed
 413:Drivers/STM32F4xx_HAL_Driver/Src/stm32f4xx_ll_usb.c ****   *          This parameter can be one of these values:
 414:Drivers/STM32F4xx_HAL_Driver/Src/stm32f4xx_ll_usb.c ****   *            @arg USB_OTG_SPEED_HIGH: High speed mode
 415:Drivers/STM32F4xx_HAL_Driver/Src/stm32f4xx_ll_usb.c ****   *            @arg USB_OTG_SPEED_FULL: Full speed mode
 416:Drivers/STM32F4xx_HAL_Driver/Src/stm32f4xx_ll_usb.c ****   *            @arg USB_OTG_SPEED_LOW: Low speed mode
 417:Drivers/STM32F4xx_HAL_Driver/Src/stm32f4xx_ll_usb.c ****   */
 418:Drivers/STM32F4xx_HAL_Driver/Src/stm32f4xx_ll_usb.c **** uint8_t USB_GetDevSpeed(USB_OTG_GlobalTypeDef *USBx)
 419:Drivers/STM32F4xx_HAL_Driver/Src/stm32f4xx_ll_usb.c **** {
 627              		.loc 1 419 0
 628              		.cfi_startproc
 629              		@ args = 0, pretend = 0, frame = 0
 630              		@ frame_needed = 0, uses_anonymous_args = 0
 631              		@ link register save eliminated.
 632              	.LVL46:
 420:Drivers/STM32F4xx_HAL_Driver/Src/stm32f4xx_ll_usb.c ****   uint8_t speed = 0U;
 421:Drivers/STM32F4xx_HAL_Driver/Src/stm32f4xx_ll_usb.c ****   
 422:Drivers/STM32F4xx_HAL_Driver/Src/stm32f4xx_ll_usb.c ****   if((USBx_DEVICE->DSTS & USB_OTG_DSTS_ENUMSPD) == DSTS_ENUMSPD_HS_PHY_30MHZ_OR_60MHZ)
 633              		.loc 1 422 0
 634 0000 D0F80838 		ldr	r3, [r0, #2056]
 635 0004 00F50060 		add	r0, r0, #2048
 636              	.LVL47:
 637 0008 13F0060F 		tst	r3, #6
 638 000c 10D0     		beq	.L58
 423:Drivers/STM32F4xx_HAL_Driver/Src/stm32f4xx_ll_usb.c ****   {
 424:Drivers/STM32F4xx_HAL_Driver/Src/stm32f4xx_ll_usb.c ****     speed = USB_OTG_SPEED_HIGH;
 425:Drivers/STM32F4xx_HAL_Driver/Src/stm32f4xx_ll_usb.c ****   }
 426:Drivers/STM32F4xx_HAL_Driver/Src/stm32f4xx_ll_usb.c ****   else if (((USBx_DEVICE->DSTS & USB_OTG_DSTS_ENUMSPD) == DSTS_ENUMSPD_FS_PHY_30MHZ_OR_60MHZ)||
 639              		.loc 1 426 0
 640 000e 8368     		ldr	r3, [r0, #8]
 641 0010 03F00603 		and	r3, r3, #6
 642 0014 022B     		cmp	r3, #2
 643 0016 0DD0     		beq	.L59
 427:Drivers/STM32F4xx_HAL_Driver/Src/stm32f4xx_ll_usb.c ****            ((USBx_DEVICE->DSTS & USB_OTG_DSTS_ENUMSPD) == DSTS_ENUMSPD_FS_PHY_48MHZ))
 644              		.loc 1 427 0 discriminator 1
 645 0018 8368     		ldr	r3, [r0, #8]
 646 001a 03F00603 		and	r3, r3, #6
 426:Drivers/STM32F4xx_HAL_Driver/Src/stm32f4xx_ll_usb.c ****            ((USBx_DEVICE->DSTS & USB_OTG_DSTS_ENUMSPD) == DSTS_ENUMSPD_FS_PHY_48MHZ))
 647              		.loc 1 426 0 discriminator 1
 648 001e 062B     		cmp	r3, #6
ARM GAS  x:\temp2\cc1gRVhO.s 			page 20


 649 0020 0AD0     		beq	.L60
 428:Drivers/STM32F4xx_HAL_Driver/Src/stm32f4xx_ll_usb.c ****   {
 429:Drivers/STM32F4xx_HAL_Driver/Src/stm32f4xx_ll_usb.c ****     speed = USB_OTG_SPEED_FULL;
 430:Drivers/STM32F4xx_HAL_Driver/Src/stm32f4xx_ll_usb.c ****   }
 431:Drivers/STM32F4xx_HAL_Driver/Src/stm32f4xx_ll_usb.c ****   else if((USBx_DEVICE->DSTS & USB_OTG_DSTS_ENUMSPD) == DSTS_ENUMSPD_LS_PHY_6MHZ)
 650              		.loc 1 431 0
 651 0022 8368     		ldr	r3, [r0, #8]
 652 0024 03F00603 		and	r3, r3, #6
 653 0028 042B     		cmp	r3, #4
 654 002a 07D0     		beq	.L61
 420:Drivers/STM32F4xx_HAL_Driver/Src/stm32f4xx_ll_usb.c ****   
 655              		.loc 1 420 0
 656 002c 0020     		movs	r0, #0
 657              	.LVL48:
 658 002e 7047     		bx	lr
 659              	.L58:
 424:Drivers/STM32F4xx_HAL_Driver/Src/stm32f4xx_ll_usb.c ****   }
 660              		.loc 1 424 0
 661 0030 0020     		movs	r0, #0
 662 0032 7047     		bx	lr
 663              	.L59:
 429:Drivers/STM32F4xx_HAL_Driver/Src/stm32f4xx_ll_usb.c ****   }
 664              		.loc 1 429 0
 665 0034 0320     		movs	r0, #3
 666 0036 7047     		bx	lr
 667              	.L60:
 668 0038 0320     		movs	r0, #3
 669 003a 7047     		bx	lr
 670              	.L61:
 432:Drivers/STM32F4xx_HAL_Driver/Src/stm32f4xx_ll_usb.c ****   {
 433:Drivers/STM32F4xx_HAL_Driver/Src/stm32f4xx_ll_usb.c ****     speed = USB_OTG_SPEED_LOW;
 671              		.loc 1 433 0
 672 003c 0220     		movs	r0, #2
 673              	.LVL49:
 434:Drivers/STM32F4xx_HAL_Driver/Src/stm32f4xx_ll_usb.c ****   }
 435:Drivers/STM32F4xx_HAL_Driver/Src/stm32f4xx_ll_usb.c ****   
 436:Drivers/STM32F4xx_HAL_Driver/Src/stm32f4xx_ll_usb.c ****   return speed;
 437:Drivers/STM32F4xx_HAL_Driver/Src/stm32f4xx_ll_usb.c **** }
 674              		.loc 1 437 0
 675 003e 7047     		bx	lr
 676              		.cfi_endproc
 677              	.LFE134:
 679              		.section	.text.USB_ActivateEndpoint,"ax",%progbits
 680              		.align	1
 681              		.global	USB_ActivateEndpoint
 682              		.syntax unified
 683              		.thumb
 684              		.thumb_func
 685              		.fpu fpv4-sp-d16
 687              	USB_ActivateEndpoint:
 688              	.LFB135:
 438:Drivers/STM32F4xx_HAL_Driver/Src/stm32f4xx_ll_usb.c **** 
 439:Drivers/STM32F4xx_HAL_Driver/Src/stm32f4xx_ll_usb.c **** /**
 440:Drivers/STM32F4xx_HAL_Driver/Src/stm32f4xx_ll_usb.c ****   * @brief  Activate and configure an endpoint
 441:Drivers/STM32F4xx_HAL_Driver/Src/stm32f4xx_ll_usb.c ****   * @param  USBx  Selected device
 442:Drivers/STM32F4xx_HAL_Driver/Src/stm32f4xx_ll_usb.c ****   * @param  ep pointer to endpoint structure
 443:Drivers/STM32F4xx_HAL_Driver/Src/stm32f4xx_ll_usb.c ****   * @retval HAL status
ARM GAS  x:\temp2\cc1gRVhO.s 			page 21


 444:Drivers/STM32F4xx_HAL_Driver/Src/stm32f4xx_ll_usb.c ****   */
 445:Drivers/STM32F4xx_HAL_Driver/Src/stm32f4xx_ll_usb.c **** HAL_StatusTypeDef USB_ActivateEndpoint(USB_OTG_GlobalTypeDef *USBx, USB_OTG_EPTypeDef *ep)
 446:Drivers/STM32F4xx_HAL_Driver/Src/stm32f4xx_ll_usb.c **** {
 689              		.loc 1 446 0
 690              		.cfi_startproc
 691              		@ args = 0, pretend = 0, frame = 0
 692              		@ frame_needed = 0, uses_anonymous_args = 0
 693              		@ link register save eliminated.
 694              	.LVL50:
 695 0000 30B4     		push	{r4, r5}
 696              	.LCFI11:
 697              		.cfi_def_cfa_offset 8
 698              		.cfi_offset 4, -8
 699              		.cfi_offset 5, -4
 447:Drivers/STM32F4xx_HAL_Driver/Src/stm32f4xx_ll_usb.c ****   if (ep->is_in == 1U)
 700              		.loc 1 447 0
 701 0002 4B78     		ldrb	r3, [r1, #1]	@ zero_extendqisi2
 702 0004 012B     		cmp	r3, #1
 703 0006 22D0     		beq	.L66
 448:Drivers/STM32F4xx_HAL_Driver/Src/stm32f4xx_ll_usb.c ****   {
 449:Drivers/STM32F4xx_HAL_Driver/Src/stm32f4xx_ll_usb.c ****    USBx_DEVICE->DAINTMSK |= USB_OTG_DAINTMSK_IEPM & ((1U << (ep->num)));
 450:Drivers/STM32F4xx_HAL_Driver/Src/stm32f4xx_ll_usb.c ****    
 451:Drivers/STM32F4xx_HAL_Driver/Src/stm32f4xx_ll_usb.c ****     if (((USBx_INEP(ep->num)->DIEPCTL) & USB_OTG_DIEPCTL_USBAEP) == 0U)
 452:Drivers/STM32F4xx_HAL_Driver/Src/stm32f4xx_ll_usb.c ****     {
 453:Drivers/STM32F4xx_HAL_Driver/Src/stm32f4xx_ll_usb.c ****       USBx_INEP(ep->num)->DIEPCTL |= ((ep->maxpacket & USB_OTG_DIEPCTL_MPSIZ ) | (ep->type << 18U) 
 454:Drivers/STM32F4xx_HAL_Driver/Src/stm32f4xx_ll_usb.c ****         ((ep->num) << 22U) | (USB_OTG_DIEPCTL_SD0PID_SEVNFRM) | (USB_OTG_DIEPCTL_USBAEP)); 
 455:Drivers/STM32F4xx_HAL_Driver/Src/stm32f4xx_ll_usb.c ****     } 
 456:Drivers/STM32F4xx_HAL_Driver/Src/stm32f4xx_ll_usb.c ****   }
 457:Drivers/STM32F4xx_HAL_Driver/Src/stm32f4xx_ll_usb.c ****   else
 458:Drivers/STM32F4xx_HAL_Driver/Src/stm32f4xx_ll_usb.c ****   {
 459:Drivers/STM32F4xx_HAL_Driver/Src/stm32f4xx_ll_usb.c ****      USBx_DEVICE->DAINTMSK |= USB_OTG_DAINTMSK_OEPM & ((1U << (ep->num)) << 16U);
 704              		.loc 1 459 0
 705 0008 D0F81C38 		ldr	r3, [r0, #2076]
 706 000c 0D78     		ldrb	r5, [r1]	@ zero_extendqisi2
 707 000e 0122     		movs	r2, #1
 708 0010 AA40     		lsls	r2, r2, r5
 709 0012 43EA0243 		orr	r3, r3, r2, lsl #16
 710 0016 C0F81C38 		str	r3, [r0, #2076]
 460:Drivers/STM32F4xx_HAL_Driver/Src/stm32f4xx_ll_usb.c ****      
 461:Drivers/STM32F4xx_HAL_Driver/Src/stm32f4xx_ll_usb.c ****     if (((USBx_OUTEP(ep->num)->DOEPCTL) & USB_OTG_DOEPCTL_USBAEP) == 0U)
 711              		.loc 1 461 0
 712 001a 0B78     		ldrb	r3, [r1]	@ zero_extendqisi2
 713 001c 00EB4310 		add	r0, r0, r3, lsl #5
 714              	.LVL51:
 715 0020 D0F8003B 		ldr	r3, [r0, #2816]
 716 0024 13F4004F 		tst	r3, #32768
 717 0028 0ED1     		bne	.L64
 462:Drivers/STM32F4xx_HAL_Driver/Src/stm32f4xx_ll_usb.c ****     {
 463:Drivers/STM32F4xx_HAL_Driver/Src/stm32f4xx_ll_usb.c ****       USBx_OUTEP(ep->num)->DOEPCTL |= ((ep->maxpacket & USB_OTG_DOEPCTL_MPSIZ ) | (ep->type << 18U)
 718              		.loc 1 463 0
 719 002a D0F8003B 		ldr	r3, [r0, #2816]
 720 002e 8A68     		ldr	r2, [r1, #8]
 721 0030 C2F30A02 		ubfx	r2, r2, #0, #11
 722 0034 C978     		ldrb	r1, [r1, #3]	@ zero_extendqisi2
 723              	.LVL52:
 724 0036 42EA8142 		orr	r2, r2, r1, lsl #18
 725 003a 1343     		orrs	r3, r3, r2
ARM GAS  x:\temp2\cc1gRVhO.s 			page 22


 726 003c 43F08053 		orr	r3, r3, #268435456
 727 0040 43F40043 		orr	r3, r3, #32768
 728 0044 C0F8003B 		str	r3, [r0, #2816]
 729              	.L64:
 464:Drivers/STM32F4xx_HAL_Driver/Src/stm32f4xx_ll_usb.c ****        (USB_OTG_DIEPCTL_SD0PID_SEVNFRM)| (USB_OTG_DOEPCTL_USBAEP));
 465:Drivers/STM32F4xx_HAL_Driver/Src/stm32f4xx_ll_usb.c ****     } 
 466:Drivers/STM32F4xx_HAL_Driver/Src/stm32f4xx_ll_usb.c ****   }
 467:Drivers/STM32F4xx_HAL_Driver/Src/stm32f4xx_ll_usb.c ****   return HAL_OK;
 468:Drivers/STM32F4xx_HAL_Driver/Src/stm32f4xx_ll_usb.c **** }
 730              		.loc 1 468 0
 731 0048 0020     		movs	r0, #0
 732 004a 30BC     		pop	{r4, r5}
 733              	.LCFI12:
 734              		.cfi_remember_state
 735              		.cfi_restore 5
 736              		.cfi_restore 4
 737              		.cfi_def_cfa_offset 0
 738 004c 7047     		bx	lr
 739              	.LVL53:
 740              	.L66:
 741              	.LCFI13:
 742              		.cfi_restore_state
 449:Drivers/STM32F4xx_HAL_Driver/Src/stm32f4xx_ll_usb.c ****    
 743              		.loc 1 449 0
 744 004e D0F81C28 		ldr	r2, [r0, #2076]
 745 0052 0D78     		ldrb	r5, [r1]	@ zero_extendqisi2
 746 0054 AB40     		lsls	r3, r3, r5
 747 0056 9BB2     		uxth	r3, r3
 748 0058 1343     		orrs	r3, r3, r2
 749 005a C0F81C38 		str	r3, [r0, #2076]
 451:Drivers/STM32F4xx_HAL_Driver/Src/stm32f4xx_ll_usb.c ****     {
 750              		.loc 1 451 0
 751 005e 0C78     		ldrb	r4, [r1]	@ zero_extendqisi2
 752 0060 00EB4410 		add	r0, r0, r4, lsl #5
 753              	.LVL54:
 754 0064 D0F80039 		ldr	r3, [r0, #2304]
 755 0068 13F4004F 		tst	r3, #32768
 756 006c ECD1     		bne	.L64
 453:Drivers/STM32F4xx_HAL_Driver/Src/stm32f4xx_ll_usb.c ****         ((ep->num) << 22U) | (USB_OTG_DIEPCTL_SD0PID_SEVNFRM) | (USB_OTG_DIEPCTL_USBAEP)); 
 757              		.loc 1 453 0
 758 006e D0F80039 		ldr	r3, [r0, #2304]
 759 0072 8A68     		ldr	r2, [r1, #8]
 760 0074 C2F30A02 		ubfx	r2, r2, #0, #11
 761 0078 C978     		ldrb	r1, [r1, #3]	@ zero_extendqisi2
 762              	.LVL55:
 763 007a 42EA8142 		orr	r2, r2, r1, lsl #18
 764 007e 42EA8452 		orr	r2, r2, r4, lsl #22
 765 0082 1343     		orrs	r3, r3, r2
 766 0084 43F08053 		orr	r3, r3, #268435456
 767 0088 43F40043 		orr	r3, r3, #32768
 768 008c C0F80039 		str	r3, [r0, #2304]
 769 0090 DAE7     		b	.L64
 770              		.cfi_endproc
 771              	.LFE135:
 773              		.section	.text.USB_ActivateDedicatedEndpoint,"ax",%progbits
 774              		.align	1
 775              		.global	USB_ActivateDedicatedEndpoint
ARM GAS  x:\temp2\cc1gRVhO.s 			page 23


 776              		.syntax unified
 777              		.thumb
 778              		.thumb_func
 779              		.fpu fpv4-sp-d16
 781              	USB_ActivateDedicatedEndpoint:
 782              	.LFB136:
 469:Drivers/STM32F4xx_HAL_Driver/Src/stm32f4xx_ll_usb.c **** /**
 470:Drivers/STM32F4xx_HAL_Driver/Src/stm32f4xx_ll_usb.c ****   * @brief  Activate and configure a dedicated endpoint
 471:Drivers/STM32F4xx_HAL_Driver/Src/stm32f4xx_ll_usb.c ****   * @param  USBx  Selected device
 472:Drivers/STM32F4xx_HAL_Driver/Src/stm32f4xx_ll_usb.c ****   * @param  ep pointer to endpoint structure
 473:Drivers/STM32F4xx_HAL_Driver/Src/stm32f4xx_ll_usb.c ****   * @retval HAL status
 474:Drivers/STM32F4xx_HAL_Driver/Src/stm32f4xx_ll_usb.c ****   */
 475:Drivers/STM32F4xx_HAL_Driver/Src/stm32f4xx_ll_usb.c **** HAL_StatusTypeDef USB_ActivateDedicatedEndpoint(USB_OTG_GlobalTypeDef *USBx, USB_OTG_EPTypeDef *ep)
 476:Drivers/STM32F4xx_HAL_Driver/Src/stm32f4xx_ll_usb.c **** {
 783              		.loc 1 476 0
 784              		.cfi_startproc
 785              		@ args = 0, pretend = 0, frame = 0
 786              		@ frame_needed = 0, uses_anonymous_args = 0
 787              		@ link register save eliminated.
 788              	.LVL56:
 789 0000 70B4     		push	{r4, r5, r6}
 790              	.LCFI14:
 791              		.cfi_def_cfa_offset 12
 792              		.cfi_offset 4, -12
 793              		.cfi_offset 5, -8
 794              		.cfi_offset 6, -4
 477:Drivers/STM32F4xx_HAL_Driver/Src/stm32f4xx_ll_usb.c ****   static __IO uint32_t debug = 0U;
 478:Drivers/STM32F4xx_HAL_Driver/Src/stm32f4xx_ll_usb.c ****   
 479:Drivers/STM32F4xx_HAL_Driver/Src/stm32f4xx_ll_usb.c ****   /* Read DEPCTLn register */
 480:Drivers/STM32F4xx_HAL_Driver/Src/stm32f4xx_ll_usb.c ****   if (ep->is_in == 1U)
 795              		.loc 1 480 0
 796 0002 4B78     		ldrb	r3, [r1, #1]	@ zero_extendqisi2
 797 0004 012B     		cmp	r3, #1
 798 0006 39D0     		beq	.L73
 481:Drivers/STM32F4xx_HAL_Driver/Src/stm32f4xx_ll_usb.c ****   {
 482:Drivers/STM32F4xx_HAL_Driver/Src/stm32f4xx_ll_usb.c ****     if (((USBx_INEP(ep->num)->DIEPCTL) & USB_OTG_DIEPCTL_USBAEP) == 0U)
 483:Drivers/STM32F4xx_HAL_Driver/Src/stm32f4xx_ll_usb.c ****     {
 484:Drivers/STM32F4xx_HAL_Driver/Src/stm32f4xx_ll_usb.c ****       USBx_INEP(ep->num)->DIEPCTL |= ((ep->maxpacket & USB_OTG_DIEPCTL_MPSIZ ) | (ep->type << 18U) 
 485:Drivers/STM32F4xx_HAL_Driver/Src/stm32f4xx_ll_usb.c ****         ((ep->num) << 22U) | (USB_OTG_DIEPCTL_SD0PID_SEVNFRM) | (USB_OTG_DIEPCTL_USBAEP)); 
 486:Drivers/STM32F4xx_HAL_Driver/Src/stm32f4xx_ll_usb.c ****     } 
 487:Drivers/STM32F4xx_HAL_Driver/Src/stm32f4xx_ll_usb.c ****     
 488:Drivers/STM32F4xx_HAL_Driver/Src/stm32f4xx_ll_usb.c ****     
 489:Drivers/STM32F4xx_HAL_Driver/Src/stm32f4xx_ll_usb.c ****     debug  |= ((ep->maxpacket & USB_OTG_DIEPCTL_MPSIZ ) | (ep->type << 18U) |\
 490:Drivers/STM32F4xx_HAL_Driver/Src/stm32f4xx_ll_usb.c ****         ((ep->num) << 22U) | (USB_OTG_DIEPCTL_SD0PID_SEVNFRM) | (USB_OTG_DIEPCTL_USBAEP)); 
 491:Drivers/STM32F4xx_HAL_Driver/Src/stm32f4xx_ll_usb.c ****     
 492:Drivers/STM32F4xx_HAL_Driver/Src/stm32f4xx_ll_usb.c ****    USBx_DEVICE->DEACHMSK |= USB_OTG_DAINTMSK_IEPM & ((1U << (ep->num)));
 493:Drivers/STM32F4xx_HAL_Driver/Src/stm32f4xx_ll_usb.c ****   }
 494:Drivers/STM32F4xx_HAL_Driver/Src/stm32f4xx_ll_usb.c ****   else
 495:Drivers/STM32F4xx_HAL_Driver/Src/stm32f4xx_ll_usb.c ****   {
 496:Drivers/STM32F4xx_HAL_Driver/Src/stm32f4xx_ll_usb.c ****     if (((USBx_OUTEP(ep->num)->DOEPCTL) & USB_OTG_DOEPCTL_USBAEP) == 0U)
 799              		.loc 1 496 0
 800 0008 0D78     		ldrb	r5, [r1]	@ zero_extendqisi2
 801 000a 00EB4512 		add	r2, r0, r5, lsl #5
 802 000e D2F8003B 		ldr	r3, [r2, #2816]
 803 0012 13F4004F 		tst	r3, #32768
 804 0016 25D1     		bne	.L71
 497:Drivers/STM32F4xx_HAL_Driver/Src/stm32f4xx_ll_usb.c ****     {
ARM GAS  x:\temp2\cc1gRVhO.s 			page 24


 498:Drivers/STM32F4xx_HAL_Driver/Src/stm32f4xx_ll_usb.c ****       USBx_OUTEP(ep->num)->DOEPCTL |= ((ep->maxpacket & USB_OTG_DOEPCTL_MPSIZ ) | (ep->type << 18U)
 805              		.loc 1 498 0
 806 0018 D2F8004B 		ldr	r4, [r2, #2816]
 807 001c 8B68     		ldr	r3, [r1, #8]
 808 001e C3F30A03 		ubfx	r3, r3, #0, #11
 809 0022 CE78     		ldrb	r6, [r1, #3]	@ zero_extendqisi2
 810 0024 43EA8643 		orr	r3, r3, r6, lsl #18
 811 0028 43EA8553 		orr	r3, r3, r5, lsl #22
 812 002c 2343     		orrs	r3, r3, r4
 813 002e 43F40043 		orr	r3, r3, #32768
 814 0032 C2F8003B 		str	r3, [r2, #2816]
 499:Drivers/STM32F4xx_HAL_Driver/Src/stm32f4xx_ll_usb.c ****         ((ep->num) << 22U) | (USB_OTG_DOEPCTL_USBAEP));
 500:Drivers/STM32F4xx_HAL_Driver/Src/stm32f4xx_ll_usb.c ****       
 501:Drivers/STM32F4xx_HAL_Driver/Src/stm32f4xx_ll_usb.c ****       debug = (uint32_t)(((uint32_t )USBx) + USB_OTG_OUT_ENDPOINT_BASE + (0U)*USB_OTG_EP_REG_SIZE);
 815              		.loc 1 501 0
 816 0036 00F53063 		add	r3, r0, #2816
 817 003a 2A4A     		ldr	r2, .L74
 818 003c 1360     		str	r3, [r2]
 502:Drivers/STM32F4xx_HAL_Driver/Src/stm32f4xx_ll_usb.c ****       debug = (uint32_t )&USBx_OUTEP(ep->num)->DOEPCTL;
 819              		.loc 1 502 0
 820 003e 0D78     		ldrb	r5, [r1]	@ zero_extendqisi2
 821 0040 00EB4514 		add	r4, r0, r5, lsl #5
 822 0044 04F53064 		add	r4, r4, #2816
 823 0048 1460     		str	r4, [r2]
 503:Drivers/STM32F4xx_HAL_Driver/Src/stm32f4xx_ll_usb.c ****       debug |= ((ep->maxpacket & USB_OTG_DOEPCTL_MPSIZ ) | (ep->type << 18U) |\
 824              		.loc 1 503 0
 825 004a 8B68     		ldr	r3, [r1, #8]
 826 004c C3F30A03 		ubfx	r3, r3, #0, #11
 827 0050 CC78     		ldrb	r4, [r1, #3]	@ zero_extendqisi2
 828 0052 43EA8443 		orr	r3, r3, r4, lsl #18
 829 0056 43EA8553 		orr	r3, r3, r5, lsl #22
 830 005a 1468     		ldr	r4, [r2]
 831 005c 2343     		orrs	r3, r3, r4
 832 005e 43F40043 		orr	r3, r3, #32768
 833 0062 1360     		str	r3, [r2]
 834              	.L71:
 504:Drivers/STM32F4xx_HAL_Driver/Src/stm32f4xx_ll_usb.c ****         ((ep->num) << 22U) | (USB_OTG_DOEPCTL_USBAEP)); 
 505:Drivers/STM32F4xx_HAL_Driver/Src/stm32f4xx_ll_usb.c ****     } 
 506:Drivers/STM32F4xx_HAL_Driver/Src/stm32f4xx_ll_usb.c ****     
 507:Drivers/STM32F4xx_HAL_Driver/Src/stm32f4xx_ll_usb.c ****      USBx_DEVICE->DEACHMSK |= USB_OTG_DAINTMSK_OEPM & ((1U << (ep->num)) << 16U);
 835              		.loc 1 507 0
 836 0064 D0F83C38 		ldr	r3, [r0, #2108]
 837 0068 0978     		ldrb	r1, [r1]	@ zero_extendqisi2
 838              	.LVL57:
 839 006a 0122     		movs	r2, #1
 840 006c 8A40     		lsls	r2, r2, r1
 841 006e 43EA0243 		orr	r3, r3, r2, lsl #16
 842 0072 C0F83C38 		str	r3, [r0, #2108]
 843              	.L70:
 508:Drivers/STM32F4xx_HAL_Driver/Src/stm32f4xx_ll_usb.c ****   }
 509:Drivers/STM32F4xx_HAL_Driver/Src/stm32f4xx_ll_usb.c **** 
 510:Drivers/STM32F4xx_HAL_Driver/Src/stm32f4xx_ll_usb.c ****   return HAL_OK;
 511:Drivers/STM32F4xx_HAL_Driver/Src/stm32f4xx_ll_usb.c **** }
 844              		.loc 1 511 0
 845 0076 0020     		movs	r0, #0
 846              	.LVL58:
 847 0078 70BC     		pop	{r4, r5, r6}
ARM GAS  x:\temp2\cc1gRVhO.s 			page 25


 848              	.LCFI15:
 849              		.cfi_remember_state
 850              		.cfi_restore 6
 851              		.cfi_restore 5
 852              		.cfi_restore 4
 853              		.cfi_def_cfa_offset 0
 854 007a 7047     		bx	lr
 855              	.LVL59:
 856              	.L73:
 857              	.LCFI16:
 858              		.cfi_restore_state
 482:Drivers/STM32F4xx_HAL_Driver/Src/stm32f4xx_ll_usb.c ****     {
 859              		.loc 1 482 0
 860 007c 0D78     		ldrb	r5, [r1]	@ zero_extendqisi2
 861 007e 00EB4514 		add	r4, r0, r5, lsl #5
 862 0082 D4F80039 		ldr	r3, [r4, #2304]
 863 0086 13F4004F 		tst	r3, #32768
 864 008a 10D1     		bne	.L69
 484:Drivers/STM32F4xx_HAL_Driver/Src/stm32f4xx_ll_usb.c ****         ((ep->num) << 22U) | (USB_OTG_DIEPCTL_SD0PID_SEVNFRM) | (USB_OTG_DIEPCTL_USBAEP)); 
 865              		.loc 1 484 0
 866 008c D4F80039 		ldr	r3, [r4, #2304]
 867 0090 8A68     		ldr	r2, [r1, #8]
 868 0092 C2F30A02 		ubfx	r2, r2, #0, #11
 869 0096 CE78     		ldrb	r6, [r1, #3]	@ zero_extendqisi2
 870 0098 42EA8642 		orr	r2, r2, r6, lsl #18
 871 009c 42EA8552 		orr	r2, r2, r5, lsl #22
 872 00a0 1343     		orrs	r3, r3, r2
 873 00a2 43F08053 		orr	r3, r3, #268435456
 874 00a6 43F40043 		orr	r3, r3, #32768
 875 00aa C4F80039 		str	r3, [r4, #2304]
 876              	.L69:
 489:Drivers/STM32F4xx_HAL_Driver/Src/stm32f4xx_ll_usb.c ****         ((ep->num) << 22U) | (USB_OTG_DIEPCTL_SD0PID_SEVNFRM) | (USB_OTG_DIEPCTL_USBAEP)); 
 877              		.loc 1 489 0
 878 00ae 8B68     		ldr	r3, [r1, #8]
 879 00b0 C3F30A03 		ubfx	r3, r3, #0, #11
 880 00b4 CA78     		ldrb	r2, [r1, #3]	@ zero_extendqisi2
 881 00b6 43EA8243 		orr	r3, r3, r2, lsl #18
 490:Drivers/STM32F4xx_HAL_Driver/Src/stm32f4xx_ll_usb.c ****     
 882              		.loc 1 490 0
 883 00ba 0978     		ldrb	r1, [r1]	@ zero_extendqisi2
 884              	.LVL60:
 489:Drivers/STM32F4xx_HAL_Driver/Src/stm32f4xx_ll_usb.c ****         ((ep->num) << 22U) | (USB_OTG_DIEPCTL_SD0PID_SEVNFRM) | (USB_OTG_DIEPCTL_USBAEP)); 
 885              		.loc 1 489 0
 886 00bc 43EA8153 		orr	r3, r3, r1, lsl #22
 887 00c0 084A     		ldr	r2, .L74
 888 00c2 1468     		ldr	r4, [r2]
 889 00c4 2343     		orrs	r3, r3, r4
 890 00c6 43F08053 		orr	r3, r3, #268435456
 891 00ca 43F40043 		orr	r3, r3, #32768
 892 00ce 1360     		str	r3, [r2]
 492:Drivers/STM32F4xx_HAL_Driver/Src/stm32f4xx_ll_usb.c ****   }
 893              		.loc 1 492 0
 894 00d0 D0F83C28 		ldr	r2, [r0, #2108]
 895 00d4 0123     		movs	r3, #1
 896 00d6 8B40     		lsls	r3, r3, r1
 897 00d8 9BB2     		uxth	r3, r3
 898 00da 1343     		orrs	r3, r3, r2
ARM GAS  x:\temp2\cc1gRVhO.s 			page 26


 899 00dc C0F83C38 		str	r3, [r0, #2108]
 900 00e0 C9E7     		b	.L70
 901              	.L75:
 902 00e2 00BF     		.align	2
 903              	.L74:
 904 00e4 00000000 		.word	.LANCHOR0
 905              		.cfi_endproc
 906              	.LFE136:
 908              		.section	.text.USB_DeactivateEndpoint,"ax",%progbits
 909              		.align	1
 910              		.global	USB_DeactivateEndpoint
 911              		.syntax unified
 912              		.thumb
 913              		.thumb_func
 914              		.fpu fpv4-sp-d16
 916              	USB_DeactivateEndpoint:
 917              	.LFB137:
 512:Drivers/STM32F4xx_HAL_Driver/Src/stm32f4xx_ll_usb.c **** /**
 513:Drivers/STM32F4xx_HAL_Driver/Src/stm32f4xx_ll_usb.c ****   * @brief  De-activate and de-initialize an endpoint
 514:Drivers/STM32F4xx_HAL_Driver/Src/stm32f4xx_ll_usb.c ****   * @param  USBx  Selected device
 515:Drivers/STM32F4xx_HAL_Driver/Src/stm32f4xx_ll_usb.c ****   * @param  ep pointer to endpoint structure
 516:Drivers/STM32F4xx_HAL_Driver/Src/stm32f4xx_ll_usb.c ****   * @retval HAL status
 517:Drivers/STM32F4xx_HAL_Driver/Src/stm32f4xx_ll_usb.c ****   */
 518:Drivers/STM32F4xx_HAL_Driver/Src/stm32f4xx_ll_usb.c **** HAL_StatusTypeDef USB_DeactivateEndpoint(USB_OTG_GlobalTypeDef *USBx, USB_OTG_EPTypeDef *ep)
 519:Drivers/STM32F4xx_HAL_Driver/Src/stm32f4xx_ll_usb.c **** {
 918              		.loc 1 519 0
 919              		.cfi_startproc
 920              		@ args = 0, pretend = 0, frame = 0
 921              		@ frame_needed = 0, uses_anonymous_args = 0
 922              	.LVL61:
 923 0000 38B5     		push	{r3, r4, r5, lr}
 924              	.LCFI17:
 925              		.cfi_def_cfa_offset 16
 926              		.cfi_offset 3, -16
 927              		.cfi_offset 4, -12
 928              		.cfi_offset 5, -8
 929              		.cfi_offset 14, -4
 930              	.LVL62:
 520:Drivers/STM32F4xx_HAL_Driver/Src/stm32f4xx_ll_usb.c ****   uint32_t count = 0U;
 521:Drivers/STM32F4xx_HAL_Driver/Src/stm32f4xx_ll_usb.c ****   
 522:Drivers/STM32F4xx_HAL_Driver/Src/stm32f4xx_ll_usb.c ****   /* Disable the IN endpoint */
 523:Drivers/STM32F4xx_HAL_Driver/Src/stm32f4xx_ll_usb.c ****   if (ep->is_in == 1U)
 931              		.loc 1 523 0
 932 0002 4B78     		ldrb	r3, [r1, #1]	@ zero_extendqisi2
 933 0004 012B     		cmp	r3, #1
 934 0006 36D0     		beq	.L84
 524:Drivers/STM32F4xx_HAL_Driver/Src/stm32f4xx_ll_usb.c ****   {
 525:Drivers/STM32F4xx_HAL_Driver/Src/stm32f4xx_ll_usb.c ****     USBx_INEP(ep->num)->DIEPCTL &= ~USB_OTG_DIEPCTL_USBAEP;  
 526:Drivers/STM32F4xx_HAL_Driver/Src/stm32f4xx_ll_usb.c ****     
 527:Drivers/STM32F4xx_HAL_Driver/Src/stm32f4xx_ll_usb.c ****     /* sets the NAK bit for the IN endpoint */
 528:Drivers/STM32F4xx_HAL_Driver/Src/stm32f4xx_ll_usb.c ****     USBx_INEP(ep->num)->DIEPCTL = USB_OTG_DIEPCTL_SNAK;
 529:Drivers/STM32F4xx_HAL_Driver/Src/stm32f4xx_ll_usb.c ****     
 530:Drivers/STM32F4xx_HAL_Driver/Src/stm32f4xx_ll_usb.c ****     /* Disable IN endpoint */
 531:Drivers/STM32F4xx_HAL_Driver/Src/stm32f4xx_ll_usb.c ****     USBx_INEP(ep->num)->DIEPCTL = USB_OTG_DIEPCTL_EPDIS;
 532:Drivers/STM32F4xx_HAL_Driver/Src/stm32f4xx_ll_usb.c ****     
 533:Drivers/STM32F4xx_HAL_Driver/Src/stm32f4xx_ll_usb.c ****     do
 534:Drivers/STM32F4xx_HAL_Driver/Src/stm32f4xx_ll_usb.c ****     {
ARM GAS  x:\temp2\cc1gRVhO.s 			page 27


 535:Drivers/STM32F4xx_HAL_Driver/Src/stm32f4xx_ll_usb.c ****       if (++count > 200000U)
 536:Drivers/STM32F4xx_HAL_Driver/Src/stm32f4xx_ll_usb.c ****       {
 537:Drivers/STM32F4xx_HAL_Driver/Src/stm32f4xx_ll_usb.c ****         return HAL_TIMEOUT;
 538:Drivers/STM32F4xx_HAL_Driver/Src/stm32f4xx_ll_usb.c ****       }
 539:Drivers/STM32F4xx_HAL_Driver/Src/stm32f4xx_ll_usb.c ****     }
 540:Drivers/STM32F4xx_HAL_Driver/Src/stm32f4xx_ll_usb.c ****     
 541:Drivers/STM32F4xx_HAL_Driver/Src/stm32f4xx_ll_usb.c ****     /*Wait for  EPDISD endpoint disabled interrupt*/ 
 542:Drivers/STM32F4xx_HAL_Driver/Src/stm32f4xx_ll_usb.c ****     while ((USBx_INEP(ep->num)->DIEPINT & USB_OTG_DIEPCTL_EPDIS) == USB_OTG_DIEPCTL_EPDIS);
 543:Drivers/STM32F4xx_HAL_Driver/Src/stm32f4xx_ll_usb.c ****     
 544:Drivers/STM32F4xx_HAL_Driver/Src/stm32f4xx_ll_usb.c ****     
 545:Drivers/STM32F4xx_HAL_Driver/Src/stm32f4xx_ll_usb.c ****     /* Flush any data remaining in the TxFIFO */
 546:Drivers/STM32F4xx_HAL_Driver/Src/stm32f4xx_ll_usb.c ****     USB_FlushTxFifo(USBx , 0x10U);
 547:Drivers/STM32F4xx_HAL_Driver/Src/stm32f4xx_ll_usb.c ****     
 548:Drivers/STM32F4xx_HAL_Driver/Src/stm32f4xx_ll_usb.c ****     /* Disable endpoint interrupts */
 549:Drivers/STM32F4xx_HAL_Driver/Src/stm32f4xx_ll_usb.c ****     USBx_DEVICE->DAINTMSK &= ~(USB_OTG_DAINTMSK_IEPM & ((1U << (ep->num))));   
 550:Drivers/STM32F4xx_HAL_Driver/Src/stm32f4xx_ll_usb.c ****   
 551:Drivers/STM32F4xx_HAL_Driver/Src/stm32f4xx_ll_usb.c ****   }
 552:Drivers/STM32F4xx_HAL_Driver/Src/stm32f4xx_ll_usb.c ****   else /* Disable the OUT endpoint */
 553:Drivers/STM32F4xx_HAL_Driver/Src/stm32f4xx_ll_usb.c ****   {
 554:Drivers/STM32F4xx_HAL_Driver/Src/stm32f4xx_ll_usb.c ****     
 555:Drivers/STM32F4xx_HAL_Driver/Src/stm32f4xx_ll_usb.c ****     USBx_OUTEP(ep->num)->DOEPCTL &= ~USB_OTG_DOEPCTL_USBAEP;  
 935              		.loc 1 555 0
 936 0008 0B78     		ldrb	r3, [r1]	@ zero_extendqisi2
 937 000a 0446     		mov	r4, r0
 938 000c 00EB4313 		add	r3, r0, r3, lsl #5
 939 0010 D3F8002B 		ldr	r2, [r3, #2816]
 940 0014 22F40042 		bic	r2, r2, #32768
 941 0018 C3F8002B 		str	r2, [r3, #2816]
 556:Drivers/STM32F4xx_HAL_Driver/Src/stm32f4xx_ll_usb.c ****     
 557:Drivers/STM32F4xx_HAL_Driver/Src/stm32f4xx_ll_usb.c ****     /* sets the NAK bit for the OUT endpoint */
 558:Drivers/STM32F4xx_HAL_Driver/Src/stm32f4xx_ll_usb.c ****     USBx_OUTEP(ep->num)->DOEPCTL = USB_OTG_DOEPCTL_SNAK;
 942              		.loc 1 558 0
 943 001c 0B78     		ldrb	r3, [r1]	@ zero_extendqisi2
 944 001e 00EB4313 		add	r3, r0, r3, lsl #5
 945 0022 4FF00062 		mov	r2, #134217728
 946 0026 C3F8002B 		str	r2, [r3, #2816]
 559:Drivers/STM32F4xx_HAL_Driver/Src/stm32f4xx_ll_usb.c ****     
 560:Drivers/STM32F4xx_HAL_Driver/Src/stm32f4xx_ll_usb.c ****     /* Disable OUT endpoint */
 561:Drivers/STM32F4xx_HAL_Driver/Src/stm32f4xx_ll_usb.c ****     USBx_OUTEP(ep->num)->DOEPCTL = USB_OTG_DOEPCTL_EPDIS;
 947              		.loc 1 561 0
 948 002a 0B78     		ldrb	r3, [r1]	@ zero_extendqisi2
 949 002c 00EB4313 		add	r3, r0, r3, lsl #5
 950 0030 4FF08042 		mov	r2, #1073741824
 951 0034 C3F8002B 		str	r2, [r3, #2816]
 520:Drivers/STM32F4xx_HAL_Driver/Src/stm32f4xx_ll_usb.c ****   
 952              		.loc 1 520 0
 953 0038 0022     		movs	r2, #0
 954              	.LVL63:
 955              	.L80:
 562:Drivers/STM32F4xx_HAL_Driver/Src/stm32f4xx_ll_usb.c ****     
 563:Drivers/STM32F4xx_HAL_Driver/Src/stm32f4xx_ll_usb.c ****     do
 564:Drivers/STM32F4xx_HAL_Driver/Src/stm32f4xx_ll_usb.c ****     {
 565:Drivers/STM32F4xx_HAL_Driver/Src/stm32f4xx_ll_usb.c ****       if (++count > 200000U)
 956              		.loc 1 565 0
 957 003a 0132     		adds	r2, r2, #1
 958              	.LVL64:
 959 003c 2B4B     		ldr	r3, .L85
ARM GAS  x:\temp2\cc1gRVhO.s 			page 28


 960 003e 9A42     		cmp	r2, r3
 961 0040 52D8     		bhi	.L82
 566:Drivers/STM32F4xx_HAL_Driver/Src/stm32f4xx_ll_usb.c ****       {
 567:Drivers/STM32F4xx_HAL_Driver/Src/stm32f4xx_ll_usb.c ****         return HAL_TIMEOUT;
 568:Drivers/STM32F4xx_HAL_Driver/Src/stm32f4xx_ll_usb.c ****       }
 569:Drivers/STM32F4xx_HAL_Driver/Src/stm32f4xx_ll_usb.c ****     }
 570:Drivers/STM32F4xx_HAL_Driver/Src/stm32f4xx_ll_usb.c ****     
 571:Drivers/STM32F4xx_HAL_Driver/Src/stm32f4xx_ll_usb.c ****     /*Wait for  EPDISD endpoint disabled interrupt*/ 
 572:Drivers/STM32F4xx_HAL_Driver/Src/stm32f4xx_ll_usb.c ****     while ((USBx_OUTEP(ep->num)->DOEPINT & USB_OTG_DOEPINT_OTEPDIS) == USB_OTG_DOEPINT_OTEPDIS);
 962              		.loc 1 572 0
 963 0042 0B78     		ldrb	r3, [r1]	@ zero_extendqisi2
 964 0044 04EB4313 		add	r3, r4, r3, lsl #5
 965 0048 03F53063 		add	r3, r3, #2816
 966 004c 9B68     		ldr	r3, [r3, #8]
 967 004e 13F0100F 		tst	r3, #16
 968 0052 F2D1     		bne	.L80
 573:Drivers/STM32F4xx_HAL_Driver/Src/stm32f4xx_ll_usb.c ****     
 574:Drivers/STM32F4xx_HAL_Driver/Src/stm32f4xx_ll_usb.c ****     /* Set the "Clear the Global OUT NAK bit" to disable global OUT NAK mode */
 575:Drivers/STM32F4xx_HAL_Driver/Src/stm32f4xx_ll_usb.c ****     USBx_DEVICE->DCTL |= USB_OTG_DCTL_CGONAK;
 969              		.loc 1 575 0
 970 0054 D0F80438 		ldr	r3, [r0, #2052]
 971 0058 43F48063 		orr	r3, r3, #1024
 972 005c C0F80438 		str	r3, [r0, #2052]
 576:Drivers/STM32F4xx_HAL_Driver/Src/stm32f4xx_ll_usb.c ****     
 577:Drivers/STM32F4xx_HAL_Driver/Src/stm32f4xx_ll_usb.c ****     /* Disable endpoint interrupts */
 578:Drivers/STM32F4xx_HAL_Driver/Src/stm32f4xx_ll_usb.c ****     USBx_DEVICE->DAINTMSK &= ~(USB_OTG_DAINTMSK_OEPM & ((1U << (ep->num)) << 16U));         
 973              		.loc 1 578 0
 974 0060 D0F81C38 		ldr	r3, [r0, #2076]
 975 0064 0978     		ldrb	r1, [r1]	@ zero_extendqisi2
 976              	.LVL65:
 977 0066 0122     		movs	r2, #1
 978              	.LVL66:
 979 0068 8A40     		lsls	r2, r2, r1
 980 006a 23EA0243 		bic	r3, r3, r2, lsl #16
 981 006e C0F81C38 		str	r3, [r0, #2076]
 579:Drivers/STM32F4xx_HAL_Driver/Src/stm32f4xx_ll_usb.c ****   }
 580:Drivers/STM32F4xx_HAL_Driver/Src/stm32f4xx_ll_usb.c ****   return HAL_OK;
 982              		.loc 1 580 0
 983 0072 0020     		movs	r0, #0
 984              	.LVL67:
 985              	.L78:
 581:Drivers/STM32F4xx_HAL_Driver/Src/stm32f4xx_ll_usb.c **** }
 986              		.loc 1 581 0
 987 0074 38BD     		pop	{r3, r4, r5, pc}
 988              	.LVL68:
 989              	.L84:
 525:Drivers/STM32F4xx_HAL_Driver/Src/stm32f4xx_ll_usb.c ****     
 990              		.loc 1 525 0
 991 0076 0B78     		ldrb	r3, [r1]	@ zero_extendqisi2
 992 0078 0446     		mov	r4, r0
 993 007a 00EB4313 		add	r3, r0, r3, lsl #5
 994 007e D3F80029 		ldr	r2, [r3, #2304]
 995 0082 22F40042 		bic	r2, r2, #32768
 996 0086 C3F80029 		str	r2, [r3, #2304]
 528:Drivers/STM32F4xx_HAL_Driver/Src/stm32f4xx_ll_usb.c ****     
 997              		.loc 1 528 0
 998 008a 0B78     		ldrb	r3, [r1]	@ zero_extendqisi2
ARM GAS  x:\temp2\cc1gRVhO.s 			page 29


 999 008c 00EB4313 		add	r3, r0, r3, lsl #5
 1000 0090 4FF00062 		mov	r2, #134217728
 1001 0094 C3F80029 		str	r2, [r3, #2304]
 531:Drivers/STM32F4xx_HAL_Driver/Src/stm32f4xx_ll_usb.c ****     
 1002              		.loc 1 531 0
 1003 0098 0B78     		ldrb	r3, [r1]	@ zero_extendqisi2
 1004 009a 00EB4313 		add	r3, r0, r3, lsl #5
 1005 009e 4FF08042 		mov	r2, #1073741824
 1006 00a2 C3F80029 		str	r2, [r3, #2304]
 520:Drivers/STM32F4xx_HAL_Driver/Src/stm32f4xx_ll_usb.c ****   
 1007              		.loc 1 520 0
 1008 00a6 0022     		movs	r2, #0
 1009              	.LVL69:
 1010              	.L79:
 535:Drivers/STM32F4xx_HAL_Driver/Src/stm32f4xx_ll_usb.c ****       {
 1011              		.loc 1 535 0
 1012 00a8 0132     		adds	r2, r2, #1
 1013              	.LVL70:
 1014 00aa 104B     		ldr	r3, .L85
 1015 00ac 9A42     		cmp	r2, r3
 1016 00ae 19D8     		bhi	.L81
 542:Drivers/STM32F4xx_HAL_Driver/Src/stm32f4xx_ll_usb.c ****     
 1017              		.loc 1 542 0
 1018 00b0 0B78     		ldrb	r3, [r1]	@ zero_extendqisi2
 1019 00b2 04EB4313 		add	r3, r4, r3, lsl #5
 1020 00b6 03F51063 		add	r3, r3, #2304
 1021 00ba 9B68     		ldr	r3, [r3, #8]
 1022 00bc 13F0804F 		tst	r3, #1073741824
 1023 00c0 F2D1     		bne	.L79
 1024 00c2 0D46     		mov	r5, r1
 1025 00c4 0446     		mov	r4, r0
 546:Drivers/STM32F4xx_HAL_Driver/Src/stm32f4xx_ll_usb.c ****     
 1026              		.loc 1 546 0
 1027 00c6 1021     		movs	r1, #16
 1028              	.LVL71:
 1029 00c8 FFF7FEFF 		bl	USB_FlushTxFifo
 1030              	.LVL72:
 549:Drivers/STM32F4xx_HAL_Driver/Src/stm32f4xx_ll_usb.c ****   
 1031              		.loc 1 549 0
 1032 00cc D4F81C28 		ldr	r2, [r4, #2076]
 1033 00d0 2978     		ldrb	r1, [r5]	@ zero_extendqisi2
 1034 00d2 0123     		movs	r3, #1
 1035 00d4 8B40     		lsls	r3, r3, r1
 1036 00d6 9BB2     		uxth	r3, r3
 1037 00d8 22EA0303 		bic	r3, r2, r3
 1038 00dc C4F81C38 		str	r3, [r4, #2076]
 580:Drivers/STM32F4xx_HAL_Driver/Src/stm32f4xx_ll_usb.c **** }
 1039              		.loc 1 580 0
 1040 00e0 0020     		movs	r0, #0
 1041 00e2 C7E7     		b	.L78
 1042              	.LVL73:
 1043              	.L81:
 537:Drivers/STM32F4xx_HAL_Driver/Src/stm32f4xx_ll_usb.c ****       }
 1044              		.loc 1 537 0
 1045 00e4 0320     		movs	r0, #3
 1046              	.LVL74:
 1047 00e6 C5E7     		b	.L78
ARM GAS  x:\temp2\cc1gRVhO.s 			page 30


 1048              	.LVL75:
 1049              	.L82:
 567:Drivers/STM32F4xx_HAL_Driver/Src/stm32f4xx_ll_usb.c ****       }
 1050              		.loc 1 567 0
 1051 00e8 0320     		movs	r0, #3
 1052              	.LVL76:
 1053 00ea C3E7     		b	.L78
 1054              	.L86:
 1055              		.align	2
 1056              	.L85:
 1057 00ec 400D0300 		.word	200000
 1058              		.cfi_endproc
 1059              	.LFE137:
 1061              		.section	.text.USB_DeactivateDedicatedEndpoint,"ax",%progbits
 1062              		.align	1
 1063              		.global	USB_DeactivateDedicatedEndpoint
 1064              		.syntax unified
 1065              		.thumb
 1066              		.thumb_func
 1067              		.fpu fpv4-sp-d16
 1069              	USB_DeactivateDedicatedEndpoint:
 1070              	.LFB138:
 582:Drivers/STM32F4xx_HAL_Driver/Src/stm32f4xx_ll_usb.c **** 
 583:Drivers/STM32F4xx_HAL_Driver/Src/stm32f4xx_ll_usb.c **** /**
 584:Drivers/STM32F4xx_HAL_Driver/Src/stm32f4xx_ll_usb.c ****   * @brief  De-activate and de-initialize a dedicated endpoint
 585:Drivers/STM32F4xx_HAL_Driver/Src/stm32f4xx_ll_usb.c ****   * @param  USBx  Selected device
 586:Drivers/STM32F4xx_HAL_Driver/Src/stm32f4xx_ll_usb.c ****   * @param  ep pointer to endpoint structure
 587:Drivers/STM32F4xx_HAL_Driver/Src/stm32f4xx_ll_usb.c ****   * @retval HAL status
 588:Drivers/STM32F4xx_HAL_Driver/Src/stm32f4xx_ll_usb.c ****   */
 589:Drivers/STM32F4xx_HAL_Driver/Src/stm32f4xx_ll_usb.c **** HAL_StatusTypeDef USB_DeactivateDedicatedEndpoint(USB_OTG_GlobalTypeDef *USBx, USB_OTG_EPTypeDef *e
 590:Drivers/STM32F4xx_HAL_Driver/Src/stm32f4xx_ll_usb.c **** {
 1071              		.loc 1 590 0
 1072              		.cfi_startproc
 1073              		@ args = 0, pretend = 0, frame = 0
 1074              		@ frame_needed = 0, uses_anonymous_args = 0
 1075              	.LVL77:
 1076 0000 38B5     		push	{r3, r4, r5, lr}
 1077              	.LCFI18:
 1078              		.cfi_def_cfa_offset 16
 1079              		.cfi_offset 3, -16
 1080              		.cfi_offset 4, -12
 1081              		.cfi_offset 5, -8
 1082              		.cfi_offset 14, -4
 1083              	.LVL78:
 591:Drivers/STM32F4xx_HAL_Driver/Src/stm32f4xx_ll_usb.c ****   uint32_t count = 0U;
 592:Drivers/STM32F4xx_HAL_Driver/Src/stm32f4xx_ll_usb.c ****   
 593:Drivers/STM32F4xx_HAL_Driver/Src/stm32f4xx_ll_usb.c ****   /* Disable the IN endpoint */
 594:Drivers/STM32F4xx_HAL_Driver/Src/stm32f4xx_ll_usb.c ****   if (ep->is_in == 1U)
 1084              		.loc 1 594 0
 1085 0002 4B78     		ldrb	r3, [r1, #1]	@ zero_extendqisi2
 1086 0004 012B     		cmp	r3, #1
 1087 0006 36D0     		beq	.L95
 595:Drivers/STM32F4xx_HAL_Driver/Src/stm32f4xx_ll_usb.c ****   {
 596:Drivers/STM32F4xx_HAL_Driver/Src/stm32f4xx_ll_usb.c ****     USBx_INEP(ep->num)->DIEPCTL &= ~USB_OTG_DIEPCTL_USBAEP;  
 597:Drivers/STM32F4xx_HAL_Driver/Src/stm32f4xx_ll_usb.c ****     
 598:Drivers/STM32F4xx_HAL_Driver/Src/stm32f4xx_ll_usb.c ****     /* sets the NAK bit for the IN endpoint */
 599:Drivers/STM32F4xx_HAL_Driver/Src/stm32f4xx_ll_usb.c ****     USBx_INEP(ep->num)->DIEPCTL = USB_OTG_DIEPCTL_SNAK;
ARM GAS  x:\temp2\cc1gRVhO.s 			page 31


 600:Drivers/STM32F4xx_HAL_Driver/Src/stm32f4xx_ll_usb.c ****     
 601:Drivers/STM32F4xx_HAL_Driver/Src/stm32f4xx_ll_usb.c ****     /* Disable IN endpoint */
 602:Drivers/STM32F4xx_HAL_Driver/Src/stm32f4xx_ll_usb.c ****     USBx_INEP(ep->num)->DIEPCTL = USB_OTG_DIEPCTL_EPDIS;
 603:Drivers/STM32F4xx_HAL_Driver/Src/stm32f4xx_ll_usb.c ****     
 604:Drivers/STM32F4xx_HAL_Driver/Src/stm32f4xx_ll_usb.c ****     do
 605:Drivers/STM32F4xx_HAL_Driver/Src/stm32f4xx_ll_usb.c ****     {
 606:Drivers/STM32F4xx_HAL_Driver/Src/stm32f4xx_ll_usb.c ****       if (++count > 200000U)
 607:Drivers/STM32F4xx_HAL_Driver/Src/stm32f4xx_ll_usb.c ****       {
 608:Drivers/STM32F4xx_HAL_Driver/Src/stm32f4xx_ll_usb.c ****         return HAL_TIMEOUT;
 609:Drivers/STM32F4xx_HAL_Driver/Src/stm32f4xx_ll_usb.c ****       }
 610:Drivers/STM32F4xx_HAL_Driver/Src/stm32f4xx_ll_usb.c ****     }
 611:Drivers/STM32F4xx_HAL_Driver/Src/stm32f4xx_ll_usb.c ****     
 612:Drivers/STM32F4xx_HAL_Driver/Src/stm32f4xx_ll_usb.c ****     /*Wait for  EPDISD endpoint disabled interrupt*/ 
 613:Drivers/STM32F4xx_HAL_Driver/Src/stm32f4xx_ll_usb.c ****     while ((USBx_INEP(ep->num)->DIEPINT & USB_OTG_DIEPCTL_EPDIS) == USB_OTG_DIEPCTL_EPDIS);
 614:Drivers/STM32F4xx_HAL_Driver/Src/stm32f4xx_ll_usb.c ****     
 615:Drivers/STM32F4xx_HAL_Driver/Src/stm32f4xx_ll_usb.c ****     
 616:Drivers/STM32F4xx_HAL_Driver/Src/stm32f4xx_ll_usb.c ****     /* Flush any data remaining in the TxFIFO */
 617:Drivers/STM32F4xx_HAL_Driver/Src/stm32f4xx_ll_usb.c ****     USB_FlushTxFifo(USBx , 0x10U);
 618:Drivers/STM32F4xx_HAL_Driver/Src/stm32f4xx_ll_usb.c ****     
 619:Drivers/STM32F4xx_HAL_Driver/Src/stm32f4xx_ll_usb.c ****     /* Disable endpoint interrupts */
 620:Drivers/STM32F4xx_HAL_Driver/Src/stm32f4xx_ll_usb.c ****     USBx_DEVICE->DAINTMSK &= ~(USB_OTG_DAINTMSK_IEPM & ((1U << (ep->num))));   
 621:Drivers/STM32F4xx_HAL_Driver/Src/stm32f4xx_ll_usb.c ****   
 622:Drivers/STM32F4xx_HAL_Driver/Src/stm32f4xx_ll_usb.c ****   }
 623:Drivers/STM32F4xx_HAL_Driver/Src/stm32f4xx_ll_usb.c ****   else /* Disable the OUT endpoint */
 624:Drivers/STM32F4xx_HAL_Driver/Src/stm32f4xx_ll_usb.c ****   {
 625:Drivers/STM32F4xx_HAL_Driver/Src/stm32f4xx_ll_usb.c ****     
 626:Drivers/STM32F4xx_HAL_Driver/Src/stm32f4xx_ll_usb.c ****     USBx_OUTEP(ep->num)->DOEPCTL &= ~USB_OTG_DOEPCTL_USBAEP;  
 1088              		.loc 1 626 0
 1089 0008 0B78     		ldrb	r3, [r1]	@ zero_extendqisi2
 1090 000a 0446     		mov	r4, r0
 1091 000c 00EB4313 		add	r3, r0, r3, lsl #5
 1092 0010 D3F8002B 		ldr	r2, [r3, #2816]
 1093 0014 22F40042 		bic	r2, r2, #32768
 1094 0018 C3F8002B 		str	r2, [r3, #2816]
 627:Drivers/STM32F4xx_HAL_Driver/Src/stm32f4xx_ll_usb.c ****     
 628:Drivers/STM32F4xx_HAL_Driver/Src/stm32f4xx_ll_usb.c ****     /* sets the NAK bit for the OUT endpoint */
 629:Drivers/STM32F4xx_HAL_Driver/Src/stm32f4xx_ll_usb.c ****     USBx_OUTEP(ep->num)->DOEPCTL = USB_OTG_DOEPCTL_SNAK;
 1095              		.loc 1 629 0
 1096 001c 0B78     		ldrb	r3, [r1]	@ zero_extendqisi2
 1097 001e 00EB4313 		add	r3, r0, r3, lsl #5
 1098 0022 4FF00062 		mov	r2, #134217728
 1099 0026 C3F8002B 		str	r2, [r3, #2816]
 630:Drivers/STM32F4xx_HAL_Driver/Src/stm32f4xx_ll_usb.c ****     
 631:Drivers/STM32F4xx_HAL_Driver/Src/stm32f4xx_ll_usb.c ****     /* Disable OUT endpoint */
 632:Drivers/STM32F4xx_HAL_Driver/Src/stm32f4xx_ll_usb.c ****     USBx_OUTEP(ep->num)->DOEPCTL = USB_OTG_DOEPCTL_EPDIS;
 1100              		.loc 1 632 0
 1101 002a 0B78     		ldrb	r3, [r1]	@ zero_extendqisi2
 1102 002c 00EB4313 		add	r3, r0, r3, lsl #5
 1103 0030 4FF08042 		mov	r2, #1073741824
 1104 0034 C3F8002B 		str	r2, [r3, #2816]
 591:Drivers/STM32F4xx_HAL_Driver/Src/stm32f4xx_ll_usb.c ****   
 1105              		.loc 1 591 0
 1106 0038 0022     		movs	r2, #0
 1107              	.LVL79:
 1108              	.L91:
 633:Drivers/STM32F4xx_HAL_Driver/Src/stm32f4xx_ll_usb.c ****     
 634:Drivers/STM32F4xx_HAL_Driver/Src/stm32f4xx_ll_usb.c ****     do
ARM GAS  x:\temp2\cc1gRVhO.s 			page 32


 635:Drivers/STM32F4xx_HAL_Driver/Src/stm32f4xx_ll_usb.c ****     {
 636:Drivers/STM32F4xx_HAL_Driver/Src/stm32f4xx_ll_usb.c ****       if (++count > 200000U)
 1109              		.loc 1 636 0
 1110 003a 0132     		adds	r2, r2, #1
 1111              	.LVL80:
 1112 003c 2B4B     		ldr	r3, .L96
 1113 003e 9A42     		cmp	r2, r3
 1114 0040 52D8     		bhi	.L93
 637:Drivers/STM32F4xx_HAL_Driver/Src/stm32f4xx_ll_usb.c ****       {
 638:Drivers/STM32F4xx_HAL_Driver/Src/stm32f4xx_ll_usb.c ****         return HAL_TIMEOUT;
 639:Drivers/STM32F4xx_HAL_Driver/Src/stm32f4xx_ll_usb.c ****       }
 640:Drivers/STM32F4xx_HAL_Driver/Src/stm32f4xx_ll_usb.c ****     }
 641:Drivers/STM32F4xx_HAL_Driver/Src/stm32f4xx_ll_usb.c ****     
 642:Drivers/STM32F4xx_HAL_Driver/Src/stm32f4xx_ll_usb.c ****     /*Wait for  EPDISD endpoint disabled interrupt*/ 
 643:Drivers/STM32F4xx_HAL_Driver/Src/stm32f4xx_ll_usb.c ****     while ((USBx_OUTEP(ep->num)->DOEPINT & USB_OTG_DOEPINT_OTEPDIS) == USB_OTG_DOEPINT_OTEPDIS);
 1115              		.loc 1 643 0
 1116 0042 0B78     		ldrb	r3, [r1]	@ zero_extendqisi2
 1117 0044 04EB4313 		add	r3, r4, r3, lsl #5
 1118 0048 03F53063 		add	r3, r3, #2816
 1119 004c 9B68     		ldr	r3, [r3, #8]
 1120 004e 13F0100F 		tst	r3, #16
 1121 0052 F2D1     		bne	.L91
 644:Drivers/STM32F4xx_HAL_Driver/Src/stm32f4xx_ll_usb.c ****     
 645:Drivers/STM32F4xx_HAL_Driver/Src/stm32f4xx_ll_usb.c ****     /* Set the "Clear the Global OUT NAK bit" to disable global OUT NAK mode */
 646:Drivers/STM32F4xx_HAL_Driver/Src/stm32f4xx_ll_usb.c ****     USBx_DEVICE->DCTL |= USB_OTG_DCTL_CGONAK;
 1122              		.loc 1 646 0
 1123 0054 D0F80438 		ldr	r3, [r0, #2052]
 1124 0058 43F48063 		orr	r3, r3, #1024
 1125 005c C0F80438 		str	r3, [r0, #2052]
 647:Drivers/STM32F4xx_HAL_Driver/Src/stm32f4xx_ll_usb.c ****     
 648:Drivers/STM32F4xx_HAL_Driver/Src/stm32f4xx_ll_usb.c ****     /* Disable endpoint interrupts */
 649:Drivers/STM32F4xx_HAL_Driver/Src/stm32f4xx_ll_usb.c ****     USBx_DEVICE->DAINTMSK &= ~(USB_OTG_DAINTMSK_OEPM & ((1U << (ep->num)) << 16U));         
 1126              		.loc 1 649 0
 1127 0060 D0F81C38 		ldr	r3, [r0, #2076]
 1128 0064 0978     		ldrb	r1, [r1]	@ zero_extendqisi2
 1129              	.LVL81:
 1130 0066 0122     		movs	r2, #1
 1131              	.LVL82:
 1132 0068 8A40     		lsls	r2, r2, r1
 1133 006a 23EA0243 		bic	r3, r3, r2, lsl #16
 1134 006e C0F81C38 		str	r3, [r0, #2076]
 650:Drivers/STM32F4xx_HAL_Driver/Src/stm32f4xx_ll_usb.c ****   }
 651:Drivers/STM32F4xx_HAL_Driver/Src/stm32f4xx_ll_usb.c ****   return HAL_OK;
 1135              		.loc 1 651 0
 1136 0072 0020     		movs	r0, #0
 1137              	.LVL83:
 1138              	.L89:
 652:Drivers/STM32F4xx_HAL_Driver/Src/stm32f4xx_ll_usb.c **** 
 653:Drivers/STM32F4xx_HAL_Driver/Src/stm32f4xx_ll_usb.c **** }
 1139              		.loc 1 653 0
 1140 0074 38BD     		pop	{r3, r4, r5, pc}
 1141              	.LVL84:
 1142              	.L95:
 596:Drivers/STM32F4xx_HAL_Driver/Src/stm32f4xx_ll_usb.c ****     
 1143              		.loc 1 596 0
 1144 0076 0B78     		ldrb	r3, [r1]	@ zero_extendqisi2
 1145 0078 0446     		mov	r4, r0
ARM GAS  x:\temp2\cc1gRVhO.s 			page 33


 1146 007a 00EB4313 		add	r3, r0, r3, lsl #5
 1147 007e D3F80029 		ldr	r2, [r3, #2304]
 1148 0082 22F40042 		bic	r2, r2, #32768
 1149 0086 C3F80029 		str	r2, [r3, #2304]
 599:Drivers/STM32F4xx_HAL_Driver/Src/stm32f4xx_ll_usb.c ****     
 1150              		.loc 1 599 0
 1151 008a 0B78     		ldrb	r3, [r1]	@ zero_extendqisi2
 1152 008c 00EB4313 		add	r3, r0, r3, lsl #5
 1153 0090 4FF00062 		mov	r2, #134217728
 1154 0094 C3F80029 		str	r2, [r3, #2304]
 602:Drivers/STM32F4xx_HAL_Driver/Src/stm32f4xx_ll_usb.c ****     
 1155              		.loc 1 602 0
 1156 0098 0B78     		ldrb	r3, [r1]	@ zero_extendqisi2
 1157 009a 00EB4313 		add	r3, r0, r3, lsl #5
 1158 009e 4FF08042 		mov	r2, #1073741824
 1159 00a2 C3F80029 		str	r2, [r3, #2304]
 591:Drivers/STM32F4xx_HAL_Driver/Src/stm32f4xx_ll_usb.c ****   
 1160              		.loc 1 591 0
 1161 00a6 0022     		movs	r2, #0
 1162              	.LVL85:
 1163              	.L90:
 606:Drivers/STM32F4xx_HAL_Driver/Src/stm32f4xx_ll_usb.c ****       {
 1164              		.loc 1 606 0
 1165 00a8 0132     		adds	r2, r2, #1
 1166              	.LVL86:
 1167 00aa 104B     		ldr	r3, .L96
 1168 00ac 9A42     		cmp	r2, r3
 1169 00ae 19D8     		bhi	.L92
 613:Drivers/STM32F4xx_HAL_Driver/Src/stm32f4xx_ll_usb.c ****     
 1170              		.loc 1 613 0
 1171 00b0 0B78     		ldrb	r3, [r1]	@ zero_extendqisi2
 1172 00b2 04EB4313 		add	r3, r4, r3, lsl #5
 1173 00b6 03F51063 		add	r3, r3, #2304
 1174 00ba 9B68     		ldr	r3, [r3, #8]
 1175 00bc 13F0804F 		tst	r3, #1073741824
 1176 00c0 F2D1     		bne	.L90
 1177 00c2 0D46     		mov	r5, r1
 1178 00c4 0446     		mov	r4, r0
 617:Drivers/STM32F4xx_HAL_Driver/Src/stm32f4xx_ll_usb.c ****     
 1179              		.loc 1 617 0
 1180 00c6 1021     		movs	r1, #16
 1181              	.LVL87:
 1182 00c8 FFF7FEFF 		bl	USB_FlushTxFifo
 1183              	.LVL88:
 620:Drivers/STM32F4xx_HAL_Driver/Src/stm32f4xx_ll_usb.c ****   
 1184              		.loc 1 620 0
 1185 00cc D4F81C28 		ldr	r2, [r4, #2076]
 1186 00d0 2978     		ldrb	r1, [r5]	@ zero_extendqisi2
 1187 00d2 0123     		movs	r3, #1
 1188 00d4 8B40     		lsls	r3, r3, r1
 1189 00d6 9BB2     		uxth	r3, r3
 1190 00d8 22EA0303 		bic	r3, r2, r3
 1191 00dc C4F81C38 		str	r3, [r4, #2076]
 651:Drivers/STM32F4xx_HAL_Driver/Src/stm32f4xx_ll_usb.c **** 
 1192              		.loc 1 651 0
 1193 00e0 0020     		movs	r0, #0
 1194 00e2 C7E7     		b	.L89
ARM GAS  x:\temp2\cc1gRVhO.s 			page 34


 1195              	.LVL89:
 1196              	.L92:
 608:Drivers/STM32F4xx_HAL_Driver/Src/stm32f4xx_ll_usb.c ****       }
 1197              		.loc 1 608 0
 1198 00e4 0320     		movs	r0, #3
 1199              	.LVL90:
 1200 00e6 C5E7     		b	.L89
 1201              	.LVL91:
 1202              	.L93:
 638:Drivers/STM32F4xx_HAL_Driver/Src/stm32f4xx_ll_usb.c ****       }
 1203              		.loc 1 638 0
 1204 00e8 0320     		movs	r0, #3
 1205              	.LVL92:
 1206 00ea C3E7     		b	.L89
 1207              	.L97:
 1208              		.align	2
 1209              	.L96:
 1210 00ec 400D0300 		.word	200000
 1211              		.cfi_endproc
 1212              	.LFE138:
 1214              		.section	.text.USB_EPStartXfer,"ax",%progbits
 1215              		.align	1
 1216              		.global	USB_EPStartXfer
 1217              		.syntax unified
 1218              		.thumb
 1219              		.thumb_func
 1220              		.fpu fpv4-sp-d16
 1222              	USB_EPStartXfer:
 1223              	.LFB139:
 654:Drivers/STM32F4xx_HAL_Driver/Src/stm32f4xx_ll_usb.c **** 
 655:Drivers/STM32F4xx_HAL_Driver/Src/stm32f4xx_ll_usb.c **** /**
 656:Drivers/STM32F4xx_HAL_Driver/Src/stm32f4xx_ll_usb.c ****   * @brief  USB_EPStartXfer : setup and starts a transfer over an EP
 657:Drivers/STM32F4xx_HAL_Driver/Src/stm32f4xx_ll_usb.c ****   * @param  USBx  Selected device
 658:Drivers/STM32F4xx_HAL_Driver/Src/stm32f4xx_ll_usb.c ****   * @param  ep pointer to endpoint structure
 659:Drivers/STM32F4xx_HAL_Driver/Src/stm32f4xx_ll_usb.c ****   * @param  dma USB dma enabled or disabled 
 660:Drivers/STM32F4xx_HAL_Driver/Src/stm32f4xx_ll_usb.c ****   *          This parameter can be one of these values:
 661:Drivers/STM32F4xx_HAL_Driver/Src/stm32f4xx_ll_usb.c ****   *           0 : DMA feature not used 
 662:Drivers/STM32F4xx_HAL_Driver/Src/stm32f4xx_ll_usb.c ****   *           1 : DMA feature used  
 663:Drivers/STM32F4xx_HAL_Driver/Src/stm32f4xx_ll_usb.c ****   * @retval HAL status
 664:Drivers/STM32F4xx_HAL_Driver/Src/stm32f4xx_ll_usb.c ****   */
 665:Drivers/STM32F4xx_HAL_Driver/Src/stm32f4xx_ll_usb.c **** HAL_StatusTypeDef USB_EPStartXfer(USB_OTG_GlobalTypeDef *USBx , USB_OTG_EPTypeDef *ep, uint8_t dma)
 666:Drivers/STM32F4xx_HAL_Driver/Src/stm32f4xx_ll_usb.c **** {
 1224              		.loc 1 666 0
 1225              		.cfi_startproc
 1226              		@ args = 0, pretend = 0, frame = 0
 1227              		@ frame_needed = 0, uses_anonymous_args = 0
 1228              	.LVL93:
 1229 0000 70B5     		push	{r4, r5, r6, lr}
 1230              	.LCFI19:
 1231              		.cfi_def_cfa_offset 16
 1232              		.cfi_offset 4, -16
 1233              		.cfi_offset 5, -12
 1234              		.cfi_offset 6, -8
 1235              		.cfi_offset 14, -4
 1236 0002 82B0     		sub	sp, sp, #8
 1237              	.LCFI20:
 1238              		.cfi_def_cfa_offset 24
ARM GAS  x:\temp2\cc1gRVhO.s 			page 35


 1239              	.LVL94:
 667:Drivers/STM32F4xx_HAL_Driver/Src/stm32f4xx_ll_usb.c ****   uint16_t pktcnt = 0U;
 668:Drivers/STM32F4xx_HAL_Driver/Src/stm32f4xx_ll_usb.c ****   
 669:Drivers/STM32F4xx_HAL_Driver/Src/stm32f4xx_ll_usb.c ****   /* IN endpoint */
 670:Drivers/STM32F4xx_HAL_Driver/Src/stm32f4xx_ll_usb.c ****   if (ep->is_in == 1U)
 1240              		.loc 1 670 0
 1241 0004 4B78     		ldrb	r3, [r1, #1]	@ zero_extendqisi2
 1242 0006 012B     		cmp	r3, #1
 1243 0008 3ED0     		beq	.L113
 671:Drivers/STM32F4xx_HAL_Driver/Src/stm32f4xx_ll_usb.c ****   {
 672:Drivers/STM32F4xx_HAL_Driver/Src/stm32f4xx_ll_usb.c ****     /* Zero Length Packet? */
 673:Drivers/STM32F4xx_HAL_Driver/Src/stm32f4xx_ll_usb.c ****     if (ep->xfer_len == 0U)
 674:Drivers/STM32F4xx_HAL_Driver/Src/stm32f4xx_ll_usb.c ****     {
 675:Drivers/STM32F4xx_HAL_Driver/Src/stm32f4xx_ll_usb.c ****       USBx_INEP(ep->num)->DIEPTSIZ &= ~(USB_OTG_DIEPTSIZ_PKTCNT); 
 676:Drivers/STM32F4xx_HAL_Driver/Src/stm32f4xx_ll_usb.c ****       USBx_INEP(ep->num)->DIEPTSIZ |= (USB_OTG_DIEPTSIZ_PKTCNT & (1U << 19U)) ;
 677:Drivers/STM32F4xx_HAL_Driver/Src/stm32f4xx_ll_usb.c ****       USBx_INEP(ep->num)->DIEPTSIZ &= ~(USB_OTG_DIEPTSIZ_XFRSIZ); 
 678:Drivers/STM32F4xx_HAL_Driver/Src/stm32f4xx_ll_usb.c ****     }
 679:Drivers/STM32F4xx_HAL_Driver/Src/stm32f4xx_ll_usb.c ****     else
 680:Drivers/STM32F4xx_HAL_Driver/Src/stm32f4xx_ll_usb.c ****     {
 681:Drivers/STM32F4xx_HAL_Driver/Src/stm32f4xx_ll_usb.c ****       /* Program the transfer size and packet count
 682:Drivers/STM32F4xx_HAL_Driver/Src/stm32f4xx_ll_usb.c ****       * as follows: xfersize = N * maxpacket +
 683:Drivers/STM32F4xx_HAL_Driver/Src/stm32f4xx_ll_usb.c ****       * short_packet pktcnt = N + (short_packet
 684:Drivers/STM32F4xx_HAL_Driver/Src/stm32f4xx_ll_usb.c ****       * exist ? 1 : 0)
 685:Drivers/STM32F4xx_HAL_Driver/Src/stm32f4xx_ll_usb.c ****       */
 686:Drivers/STM32F4xx_HAL_Driver/Src/stm32f4xx_ll_usb.c ****       USBx_INEP(ep->num)->DIEPTSIZ &= ~(USB_OTG_DIEPTSIZ_XFRSIZ);
 687:Drivers/STM32F4xx_HAL_Driver/Src/stm32f4xx_ll_usb.c ****       USBx_INEP(ep->num)->DIEPTSIZ &= ~(USB_OTG_DIEPTSIZ_PKTCNT); 
 688:Drivers/STM32F4xx_HAL_Driver/Src/stm32f4xx_ll_usb.c ****       USBx_INEP(ep->num)->DIEPTSIZ |= (USB_OTG_DIEPTSIZ_PKTCNT & (((ep->xfer_len + ep->maxpacket -1
 689:Drivers/STM32F4xx_HAL_Driver/Src/stm32f4xx_ll_usb.c ****       USBx_INEP(ep->num)->DIEPTSIZ |= (USB_OTG_DIEPTSIZ_XFRSIZ & ep->xfer_len); 
 690:Drivers/STM32F4xx_HAL_Driver/Src/stm32f4xx_ll_usb.c ****       
 691:Drivers/STM32F4xx_HAL_Driver/Src/stm32f4xx_ll_usb.c ****       if (ep->type == EP_TYPE_ISOC)
 692:Drivers/STM32F4xx_HAL_Driver/Src/stm32f4xx_ll_usb.c ****       {
 693:Drivers/STM32F4xx_HAL_Driver/Src/stm32f4xx_ll_usb.c ****         USBx_INEP(ep->num)->DIEPTSIZ &= ~(USB_OTG_DIEPTSIZ_MULCNT); 
 694:Drivers/STM32F4xx_HAL_Driver/Src/stm32f4xx_ll_usb.c ****         USBx_INEP(ep->num)->DIEPTSIZ |= (USB_OTG_DIEPTSIZ_MULCNT & (1U << 29U)); 
 695:Drivers/STM32F4xx_HAL_Driver/Src/stm32f4xx_ll_usb.c ****       }       
 696:Drivers/STM32F4xx_HAL_Driver/Src/stm32f4xx_ll_usb.c ****     }
 697:Drivers/STM32F4xx_HAL_Driver/Src/stm32f4xx_ll_usb.c **** 
 698:Drivers/STM32F4xx_HAL_Driver/Src/stm32f4xx_ll_usb.c ****     if (dma == 1U)
 699:Drivers/STM32F4xx_HAL_Driver/Src/stm32f4xx_ll_usb.c ****     {
 700:Drivers/STM32F4xx_HAL_Driver/Src/stm32f4xx_ll_usb.c ****       USBx_INEP(ep->num)->DIEPDMA = (uint32_t)(ep->dma_addr);
 701:Drivers/STM32F4xx_HAL_Driver/Src/stm32f4xx_ll_usb.c ****     }
 702:Drivers/STM32F4xx_HAL_Driver/Src/stm32f4xx_ll_usb.c ****     else
 703:Drivers/STM32F4xx_HAL_Driver/Src/stm32f4xx_ll_usb.c ****     {
 704:Drivers/STM32F4xx_HAL_Driver/Src/stm32f4xx_ll_usb.c ****       if (ep->type != EP_TYPE_ISOC)
 705:Drivers/STM32F4xx_HAL_Driver/Src/stm32f4xx_ll_usb.c ****       {
 706:Drivers/STM32F4xx_HAL_Driver/Src/stm32f4xx_ll_usb.c ****         /* Enable the Tx FIFO Empty Interrupt for this EP */
 707:Drivers/STM32F4xx_HAL_Driver/Src/stm32f4xx_ll_usb.c ****         if (ep->xfer_len > 0U)
 708:Drivers/STM32F4xx_HAL_Driver/Src/stm32f4xx_ll_usb.c ****         {
 709:Drivers/STM32F4xx_HAL_Driver/Src/stm32f4xx_ll_usb.c ****           USBx_DEVICE->DIEPEMPMSK |= 1U << ep->num;
 710:Drivers/STM32F4xx_HAL_Driver/Src/stm32f4xx_ll_usb.c ****         }
 711:Drivers/STM32F4xx_HAL_Driver/Src/stm32f4xx_ll_usb.c ****       }
 712:Drivers/STM32F4xx_HAL_Driver/Src/stm32f4xx_ll_usb.c ****     }
 713:Drivers/STM32F4xx_HAL_Driver/Src/stm32f4xx_ll_usb.c **** 
 714:Drivers/STM32F4xx_HAL_Driver/Src/stm32f4xx_ll_usb.c ****     if (ep->type == EP_TYPE_ISOC)
 715:Drivers/STM32F4xx_HAL_Driver/Src/stm32f4xx_ll_usb.c ****     {
 716:Drivers/STM32F4xx_HAL_Driver/Src/stm32f4xx_ll_usb.c ****       if ((USBx_DEVICE->DSTS & ( 1U << 8U )) == 0U)
 717:Drivers/STM32F4xx_HAL_Driver/Src/stm32f4xx_ll_usb.c ****       {
 718:Drivers/STM32F4xx_HAL_Driver/Src/stm32f4xx_ll_usb.c ****         USBx_INEP(ep->num)->DIEPCTL |= USB_OTG_DIEPCTL_SODDFRM;
ARM GAS  x:\temp2\cc1gRVhO.s 			page 36


 719:Drivers/STM32F4xx_HAL_Driver/Src/stm32f4xx_ll_usb.c ****       }
 720:Drivers/STM32F4xx_HAL_Driver/Src/stm32f4xx_ll_usb.c ****       else
 721:Drivers/STM32F4xx_HAL_Driver/Src/stm32f4xx_ll_usb.c ****       {
 722:Drivers/STM32F4xx_HAL_Driver/Src/stm32f4xx_ll_usb.c ****         USBx_INEP(ep->num)->DIEPCTL |= USB_OTG_DIEPCTL_SD0PID_SEVNFRM;
 723:Drivers/STM32F4xx_HAL_Driver/Src/stm32f4xx_ll_usb.c ****       }
 724:Drivers/STM32F4xx_HAL_Driver/Src/stm32f4xx_ll_usb.c ****     } 
 725:Drivers/STM32F4xx_HAL_Driver/Src/stm32f4xx_ll_usb.c ****     
 726:Drivers/STM32F4xx_HAL_Driver/Src/stm32f4xx_ll_usb.c ****     /* EP enable, IN data in FIFO */
 727:Drivers/STM32F4xx_HAL_Driver/Src/stm32f4xx_ll_usb.c ****     USBx_INEP(ep->num)->DIEPCTL |= (USB_OTG_DIEPCTL_CNAK | USB_OTG_DIEPCTL_EPENA);
 728:Drivers/STM32F4xx_HAL_Driver/Src/stm32f4xx_ll_usb.c ****     
 729:Drivers/STM32F4xx_HAL_Driver/Src/stm32f4xx_ll_usb.c ****     if (ep->type == EP_TYPE_ISOC)
 730:Drivers/STM32F4xx_HAL_Driver/Src/stm32f4xx_ll_usb.c ****     {
 731:Drivers/STM32F4xx_HAL_Driver/Src/stm32f4xx_ll_usb.c ****       USB_WritePacket(USBx, ep->xfer_buff, ep->num, ep->xfer_len, dma);   
 732:Drivers/STM32F4xx_HAL_Driver/Src/stm32f4xx_ll_usb.c ****     }    
 733:Drivers/STM32F4xx_HAL_Driver/Src/stm32f4xx_ll_usb.c ****   }
 734:Drivers/STM32F4xx_HAL_Driver/Src/stm32f4xx_ll_usb.c ****   else /* OUT endpoint */
 735:Drivers/STM32F4xx_HAL_Driver/Src/stm32f4xx_ll_usb.c ****   {
 736:Drivers/STM32F4xx_HAL_Driver/Src/stm32f4xx_ll_usb.c ****     /* Program the transfer size and packet count as follows:
 737:Drivers/STM32F4xx_HAL_Driver/Src/stm32f4xx_ll_usb.c ****     * pktcnt = N
 738:Drivers/STM32F4xx_HAL_Driver/Src/stm32f4xx_ll_usb.c ****     * xfersize = N * maxpacket
 739:Drivers/STM32F4xx_HAL_Driver/Src/stm32f4xx_ll_usb.c ****     */  
 740:Drivers/STM32F4xx_HAL_Driver/Src/stm32f4xx_ll_usb.c ****     USBx_OUTEP(ep->num)->DOEPTSIZ &= ~(USB_OTG_DOEPTSIZ_XFRSIZ); 
 1244              		.loc 1 740 0
 1245 000a 0B78     		ldrb	r3, [r1]	@ zero_extendqisi2
 1246 000c 00EB4313 		add	r3, r0, r3, lsl #5
 1247 0010 D3F8104B 		ldr	r4, [r3, #2832]
 1248 0014 E40C     		lsrs	r4, r4, #19
 1249 0016 E404     		lsls	r4, r4, #19
 1250 0018 C3F8104B 		str	r4, [r3, #2832]
 741:Drivers/STM32F4xx_HAL_Driver/Src/stm32f4xx_ll_usb.c ****     USBx_OUTEP(ep->num)->DOEPTSIZ &= ~(USB_OTG_DOEPTSIZ_PKTCNT); 
 1251              		.loc 1 741 0
 1252 001c 0B78     		ldrb	r3, [r1]	@ zero_extendqisi2
 1253 001e 00EB4313 		add	r3, r0, r3, lsl #5
 1254 0022 D3F8104B 		ldr	r4, [r3, #2832]
 1255 0026 24F0FF54 		bic	r4, r4, #534773760
 1256 002a 24F4C014 		bic	r4, r4, #1572864
 1257 002e C3F8104B 		str	r4, [r3, #2832]
 742:Drivers/STM32F4xx_HAL_Driver/Src/stm32f4xx_ll_usb.c **** 
 743:Drivers/STM32F4xx_HAL_Driver/Src/stm32f4xx_ll_usb.c ****     if (ep->xfer_len == 0U)
 1258              		.loc 1 743 0
 1259 0032 4B69     		ldr	r3, [r1, #20]
 1260 0034 002B     		cmp	r3, #0
 1261 0036 40F0D480 		bne	.L107
 744:Drivers/STM32F4xx_HAL_Driver/Src/stm32f4xx_ll_usb.c ****     {
 745:Drivers/STM32F4xx_HAL_Driver/Src/stm32f4xx_ll_usb.c ****       USBx_OUTEP(ep->num)->DOEPTSIZ |= (USB_OTG_DOEPTSIZ_XFRSIZ & ep->maxpacket);
 1262              		.loc 1 745 0
 1263 003a 0B78     		ldrb	r3, [r1]	@ zero_extendqisi2
 1264 003c 00EB4313 		add	r3, r0, r3, lsl #5
 1265 0040 D3F8104B 		ldr	r4, [r3, #2832]
 1266 0044 8D68     		ldr	r5, [r1, #8]
 1267 0046 C5F31205 		ubfx	r5, r5, #0, #19
 1268 004a 2C43     		orrs	r4, r4, r5
 1269 004c C3F8104B 		str	r4, [r3, #2832]
 746:Drivers/STM32F4xx_HAL_Driver/Src/stm32f4xx_ll_usb.c ****       USBx_OUTEP(ep->num)->DOEPTSIZ |= (USB_OTG_DOEPTSIZ_PKTCNT & (1U << 19U));
 1270              		.loc 1 746 0
 1271 0050 0B78     		ldrb	r3, [r1]	@ zero_extendqisi2
 1272 0052 00EB4313 		add	r3, r0, r3, lsl #5
ARM GAS  x:\temp2\cc1gRVhO.s 			page 37


 1273 0056 D3F8104B 		ldr	r4, [r3, #2832]
 1274 005a 44F40024 		orr	r4, r4, #524288
 1275 005e C3F8104B 		str	r4, [r3, #2832]
 1276              	.LVL95:
 1277              	.L108:
 747:Drivers/STM32F4xx_HAL_Driver/Src/stm32f4xx_ll_usb.c ****     }
 748:Drivers/STM32F4xx_HAL_Driver/Src/stm32f4xx_ll_usb.c ****     else
 749:Drivers/STM32F4xx_HAL_Driver/Src/stm32f4xx_ll_usb.c ****     {
 750:Drivers/STM32F4xx_HAL_Driver/Src/stm32f4xx_ll_usb.c ****       pktcnt = (ep->xfer_len + ep->maxpacket -1U)/ ep->maxpacket; 
 751:Drivers/STM32F4xx_HAL_Driver/Src/stm32f4xx_ll_usb.c ****       USBx_OUTEP(ep->num)->DOEPTSIZ |= (USB_OTG_DOEPTSIZ_PKTCNT & (pktcnt << 19U));
 752:Drivers/STM32F4xx_HAL_Driver/Src/stm32f4xx_ll_usb.c ****       USBx_OUTEP(ep->num)->DOEPTSIZ |= (USB_OTG_DOEPTSIZ_XFRSIZ & (ep->maxpacket * pktcnt));
 753:Drivers/STM32F4xx_HAL_Driver/Src/stm32f4xx_ll_usb.c ****     }
 754:Drivers/STM32F4xx_HAL_Driver/Src/stm32f4xx_ll_usb.c **** 
 755:Drivers/STM32F4xx_HAL_Driver/Src/stm32f4xx_ll_usb.c ****     if (dma == 1U)
 1278              		.loc 1 755 0
 1279 0062 012A     		cmp	r2, #1
 1280 0064 00F0DC80 		beq	.L114
 1281              	.LVL96:
 1282              	.L109:
 756:Drivers/STM32F4xx_HAL_Driver/Src/stm32f4xx_ll_usb.c ****     {
 757:Drivers/STM32F4xx_HAL_Driver/Src/stm32f4xx_ll_usb.c ****       USBx_OUTEP(ep->num)->DOEPDMA = (uint32_t)ep->xfer_buff;
 758:Drivers/STM32F4xx_HAL_Driver/Src/stm32f4xx_ll_usb.c ****     }
 759:Drivers/STM32F4xx_HAL_Driver/Src/stm32f4xx_ll_usb.c ****     
 760:Drivers/STM32F4xx_HAL_Driver/Src/stm32f4xx_ll_usb.c ****     if (ep->type == EP_TYPE_ISOC)
 1283              		.loc 1 760 0
 1284 0068 CB78     		ldrb	r3, [r1, #3]	@ zero_extendqisi2
 1285 006a 012B     		cmp	r3, #1
 1286 006c 00F0DF80 		beq	.L115
 1287              	.L110:
 761:Drivers/STM32F4xx_HAL_Driver/Src/stm32f4xx_ll_usb.c ****     {
 762:Drivers/STM32F4xx_HAL_Driver/Src/stm32f4xx_ll_usb.c ****       if ((USBx_DEVICE->DSTS & ( 1U << 8U )) == 0U)
 763:Drivers/STM32F4xx_HAL_Driver/Src/stm32f4xx_ll_usb.c ****       {
 764:Drivers/STM32F4xx_HAL_Driver/Src/stm32f4xx_ll_usb.c ****         USBx_OUTEP(ep->num)->DOEPCTL |= USB_OTG_DOEPCTL_SODDFRM;
 765:Drivers/STM32F4xx_HAL_Driver/Src/stm32f4xx_ll_usb.c ****       }
 766:Drivers/STM32F4xx_HAL_Driver/Src/stm32f4xx_ll_usb.c ****       else
 767:Drivers/STM32F4xx_HAL_Driver/Src/stm32f4xx_ll_usb.c ****       {
 768:Drivers/STM32F4xx_HAL_Driver/Src/stm32f4xx_ll_usb.c ****         USBx_OUTEP(ep->num)->DOEPCTL |= USB_OTG_DOEPCTL_SD0PID_SEVNFRM;
 769:Drivers/STM32F4xx_HAL_Driver/Src/stm32f4xx_ll_usb.c ****       }
 770:Drivers/STM32F4xx_HAL_Driver/Src/stm32f4xx_ll_usb.c ****     }
 771:Drivers/STM32F4xx_HAL_Driver/Src/stm32f4xx_ll_usb.c ****     /* EP enable */
 772:Drivers/STM32F4xx_HAL_Driver/Src/stm32f4xx_ll_usb.c ****     USBx_OUTEP(ep->num)->DOEPCTL |= (USB_OTG_DOEPCTL_CNAK | USB_OTG_DOEPCTL_EPENA);
 1288              		.loc 1 772 0
 1289 0070 0B78     		ldrb	r3, [r1]	@ zero_extendqisi2
 1290 0072 00EB4310 		add	r0, r0, r3, lsl #5
 1291              	.LVL97:
 1292 0076 D0F8003B 		ldr	r3, [r0, #2816]
 1293 007a 43F00443 		orr	r3, r3, #-2080374784
 1294 007e C0F8003B 		str	r3, [r0, #2816]
 1295              	.LVL98:
 1296              	.L106:
 773:Drivers/STM32F4xx_HAL_Driver/Src/stm32f4xx_ll_usb.c ****   }
 774:Drivers/STM32F4xx_HAL_Driver/Src/stm32f4xx_ll_usb.c ****   return HAL_OK;
 775:Drivers/STM32F4xx_HAL_Driver/Src/stm32f4xx_ll_usb.c **** }
 1297              		.loc 1 775 0
 1298 0082 0020     		movs	r0, #0
 1299 0084 02B0     		add	sp, sp, #8
 1300              	.LCFI21:
ARM GAS  x:\temp2\cc1gRVhO.s 			page 38


 1301              		.cfi_remember_state
 1302              		.cfi_def_cfa_offset 16
 1303              		@ sp needed
 1304 0086 70BD     		pop	{r4, r5, r6, pc}
 1305              	.LVL99:
 1306              	.L113:
 1307              	.LCFI22:
 1308              		.cfi_restore_state
 673:Drivers/STM32F4xx_HAL_Driver/Src/stm32f4xx_ll_usb.c ****     {
 1309              		.loc 1 673 0
 1310 0088 4B69     		ldr	r3, [r1, #20]
 1311 008a 6BBB     		cbnz	r3, .L100
 675:Drivers/STM32F4xx_HAL_Driver/Src/stm32f4xx_ll_usb.c ****       USBx_INEP(ep->num)->DIEPTSIZ |= (USB_OTG_DIEPTSIZ_PKTCNT & (1U << 19U)) ;
 1312              		.loc 1 675 0
 1313 008c 0B78     		ldrb	r3, [r1]	@ zero_extendqisi2
 1314 008e 00EB4313 		add	r3, r0, r3, lsl #5
 1315 0092 D3F81049 		ldr	r4, [r3, #2320]
 1316 0096 24F0FF54 		bic	r4, r4, #534773760
 1317 009a 24F4C014 		bic	r4, r4, #1572864
 1318 009e C3F81049 		str	r4, [r3, #2320]
 676:Drivers/STM32F4xx_HAL_Driver/Src/stm32f4xx_ll_usb.c ****       USBx_INEP(ep->num)->DIEPTSIZ &= ~(USB_OTG_DIEPTSIZ_XFRSIZ); 
 1319              		.loc 1 676 0
 1320 00a2 0B78     		ldrb	r3, [r1]	@ zero_extendqisi2
 1321 00a4 00EB4313 		add	r3, r0, r3, lsl #5
 1322 00a8 D3F81049 		ldr	r4, [r3, #2320]
 1323 00ac 44F40024 		orr	r4, r4, #524288
 1324 00b0 C3F81049 		str	r4, [r3, #2320]
 677:Drivers/STM32F4xx_HAL_Driver/Src/stm32f4xx_ll_usb.c ****     }
 1325              		.loc 1 677 0
 1326 00b4 0B78     		ldrb	r3, [r1]	@ zero_extendqisi2
 1327 00b6 00EB4313 		add	r3, r0, r3, lsl #5
 1328 00ba D3F81049 		ldr	r4, [r3, #2320]
 1329 00be E40C     		lsrs	r4, r4, #19
 1330 00c0 E404     		lsls	r4, r4, #19
 1331 00c2 C3F81049 		str	r4, [r3, #2320]
 1332              	.L101:
 698:Drivers/STM32F4xx_HAL_Driver/Src/stm32f4xx_ll_usb.c ****     {
 1333              		.loc 1 698 0
 1334 00c6 012A     		cmp	r2, #1
 1335 00c8 54D0     		beq	.L116
 704:Drivers/STM32F4xx_HAL_Driver/Src/stm32f4xx_ll_usb.c ****       {
 1336              		.loc 1 704 0
 1337 00ca CB78     		ldrb	r3, [r1, #3]	@ zero_extendqisi2
 1338 00cc 012B     		cmp	r3, #1
 1339 00ce 57D0     		beq	.L103
 707:Drivers/STM32F4xx_HAL_Driver/Src/stm32f4xx_ll_usb.c ****         {
 1340              		.loc 1 707 0
 1341 00d0 4B69     		ldr	r3, [r1, #20]
 1342 00d2 002B     		cmp	r3, #0
 1343 00d4 54D0     		beq	.L103
 709:Drivers/STM32F4xx_HAL_Driver/Src/stm32f4xx_ll_usb.c ****         }
 1344              		.loc 1 709 0
 1345 00d6 D0F83438 		ldr	r3, [r0, #2100]
 1346 00da 0E78     		ldrb	r6, [r1]	@ zero_extendqisi2
 1347 00dc 0124     		movs	r4, #1
 1348 00de B440     		lsls	r4, r4, r6
 1349 00e0 2343     		orrs	r3, r3, r4
ARM GAS  x:\temp2\cc1gRVhO.s 			page 39


 1350 00e2 C0F83438 		str	r3, [r0, #2100]
 1351 00e6 4BE0     		b	.L103
 1352              	.L100:
 686:Drivers/STM32F4xx_HAL_Driver/Src/stm32f4xx_ll_usb.c ****       USBx_INEP(ep->num)->DIEPTSIZ &= ~(USB_OTG_DIEPTSIZ_PKTCNT); 
 1353              		.loc 1 686 0
 1354 00e8 0B78     		ldrb	r3, [r1]	@ zero_extendqisi2
 1355 00ea 00EB4313 		add	r3, r0, r3, lsl #5
 1356 00ee D3F81049 		ldr	r4, [r3, #2320]
 1357 00f2 E40C     		lsrs	r4, r4, #19
 1358 00f4 E404     		lsls	r4, r4, #19
 1359 00f6 C3F81049 		str	r4, [r3, #2320]
 687:Drivers/STM32F4xx_HAL_Driver/Src/stm32f4xx_ll_usb.c ****       USBx_INEP(ep->num)->DIEPTSIZ |= (USB_OTG_DIEPTSIZ_PKTCNT & (((ep->xfer_len + ep->maxpacket -1
 1360              		.loc 1 687 0
 1361 00fa 0B78     		ldrb	r3, [r1]	@ zero_extendqisi2
 1362 00fc 00EB4313 		add	r3, r0, r3, lsl #5
 1363 0100 D3F81049 		ldr	r4, [r3, #2320]
 1364 0104 24F0FF54 		bic	r4, r4, #534773760
 1365 0108 24F4C014 		bic	r4, r4, #1572864
 1366 010c C3F81049 		str	r4, [r3, #2320]
 688:Drivers/STM32F4xx_HAL_Driver/Src/stm32f4xx_ll_usb.c ****       USBx_INEP(ep->num)->DIEPTSIZ |= (USB_OTG_DIEPTSIZ_XFRSIZ & ep->xfer_len); 
 1367              		.loc 1 688 0
 1368 0110 0C78     		ldrb	r4, [r1]	@ zero_extendqisi2
 1369 0112 00EB4414 		add	r4, r0, r4, lsl #5
 1370 0116 D4F81059 		ldr	r5, [r4, #2320]
 1371 011a 4B69     		ldr	r3, [r1, #20]
 1372 011c 8E68     		ldr	r6, [r1, #8]
 1373 011e 3344     		add	r3, r3, r6
 1374 0120 013B     		subs	r3, r3, #1
 1375 0122 B3FBF6F3 		udiv	r3, r3, r6
 1376 0126 4E4E     		ldr	r6, .L118
 1377 0128 06EAC343 		and	r3, r6, r3, lsl #19
 1378 012c 2B43     		orrs	r3, r3, r5
 1379 012e C4F81039 		str	r3, [r4, #2320]
 689:Drivers/STM32F4xx_HAL_Driver/Src/stm32f4xx_ll_usb.c ****       
 1380              		.loc 1 689 0
 1381 0132 0B78     		ldrb	r3, [r1]	@ zero_extendqisi2
 1382 0134 00EB4313 		add	r3, r0, r3, lsl #5
 1383 0138 D3F81049 		ldr	r4, [r3, #2320]
 1384 013c 4D69     		ldr	r5, [r1, #20]
 1385 013e C5F31205 		ubfx	r5, r5, #0, #19
 1386 0142 2C43     		orrs	r4, r4, r5
 1387 0144 C3F81049 		str	r4, [r3, #2320]
 691:Drivers/STM32F4xx_HAL_Driver/Src/stm32f4xx_ll_usb.c ****       {
 1388              		.loc 1 691 0
 1389 0148 CB78     		ldrb	r3, [r1, #3]	@ zero_extendqisi2
 1390 014a 012B     		cmp	r3, #1
 1391 014c BBD1     		bne	.L101
 693:Drivers/STM32F4xx_HAL_Driver/Src/stm32f4xx_ll_usb.c ****         USBx_INEP(ep->num)->DIEPTSIZ |= (USB_OTG_DIEPTSIZ_MULCNT & (1U << 29U)); 
 1392              		.loc 1 693 0
 1393 014e 0B78     		ldrb	r3, [r1]	@ zero_extendqisi2
 1394 0150 00EB4313 		add	r3, r0, r3, lsl #5
 1395 0154 D3F81049 		ldr	r4, [r3, #2320]
 1396 0158 24F0C044 		bic	r4, r4, #1610612736
 1397 015c C3F81049 		str	r4, [r3, #2320]
 694:Drivers/STM32F4xx_HAL_Driver/Src/stm32f4xx_ll_usb.c ****       }       
 1398              		.loc 1 694 0
 1399 0160 0B78     		ldrb	r3, [r1]	@ zero_extendqisi2
ARM GAS  x:\temp2\cc1gRVhO.s 			page 40


 1400 0162 00EB4313 		add	r3, r0, r3, lsl #5
 1401 0166 D3F81049 		ldr	r4, [r3, #2320]
 1402 016a 44F00054 		orr	r4, r4, #536870912
 1403 016e C3F81049 		str	r4, [r3, #2320]
 1404 0172 A8E7     		b	.L101
 1405              	.L116:
 700:Drivers/STM32F4xx_HAL_Driver/Src/stm32f4xx_ll_usb.c ****     }
 1406              		.loc 1 700 0
 1407 0174 0B78     		ldrb	r3, [r1]	@ zero_extendqisi2
 1408 0176 00EB4313 		add	r3, r0, r3, lsl #5
 1409 017a 0C69     		ldr	r4, [r1, #16]
 1410 017c C3F81449 		str	r4, [r3, #2324]
 1411              	.L103:
 714:Drivers/STM32F4xx_HAL_Driver/Src/stm32f4xx_ll_usb.c ****     {
 1412              		.loc 1 714 0
 1413 0180 CB78     		ldrb	r3, [r1, #3]	@ zero_extendqisi2
 1414 0182 012B     		cmp	r3, #1
 1415 0184 14D0     		beq	.L117
 1416              	.L104:
 727:Drivers/STM32F4xx_HAL_Driver/Src/stm32f4xx_ll_usb.c ****     
 1417              		.loc 1 727 0
 1418 0186 0B78     		ldrb	r3, [r1]	@ zero_extendqisi2
 1419 0188 00EB4313 		add	r3, r0, r3, lsl #5
 1420 018c D3F80049 		ldr	r4, [r3, #2304]
 1421 0190 44F00444 		orr	r4, r4, #-2080374784
 1422 0194 C3F80049 		str	r4, [r3, #2304]
 729:Drivers/STM32F4xx_HAL_Driver/Src/stm32f4xx_ll_usb.c ****     {
 1423              		.loc 1 729 0
 1424 0198 CB78     		ldrb	r3, [r1, #3]	@ zero_extendqisi2
 1425 019a 012B     		cmp	r3, #1
 1426 019c 7FF471AF 		bne	.L106
 1427 01a0 1446     		mov	r4, r2
 731:Drivers/STM32F4xx_HAL_Driver/Src/stm32f4xx_ll_usb.c ****     }    
 1428              		.loc 1 731 0
 1429 01a2 8B8A     		ldrh	r3, [r1, #20]
 1430 01a4 0A78     		ldrb	r2, [r1]	@ zero_extendqisi2
 1431              	.LVL100:
 1432 01a6 C968     		ldr	r1, [r1, #12]
 1433              	.LVL101:
 1434 01a8 0094     		str	r4, [sp]
 1435 01aa FFF7FEFF 		bl	USB_WritePacket
 1436              	.LVL102:
 1437 01ae 68E7     		b	.L106
 1438              	.LVL103:
 1439              	.L117:
 716:Drivers/STM32F4xx_HAL_Driver/Src/stm32f4xx_ll_usb.c ****       {
 1440              		.loc 1 716 0
 1441 01b0 D0F80838 		ldr	r3, [r0, #2056]
 1442 01b4 13F4807F 		tst	r3, #256
 1443 01b8 09D1     		bne	.L105
 718:Drivers/STM32F4xx_HAL_Driver/Src/stm32f4xx_ll_usb.c ****       }
 1444              		.loc 1 718 0
 1445 01ba 0B78     		ldrb	r3, [r1]	@ zero_extendqisi2
 1446 01bc 00EB4313 		add	r3, r0, r3, lsl #5
 1447 01c0 D3F80049 		ldr	r4, [r3, #2304]
 1448 01c4 44F00054 		orr	r4, r4, #536870912
 1449 01c8 C3F80049 		str	r4, [r3, #2304]
ARM GAS  x:\temp2\cc1gRVhO.s 			page 41


 1450 01cc DBE7     		b	.L104
 1451              	.L105:
 722:Drivers/STM32F4xx_HAL_Driver/Src/stm32f4xx_ll_usb.c ****       }
 1452              		.loc 1 722 0
 1453 01ce 0B78     		ldrb	r3, [r1]	@ zero_extendqisi2
 1454 01d0 00EB4313 		add	r3, r0, r3, lsl #5
 1455 01d4 D3F80049 		ldr	r4, [r3, #2304]
 1456 01d8 44F08054 		orr	r4, r4, #268435456
 1457 01dc C3F80049 		str	r4, [r3, #2304]
 1458 01e0 D1E7     		b	.L104
 1459              	.L107:
 750:Drivers/STM32F4xx_HAL_Driver/Src/stm32f4xx_ll_usb.c ****       USBx_OUTEP(ep->num)->DOEPTSIZ |= (USB_OTG_DOEPTSIZ_PKTCNT & (pktcnt << 19U));
 1460              		.loc 1 750 0
 1461 01e2 8C68     		ldr	r4, [r1, #8]
 1462 01e4 2344     		add	r3, r3, r4
 1463 01e6 013B     		subs	r3, r3, #1
 1464 01e8 B3FBF4F3 		udiv	r3, r3, r4
 1465              	.LVL104:
 751:Drivers/STM32F4xx_HAL_Driver/Src/stm32f4xx_ll_usb.c ****       USBx_OUTEP(ep->num)->DOEPTSIZ |= (USB_OTG_DOEPTSIZ_XFRSIZ & (ep->maxpacket * pktcnt));
 1466              		.loc 1 751 0
 1467 01ec 0C78     		ldrb	r4, [r1]	@ zero_extendqisi2
 1468 01ee 00EB4414 		add	r4, r0, r4, lsl #5
 1469 01f2 D4F8105B 		ldr	r5, [r4, #2832]
 1470 01f6 1A4E     		ldr	r6, .L118
 1471 01f8 06EAC346 		and	r6, r6, r3, lsl #19
 1472 01fc 3543     		orrs	r5, r5, r6
 1473 01fe C4F8105B 		str	r5, [r4, #2832]
 752:Drivers/STM32F4xx_HAL_Driver/Src/stm32f4xx_ll_usb.c ****     }
 1474              		.loc 1 752 0
 1475 0202 0C78     		ldrb	r4, [r1]	@ zero_extendqisi2
 1476 0204 00EB4414 		add	r4, r0, r4, lsl #5
 1477 0208 D4F8106B 		ldr	r6, [r4, #2832]
 1478 020c 8D68     		ldr	r5, [r1, #8]
 1479 020e 9BB2     		uxth	r3, r3
 1480 0210 05FB03F5 		mul	r5, r5, r3
 1481 0214 C5F31205 		ubfx	r5, r5, #0, #19
 1482 0218 3543     		orrs	r5, r5, r6
 1483 021a C4F8105B 		str	r5, [r4, #2832]
 1484 021e 20E7     		b	.L108
 1485              	.LVL105:
 1486              	.L114:
 757:Drivers/STM32F4xx_HAL_Driver/Src/stm32f4xx_ll_usb.c ****     }
 1487              		.loc 1 757 0
 1488 0220 CA68     		ldr	r2, [r1, #12]
 1489              	.LVL106:
 1490 0222 0B78     		ldrb	r3, [r1]	@ zero_extendqisi2
 1491 0224 00EB4313 		add	r3, r0, r3, lsl #5
 1492 0228 C3F8142B 		str	r2, [r3, #2836]
 1493 022c 1CE7     		b	.L109
 1494              	.L115:
 762:Drivers/STM32F4xx_HAL_Driver/Src/stm32f4xx_ll_usb.c ****       {
 1495              		.loc 1 762 0
 1496 022e D0F80838 		ldr	r3, [r0, #2056]
 1497 0232 13F4807F 		tst	r3, #256
 1498 0236 09D1     		bne	.L111
 764:Drivers/STM32F4xx_HAL_Driver/Src/stm32f4xx_ll_usb.c ****       }
 1499              		.loc 1 764 0
ARM GAS  x:\temp2\cc1gRVhO.s 			page 42


 1500 0238 0B78     		ldrb	r3, [r1]	@ zero_extendqisi2
 1501 023a 00EB4313 		add	r3, r0, r3, lsl #5
 1502 023e D3F8002B 		ldr	r2, [r3, #2816]
 1503 0242 42F00052 		orr	r2, r2, #536870912
 1504 0246 C3F8002B 		str	r2, [r3, #2816]
 1505 024a 11E7     		b	.L110
 1506              	.L111:
 768:Drivers/STM32F4xx_HAL_Driver/Src/stm32f4xx_ll_usb.c ****       }
 1507              		.loc 1 768 0
 1508 024c 0B78     		ldrb	r3, [r1]	@ zero_extendqisi2
 1509 024e 00EB4313 		add	r3, r0, r3, lsl #5
 1510 0252 D3F8002B 		ldr	r2, [r3, #2816]
 1511 0256 42F08052 		orr	r2, r2, #268435456
 1512 025a C3F8002B 		str	r2, [r3, #2816]
 1513 025e 07E7     		b	.L110
 1514              	.L119:
 1515              		.align	2
 1516              	.L118:
 1517 0260 0000F81F 		.word	536346624
 1518              		.cfi_endproc
 1519              	.LFE139:
 1521              		.section	.text.USB_EP0StartXfer,"ax",%progbits
 1522              		.align	1
 1523              		.global	USB_EP0StartXfer
 1524              		.syntax unified
 1525              		.thumb
 1526              		.thumb_func
 1527              		.fpu fpv4-sp-d16
 1529              	USB_EP0StartXfer:
 1530              	.LFB140:
 776:Drivers/STM32F4xx_HAL_Driver/Src/stm32f4xx_ll_usb.c **** 
 777:Drivers/STM32F4xx_HAL_Driver/Src/stm32f4xx_ll_usb.c **** /**
 778:Drivers/STM32F4xx_HAL_Driver/Src/stm32f4xx_ll_usb.c ****   * @brief  USB_EP0StartXfer : setup and starts a transfer over the EP  0
 779:Drivers/STM32F4xx_HAL_Driver/Src/stm32f4xx_ll_usb.c ****   * @param  USBx  Selected device
 780:Drivers/STM32F4xx_HAL_Driver/Src/stm32f4xx_ll_usb.c ****   * @param  ep pointer to endpoint structure
 781:Drivers/STM32F4xx_HAL_Driver/Src/stm32f4xx_ll_usb.c ****   * @param  dma USB dma enabled or disabled 
 782:Drivers/STM32F4xx_HAL_Driver/Src/stm32f4xx_ll_usb.c ****   *          This parameter can be one of these values:
 783:Drivers/STM32F4xx_HAL_Driver/Src/stm32f4xx_ll_usb.c ****   *           0 : DMA feature not used 
 784:Drivers/STM32F4xx_HAL_Driver/Src/stm32f4xx_ll_usb.c ****   *           1 : DMA feature used  
 785:Drivers/STM32F4xx_HAL_Driver/Src/stm32f4xx_ll_usb.c ****   * @retval HAL status
 786:Drivers/STM32F4xx_HAL_Driver/Src/stm32f4xx_ll_usb.c ****   */
 787:Drivers/STM32F4xx_HAL_Driver/Src/stm32f4xx_ll_usb.c **** HAL_StatusTypeDef USB_EP0StartXfer(USB_OTG_GlobalTypeDef *USBx , USB_OTG_EPTypeDef *ep, uint8_t dma
 788:Drivers/STM32F4xx_HAL_Driver/Src/stm32f4xx_ll_usb.c **** {
 1531              		.loc 1 788 0
 1532              		.cfi_startproc
 1533              		@ args = 0, pretend = 0, frame = 0
 1534              		@ frame_needed = 0, uses_anonymous_args = 0
 1535              		@ link register save eliminated.
 1536              	.LVL107:
 1537 0000 30B4     		push	{r4, r5}
 1538              	.LCFI23:
 1539              		.cfi_def_cfa_offset 8
 1540              		.cfi_offset 4, -8
 1541              		.cfi_offset 5, -4
 789:Drivers/STM32F4xx_HAL_Driver/Src/stm32f4xx_ll_usb.c ****   /* IN endpoint */
 790:Drivers/STM32F4xx_HAL_Driver/Src/stm32f4xx_ll_usb.c ****   if (ep->is_in == 1U)
 1542              		.loc 1 790 0
ARM GAS  x:\temp2\cc1gRVhO.s 			page 43


 1543 0002 4B78     		ldrb	r3, [r1, #1]	@ zero_extendqisi2
 1544 0004 012B     		cmp	r3, #1
 1545 0006 39D0     		beq	.L130
 791:Drivers/STM32F4xx_HAL_Driver/Src/stm32f4xx_ll_usb.c ****   {
 792:Drivers/STM32F4xx_HAL_Driver/Src/stm32f4xx_ll_usb.c ****     /* Zero Length Packet? */
 793:Drivers/STM32F4xx_HAL_Driver/Src/stm32f4xx_ll_usb.c ****     if (ep->xfer_len == 0U)
 794:Drivers/STM32F4xx_HAL_Driver/Src/stm32f4xx_ll_usb.c ****     {
 795:Drivers/STM32F4xx_HAL_Driver/Src/stm32f4xx_ll_usb.c ****       USBx_INEP(ep->num)->DIEPTSIZ &= ~(USB_OTG_DIEPTSIZ_PKTCNT); 
 796:Drivers/STM32F4xx_HAL_Driver/Src/stm32f4xx_ll_usb.c ****       USBx_INEP(ep->num)->DIEPTSIZ |= (USB_OTG_DIEPTSIZ_PKTCNT & (1U << 19U)) ;
 797:Drivers/STM32F4xx_HAL_Driver/Src/stm32f4xx_ll_usb.c ****       USBx_INEP(ep->num)->DIEPTSIZ &= ~(USB_OTG_DIEPTSIZ_XFRSIZ); 
 798:Drivers/STM32F4xx_HAL_Driver/Src/stm32f4xx_ll_usb.c ****     }
 799:Drivers/STM32F4xx_HAL_Driver/Src/stm32f4xx_ll_usb.c ****     else
 800:Drivers/STM32F4xx_HAL_Driver/Src/stm32f4xx_ll_usb.c ****     {
 801:Drivers/STM32F4xx_HAL_Driver/Src/stm32f4xx_ll_usb.c ****       /* Program the transfer size and packet count
 802:Drivers/STM32F4xx_HAL_Driver/Src/stm32f4xx_ll_usb.c ****       * as follows: xfersize = N * maxpacket +
 803:Drivers/STM32F4xx_HAL_Driver/Src/stm32f4xx_ll_usb.c ****       * short_packet pktcnt = N + (short_packet
 804:Drivers/STM32F4xx_HAL_Driver/Src/stm32f4xx_ll_usb.c ****       * exist ? 1 : 0)
 805:Drivers/STM32F4xx_HAL_Driver/Src/stm32f4xx_ll_usb.c ****       */
 806:Drivers/STM32F4xx_HAL_Driver/Src/stm32f4xx_ll_usb.c ****       USBx_INEP(ep->num)->DIEPTSIZ &= ~(USB_OTG_DIEPTSIZ_XFRSIZ);
 807:Drivers/STM32F4xx_HAL_Driver/Src/stm32f4xx_ll_usb.c ****       USBx_INEP(ep->num)->DIEPTSIZ &= ~(USB_OTG_DIEPTSIZ_PKTCNT); 
 808:Drivers/STM32F4xx_HAL_Driver/Src/stm32f4xx_ll_usb.c ****       
 809:Drivers/STM32F4xx_HAL_Driver/Src/stm32f4xx_ll_usb.c ****       if(ep->xfer_len > ep->maxpacket)
 810:Drivers/STM32F4xx_HAL_Driver/Src/stm32f4xx_ll_usb.c ****       {
 811:Drivers/STM32F4xx_HAL_Driver/Src/stm32f4xx_ll_usb.c ****         ep->xfer_len = ep->maxpacket;
 812:Drivers/STM32F4xx_HAL_Driver/Src/stm32f4xx_ll_usb.c ****       }
 813:Drivers/STM32F4xx_HAL_Driver/Src/stm32f4xx_ll_usb.c ****       USBx_INEP(ep->num)->DIEPTSIZ |= (USB_OTG_DIEPTSIZ_PKTCNT & (1U << 19U)) ;
 814:Drivers/STM32F4xx_HAL_Driver/Src/stm32f4xx_ll_usb.c ****       USBx_INEP(ep->num)->DIEPTSIZ |= (USB_OTG_DIEPTSIZ_XFRSIZ & ep->xfer_len); 
 815:Drivers/STM32F4xx_HAL_Driver/Src/stm32f4xx_ll_usb.c ****     
 816:Drivers/STM32F4xx_HAL_Driver/Src/stm32f4xx_ll_usb.c ****     }
 817:Drivers/STM32F4xx_HAL_Driver/Src/stm32f4xx_ll_usb.c ****     
 818:Drivers/STM32F4xx_HAL_Driver/Src/stm32f4xx_ll_usb.c ****     /* EP enable, IN data in FIFO */
 819:Drivers/STM32F4xx_HAL_Driver/Src/stm32f4xx_ll_usb.c ****     USBx_INEP(ep->num)->DIEPCTL |= (USB_OTG_DIEPCTL_CNAK | USB_OTG_DIEPCTL_EPENA);     
 820:Drivers/STM32F4xx_HAL_Driver/Src/stm32f4xx_ll_usb.c ****     
 821:Drivers/STM32F4xx_HAL_Driver/Src/stm32f4xx_ll_usb.c ****     if (dma == 1)
 822:Drivers/STM32F4xx_HAL_Driver/Src/stm32f4xx_ll_usb.c ****     {
 823:Drivers/STM32F4xx_HAL_Driver/Src/stm32f4xx_ll_usb.c ****       USBx_INEP(ep->num)->DIEPDMA = (uint32_t)(ep->dma_addr);
 824:Drivers/STM32F4xx_HAL_Driver/Src/stm32f4xx_ll_usb.c ****     }
 825:Drivers/STM32F4xx_HAL_Driver/Src/stm32f4xx_ll_usb.c ****     else
 826:Drivers/STM32F4xx_HAL_Driver/Src/stm32f4xx_ll_usb.c ****     {
 827:Drivers/STM32F4xx_HAL_Driver/Src/stm32f4xx_ll_usb.c ****       /* Enable the Tx FIFO Empty Interrupt for this EP */
 828:Drivers/STM32F4xx_HAL_Driver/Src/stm32f4xx_ll_usb.c ****       if (ep->xfer_len > 0U)
 829:Drivers/STM32F4xx_HAL_Driver/Src/stm32f4xx_ll_usb.c ****       {
 830:Drivers/STM32F4xx_HAL_Driver/Src/stm32f4xx_ll_usb.c ****         USBx_DEVICE->DIEPEMPMSK |= 1U << (ep->num);
 831:Drivers/STM32F4xx_HAL_Driver/Src/stm32f4xx_ll_usb.c ****       }
 832:Drivers/STM32F4xx_HAL_Driver/Src/stm32f4xx_ll_usb.c ****     }
 833:Drivers/STM32F4xx_HAL_Driver/Src/stm32f4xx_ll_usb.c ****   }
 834:Drivers/STM32F4xx_HAL_Driver/Src/stm32f4xx_ll_usb.c ****   
 835:Drivers/STM32F4xx_HAL_Driver/Src/stm32f4xx_ll_usb.c ****   else /* OUT endpoint */
 836:Drivers/STM32F4xx_HAL_Driver/Src/stm32f4xx_ll_usb.c ****   {
 837:Drivers/STM32F4xx_HAL_Driver/Src/stm32f4xx_ll_usb.c ****     /* Program the transfer size and packet count as follows:
 838:Drivers/STM32F4xx_HAL_Driver/Src/stm32f4xx_ll_usb.c ****     * pktcnt = N
 839:Drivers/STM32F4xx_HAL_Driver/Src/stm32f4xx_ll_usb.c ****     * xfersize = N * maxpacket
 840:Drivers/STM32F4xx_HAL_Driver/Src/stm32f4xx_ll_usb.c ****     */
 841:Drivers/STM32F4xx_HAL_Driver/Src/stm32f4xx_ll_usb.c ****     USBx_OUTEP(ep->num)->DOEPTSIZ &= ~(USB_OTG_DOEPTSIZ_XFRSIZ); 
 1546              		.loc 1 841 0
 1547 0008 0B78     		ldrb	r3, [r1]	@ zero_extendqisi2
 1548 000a 00EB4313 		add	r3, r0, r3, lsl #5
ARM GAS  x:\temp2\cc1gRVhO.s 			page 44


 1549 000e D3F8104B 		ldr	r4, [r3, #2832]
 1550 0012 E40C     		lsrs	r4, r4, #19
 1551 0014 E404     		lsls	r4, r4, #19
 1552 0016 C3F8104B 		str	r4, [r3, #2832]
 842:Drivers/STM32F4xx_HAL_Driver/Src/stm32f4xx_ll_usb.c ****     USBx_OUTEP(ep->num)->DOEPTSIZ &= ~(USB_OTG_DOEPTSIZ_PKTCNT); 
 1553              		.loc 1 842 0
 1554 001a 0B78     		ldrb	r3, [r1]	@ zero_extendqisi2
 1555 001c 00EB4313 		add	r3, r0, r3, lsl #5
 1556 0020 D3F8104B 		ldr	r4, [r3, #2832]
 1557 0024 24F0FF54 		bic	r4, r4, #534773760
 1558 0028 24F4C014 		bic	r4, r4, #1572864
 1559 002c C3F8104B 		str	r4, [r3, #2832]
 843:Drivers/STM32F4xx_HAL_Driver/Src/stm32f4xx_ll_usb.c ****       
 844:Drivers/STM32F4xx_HAL_Driver/Src/stm32f4xx_ll_usb.c ****     if (ep->xfer_len > 0U)
 1560              		.loc 1 844 0
 1561 0030 4B69     		ldr	r3, [r1, #20]
 1562 0032 0BB1     		cbz	r3, .L127
 845:Drivers/STM32F4xx_HAL_Driver/Src/stm32f4xx_ll_usb.c ****     {
 846:Drivers/STM32F4xx_HAL_Driver/Src/stm32f4xx_ll_usb.c ****       ep->xfer_len = ep->maxpacket;
 1563              		.loc 1 846 0
 1564 0034 8B68     		ldr	r3, [r1, #8]
 1565 0036 4B61     		str	r3, [r1, #20]
 1566              	.L127:
 847:Drivers/STM32F4xx_HAL_Driver/Src/stm32f4xx_ll_usb.c ****     }
 848:Drivers/STM32F4xx_HAL_Driver/Src/stm32f4xx_ll_usb.c ****     
 849:Drivers/STM32F4xx_HAL_Driver/Src/stm32f4xx_ll_usb.c ****     USBx_OUTEP(ep->num)->DOEPTSIZ |= (USB_OTG_DOEPTSIZ_PKTCNT & (1U << 19U));
 1567              		.loc 1 849 0
 1568 0038 0B78     		ldrb	r3, [r1]	@ zero_extendqisi2
 1569 003a 00EB4313 		add	r3, r0, r3, lsl #5
 1570 003e D3F8104B 		ldr	r4, [r3, #2832]
 1571 0042 44F40024 		orr	r4, r4, #524288
 1572 0046 C3F8104B 		str	r4, [r3, #2832]
 850:Drivers/STM32F4xx_HAL_Driver/Src/stm32f4xx_ll_usb.c ****     USBx_OUTEP(ep->num)->DOEPTSIZ |= (USB_OTG_DOEPTSIZ_XFRSIZ & (ep->maxpacket)); 
 1573              		.loc 1 850 0
 1574 004a 0B78     		ldrb	r3, [r1]	@ zero_extendqisi2
 1575 004c 00EB4313 		add	r3, r0, r3, lsl #5
 1576 0050 D3F8104B 		ldr	r4, [r3, #2832]
 1577 0054 8D68     		ldr	r5, [r1, #8]
 1578 0056 C5F31205 		ubfx	r5, r5, #0, #19
 1579 005a 2C43     		orrs	r4, r4, r5
 1580 005c C3F8104B 		str	r4, [r3, #2832]
 851:Drivers/STM32F4xx_HAL_Driver/Src/stm32f4xx_ll_usb.c ****     
 852:Drivers/STM32F4xx_HAL_Driver/Src/stm32f4xx_ll_usb.c **** 
 853:Drivers/STM32F4xx_HAL_Driver/Src/stm32f4xx_ll_usb.c ****     if (dma == 1U)
 1581              		.loc 1 853 0
 1582 0060 012A     		cmp	r2, #1
 1583 0062 76D0     		beq	.L131
 1584              	.LVL108:
 1585              	.L128:
 854:Drivers/STM32F4xx_HAL_Driver/Src/stm32f4xx_ll_usb.c ****     {
 855:Drivers/STM32F4xx_HAL_Driver/Src/stm32f4xx_ll_usb.c ****       USBx_OUTEP(ep->num)->DOEPDMA = (uint32_t)(ep->xfer_buff);
 856:Drivers/STM32F4xx_HAL_Driver/Src/stm32f4xx_ll_usb.c ****     }
 857:Drivers/STM32F4xx_HAL_Driver/Src/stm32f4xx_ll_usb.c ****     
 858:Drivers/STM32F4xx_HAL_Driver/Src/stm32f4xx_ll_usb.c ****     /* EP enable */
 859:Drivers/STM32F4xx_HAL_Driver/Src/stm32f4xx_ll_usb.c ****     USBx_OUTEP(ep->num)->DOEPCTL |= (USB_OTG_DOEPCTL_CNAK | USB_OTG_DOEPCTL_EPENA);    
 1586              		.loc 1 859 0
 1587 0064 0B78     		ldrb	r3, [r1]	@ zero_extendqisi2
ARM GAS  x:\temp2\cc1gRVhO.s 			page 45


 1588 0066 00EB4310 		add	r0, r0, r3, lsl #5
 1589              	.LVL109:
 1590 006a D0F8003B 		ldr	r3, [r0, #2816]
 1591 006e 43F00443 		orr	r3, r3, #-2080374784
 1592 0072 C0F8003B 		str	r3, [r0, #2816]
 1593              	.LVL110:
 1594              	.L126:
 860:Drivers/STM32F4xx_HAL_Driver/Src/stm32f4xx_ll_usb.c ****   }
 861:Drivers/STM32F4xx_HAL_Driver/Src/stm32f4xx_ll_usb.c ****   return HAL_OK;
 862:Drivers/STM32F4xx_HAL_Driver/Src/stm32f4xx_ll_usb.c **** }
 1595              		.loc 1 862 0
 1596 0076 0020     		movs	r0, #0
 1597 0078 30BC     		pop	{r4, r5}
 1598              	.LCFI24:
 1599              		.cfi_remember_state
 1600              		.cfi_restore 5
 1601              		.cfi_restore 4
 1602              		.cfi_def_cfa_offset 0
 1603 007a 7047     		bx	lr
 1604              	.LVL111:
 1605              	.L130:
 1606              	.LCFI25:
 1607              		.cfi_restore_state
 793:Drivers/STM32F4xx_HAL_Driver/Src/stm32f4xx_ll_usb.c ****     {
 1608              		.loc 1 793 0
 1609 007c 4B69     		ldr	r3, [r1, #20]
 1610 007e 9BBB     		cbnz	r3, .L122
 795:Drivers/STM32F4xx_HAL_Driver/Src/stm32f4xx_ll_usb.c ****       USBx_INEP(ep->num)->DIEPTSIZ |= (USB_OTG_DIEPTSIZ_PKTCNT & (1U << 19U)) ;
 1611              		.loc 1 795 0
 1612 0080 0B78     		ldrb	r3, [r1]	@ zero_extendqisi2
 1613 0082 00EB4313 		add	r3, r0, r3, lsl #5
 1614 0086 D3F81049 		ldr	r4, [r3, #2320]
 1615 008a 24F0FF54 		bic	r4, r4, #534773760
 1616 008e 24F4C014 		bic	r4, r4, #1572864
 1617 0092 C3F81049 		str	r4, [r3, #2320]
 796:Drivers/STM32F4xx_HAL_Driver/Src/stm32f4xx_ll_usb.c ****       USBx_INEP(ep->num)->DIEPTSIZ &= ~(USB_OTG_DIEPTSIZ_XFRSIZ); 
 1618              		.loc 1 796 0
 1619 0096 0B78     		ldrb	r3, [r1]	@ zero_extendqisi2
 1620 0098 00EB4313 		add	r3, r0, r3, lsl #5
 1621 009c D3F81049 		ldr	r4, [r3, #2320]
 1622 00a0 44F40024 		orr	r4, r4, #524288
 1623 00a4 C3F81049 		str	r4, [r3, #2320]
 797:Drivers/STM32F4xx_HAL_Driver/Src/stm32f4xx_ll_usb.c ****     }
 1624              		.loc 1 797 0
 1625 00a8 0B78     		ldrb	r3, [r1]	@ zero_extendqisi2
 1626 00aa 00EB4313 		add	r3, r0, r3, lsl #5
 1627 00ae D3F81049 		ldr	r4, [r3, #2320]
 1628 00b2 E40C     		lsrs	r4, r4, #19
 1629 00b4 E404     		lsls	r4, r4, #19
 1630 00b6 C3F81049 		str	r4, [r3, #2320]
 1631              	.L123:
 819:Drivers/STM32F4xx_HAL_Driver/Src/stm32f4xx_ll_usb.c ****     
 1632              		.loc 1 819 0
 1633 00ba 0B78     		ldrb	r3, [r1]	@ zero_extendqisi2
 1634 00bc 00EB4313 		add	r3, r0, r3, lsl #5
 1635 00c0 D3F80049 		ldr	r4, [r3, #2304]
 1636 00c4 44F00444 		orr	r4, r4, #-2080374784
ARM GAS  x:\temp2\cc1gRVhO.s 			page 46


 1637 00c8 C3F80049 		str	r4, [r3, #2304]
 821:Drivers/STM32F4xx_HAL_Driver/Src/stm32f4xx_ll_usb.c ****     {
 1638              		.loc 1 821 0
 1639 00cc 012A     		cmp	r2, #1
 1640 00ce 39D0     		beq	.L132
 828:Drivers/STM32F4xx_HAL_Driver/Src/stm32f4xx_ll_usb.c ****       {
 1641              		.loc 1 828 0
 1642 00d0 4B69     		ldr	r3, [r1, #20]
 1643 00d2 002B     		cmp	r3, #0
 1644 00d4 CFD0     		beq	.L126
 830:Drivers/STM32F4xx_HAL_Driver/Src/stm32f4xx_ll_usb.c ****       }
 1645              		.loc 1 830 0
 1646 00d6 D0F83438 		ldr	r3, [r0, #2100]
 1647 00da 0978     		ldrb	r1, [r1]	@ zero_extendqisi2
 1648              	.LVL112:
 1649 00dc 0122     		movs	r2, #1
 1650              	.LVL113:
 1651 00de 8A40     		lsls	r2, r2, r1
 1652 00e0 1343     		orrs	r3, r3, r2
 1653 00e2 C0F83438 		str	r3, [r0, #2100]
 1654 00e6 C6E7     		b	.L126
 1655              	.LVL114:
 1656              	.L122:
 806:Drivers/STM32F4xx_HAL_Driver/Src/stm32f4xx_ll_usb.c ****       USBx_INEP(ep->num)->DIEPTSIZ &= ~(USB_OTG_DIEPTSIZ_PKTCNT); 
 1657              		.loc 1 806 0
 1658 00e8 0B78     		ldrb	r3, [r1]	@ zero_extendqisi2
 1659 00ea 00EB4313 		add	r3, r0, r3, lsl #5
 1660 00ee D3F81049 		ldr	r4, [r3, #2320]
 1661 00f2 E40C     		lsrs	r4, r4, #19
 1662 00f4 E404     		lsls	r4, r4, #19
 1663 00f6 C3F81049 		str	r4, [r3, #2320]
 807:Drivers/STM32F4xx_HAL_Driver/Src/stm32f4xx_ll_usb.c ****       
 1664              		.loc 1 807 0
 1665 00fa 0B78     		ldrb	r3, [r1]	@ zero_extendqisi2
 1666 00fc 00EB4313 		add	r3, r0, r3, lsl #5
 1667 0100 D3F81049 		ldr	r4, [r3, #2320]
 1668 0104 24F0FF54 		bic	r4, r4, #534773760
 1669 0108 24F4C014 		bic	r4, r4, #1572864
 1670 010c C3F81049 		str	r4, [r3, #2320]
 809:Drivers/STM32F4xx_HAL_Driver/Src/stm32f4xx_ll_usb.c ****       {
 1671              		.loc 1 809 0
 1672 0110 4C69     		ldr	r4, [r1, #20]
 1673 0112 8B68     		ldr	r3, [r1, #8]
 1674 0114 9C42     		cmp	r4, r3
 1675 0116 00D9     		bls	.L124
 811:Drivers/STM32F4xx_HAL_Driver/Src/stm32f4xx_ll_usb.c ****       }
 1676              		.loc 1 811 0
 1677 0118 4B61     		str	r3, [r1, #20]
 1678              	.L124:
 813:Drivers/STM32F4xx_HAL_Driver/Src/stm32f4xx_ll_usb.c ****       USBx_INEP(ep->num)->DIEPTSIZ |= (USB_OTG_DIEPTSIZ_XFRSIZ & ep->xfer_len); 
 1679              		.loc 1 813 0
 1680 011a 0B78     		ldrb	r3, [r1]	@ zero_extendqisi2
 1681 011c 00EB4313 		add	r3, r0, r3, lsl #5
 1682 0120 D3F81049 		ldr	r4, [r3, #2320]
 1683 0124 44F40024 		orr	r4, r4, #524288
 1684 0128 C3F81049 		str	r4, [r3, #2320]
 814:Drivers/STM32F4xx_HAL_Driver/Src/stm32f4xx_ll_usb.c ****     
ARM GAS  x:\temp2\cc1gRVhO.s 			page 47


 1685              		.loc 1 814 0
 1686 012c 0B78     		ldrb	r3, [r1]	@ zero_extendqisi2
 1687 012e 00EB4313 		add	r3, r0, r3, lsl #5
 1688 0132 D3F81049 		ldr	r4, [r3, #2320]
 1689 0136 4D69     		ldr	r5, [r1, #20]
 1690 0138 C5F31205 		ubfx	r5, r5, #0, #19
 1691 013c 2C43     		orrs	r4, r4, r5
 1692 013e C3F81049 		str	r4, [r3, #2320]
 1693 0142 BAE7     		b	.L123
 1694              	.L132:
 823:Drivers/STM32F4xx_HAL_Driver/Src/stm32f4xx_ll_usb.c ****     }
 1695              		.loc 1 823 0
 1696 0144 0B78     		ldrb	r3, [r1]	@ zero_extendqisi2
 1697 0146 00EB4310 		add	r0, r0, r3, lsl #5
 1698              	.LVL115:
 1699 014a 0B69     		ldr	r3, [r1, #16]
 1700 014c C0F81439 		str	r3, [r0, #2324]
 1701 0150 91E7     		b	.L126
 1702              	.LVL116:
 1703              	.L131:
 855:Drivers/STM32F4xx_HAL_Driver/Src/stm32f4xx_ll_usb.c ****     }
 1704              		.loc 1 855 0
 1705 0152 CA68     		ldr	r2, [r1, #12]
 1706              	.LVL117:
 1707 0154 0B78     		ldrb	r3, [r1]	@ zero_extendqisi2
 1708 0156 00EB4313 		add	r3, r0, r3, lsl #5
 1709 015a C3F8142B 		str	r2, [r3, #2836]
 1710 015e 81E7     		b	.L128
 1711              		.cfi_endproc
 1712              	.LFE140:
 1714              		.section	.text.USB_WritePacket,"ax",%progbits
 1715              		.align	1
 1716              		.global	USB_WritePacket
 1717              		.syntax unified
 1718              		.thumb
 1719              		.thumb_func
 1720              		.fpu fpv4-sp-d16
 1722              	USB_WritePacket:
 1723              	.LFB141:
 863:Drivers/STM32F4xx_HAL_Driver/Src/stm32f4xx_ll_usb.c **** 
 864:Drivers/STM32F4xx_HAL_Driver/Src/stm32f4xx_ll_usb.c **** /**
 865:Drivers/STM32F4xx_HAL_Driver/Src/stm32f4xx_ll_usb.c ****   * @brief  USB_WritePacket : Writes a packet into the Tx FIFO associated 
 866:Drivers/STM32F4xx_HAL_Driver/Src/stm32f4xx_ll_usb.c ****   *         with the EP/channel
 867:Drivers/STM32F4xx_HAL_Driver/Src/stm32f4xx_ll_usb.c ****   * @param  USBx  Selected device           
 868:Drivers/STM32F4xx_HAL_Driver/Src/stm32f4xx_ll_usb.c ****   * @param  src   pointer to source buffer
 869:Drivers/STM32F4xx_HAL_Driver/Src/stm32f4xx_ll_usb.c ****   * @param  ch_ep_num  endpoint or host channel number
 870:Drivers/STM32F4xx_HAL_Driver/Src/stm32f4xx_ll_usb.c ****   * @param  len  Number of bytes to write
 871:Drivers/STM32F4xx_HAL_Driver/Src/stm32f4xx_ll_usb.c ****   * @param  dma USB dma enabled or disabled 
 872:Drivers/STM32F4xx_HAL_Driver/Src/stm32f4xx_ll_usb.c ****   *          This parameter can be one of these values:
 873:Drivers/STM32F4xx_HAL_Driver/Src/stm32f4xx_ll_usb.c ****   *           0 : DMA feature not used 
 874:Drivers/STM32F4xx_HAL_Driver/Src/stm32f4xx_ll_usb.c ****   *           1 : DMA feature used  
 875:Drivers/STM32F4xx_HAL_Driver/Src/stm32f4xx_ll_usb.c ****   * @retval HAL status
 876:Drivers/STM32F4xx_HAL_Driver/Src/stm32f4xx_ll_usb.c ****   */
 877:Drivers/STM32F4xx_HAL_Driver/Src/stm32f4xx_ll_usb.c **** HAL_StatusTypeDef USB_WritePacket(USB_OTG_GlobalTypeDef *USBx, uint8_t *src, uint8_t ch_ep_num, uin
 878:Drivers/STM32F4xx_HAL_Driver/Src/stm32f4xx_ll_usb.c **** {
 1724              		.loc 1 878 0
 1725              		.cfi_startproc
ARM GAS  x:\temp2\cc1gRVhO.s 			page 48


 1726              		@ args = 4, pretend = 0, frame = 0
 1727              		@ frame_needed = 0, uses_anonymous_args = 0
 1728              		@ link register save eliminated.
 1729              	.LVL118:
 1730 0000 70B4     		push	{r4, r5, r6}
 1731              	.LCFI26:
 1732              		.cfi_def_cfa_offset 12
 1733              		.cfi_offset 4, -12
 1734              		.cfi_offset 5, -8
 1735              		.cfi_offset 6, -4
 1736 0002 9DF80C40 		ldrb	r4, [sp, #12]	@ zero_extendqisi2
 1737              	.LVL119:
 879:Drivers/STM32F4xx_HAL_Driver/Src/stm32f4xx_ll_usb.c ****   uint32_t count32b = 0U , i = 0U;
 880:Drivers/STM32F4xx_HAL_Driver/Src/stm32f4xx_ll_usb.c ****   
 881:Drivers/STM32F4xx_HAL_Driver/Src/stm32f4xx_ll_usb.c ****   if (dma == 0U)
 1738              		.loc 1 881 0
 1739 0006 64B9     		cbnz	r4, .L134
 882:Drivers/STM32F4xx_HAL_Driver/Src/stm32f4xx_ll_usb.c ****   {
 883:Drivers/STM32F4xx_HAL_Driver/Src/stm32f4xx_ll_usb.c ****     count32b =  (len + 3U) / 4U;
 1740              		.loc 1 883 0
 1741 0008 0333     		adds	r3, r3, #3
 1742              	.LVL120:
 1743 000a 9D08     		lsrs	r5, r3, #2
 1744              	.LVL121:
 884:Drivers/STM32F4xx_HAL_Driver/Src/stm32f4xx_ll_usb.c ****     for (i = 0U; i < count32b; i++, src += 4U)
 1745              		.loc 1 884 0
 1746 000c 07E0     		b	.L135
 1747              	.LVL122:
 1748              	.L136:
 885:Drivers/STM32F4xx_HAL_Driver/Src/stm32f4xx_ll_usb.c ****     {
 886:Drivers/STM32F4xx_HAL_Driver/Src/stm32f4xx_ll_usb.c ****       USBx_DFIFO(ch_ep_num) = *((__packed uint32_t *)src);
 1749              		.loc 1 886 0 discriminator 3
 1750 000e 00EB0233 		add	r3, r0, r2, lsl #12
 1751 0012 03F58053 		add	r3, r3, #4096
 1752 0016 51F8046B 		ldr	r6, [r1], #4
 1753              	.LVL123:
 1754 001a 1E60     		str	r6, [r3]
 884:Drivers/STM32F4xx_HAL_Driver/Src/stm32f4xx_ll_usb.c ****     for (i = 0U; i < count32b; i++, src += 4U)
 1755              		.loc 1 884 0 discriminator 3
 1756 001c 0134     		adds	r4, r4, #1
 1757              	.LVL124:
 1758              	.L135:
 884:Drivers/STM32F4xx_HAL_Driver/Src/stm32f4xx_ll_usb.c ****     for (i = 0U; i < count32b; i++, src += 4U)
 1759              		.loc 1 884 0 is_stmt 0 discriminator 1
 1760 001e AC42     		cmp	r4, r5
 1761 0020 F5D3     		bcc	.L136
 1762              	.LVL125:
 1763              	.L134:
 887:Drivers/STM32F4xx_HAL_Driver/Src/stm32f4xx_ll_usb.c ****     }
 888:Drivers/STM32F4xx_HAL_Driver/Src/stm32f4xx_ll_usb.c ****   }
 889:Drivers/STM32F4xx_HAL_Driver/Src/stm32f4xx_ll_usb.c ****   return HAL_OK;
 890:Drivers/STM32F4xx_HAL_Driver/Src/stm32f4xx_ll_usb.c **** }
 1764              		.loc 1 890 0 is_stmt 1
 1765 0022 0020     		movs	r0, #0
 1766              	.LVL126:
 1767 0024 70BC     		pop	{r4, r5, r6}
 1768              	.LCFI27:
ARM GAS  x:\temp2\cc1gRVhO.s 			page 49


 1769              		.cfi_restore 6
 1770              		.cfi_restore 5
 1771              		.cfi_restore 4
 1772              		.cfi_def_cfa_offset 0
 1773              	.LVL127:
 1774 0026 7047     		bx	lr
 1775              		.cfi_endproc
 1776              	.LFE141:
 1778              		.section	.text.USB_ReadPacket,"ax",%progbits
 1779              		.align	1
 1780              		.global	USB_ReadPacket
 1781              		.syntax unified
 1782              		.thumb
 1783              		.thumb_func
 1784              		.fpu fpv4-sp-d16
 1786              	USB_ReadPacket:
 1787              	.LFB142:
 891:Drivers/STM32F4xx_HAL_Driver/Src/stm32f4xx_ll_usb.c **** 
 892:Drivers/STM32F4xx_HAL_Driver/Src/stm32f4xx_ll_usb.c **** /**
 893:Drivers/STM32F4xx_HAL_Driver/Src/stm32f4xx_ll_usb.c ****   * @brief  USB_ReadPacket : read a packet from the Tx FIFO associated 
 894:Drivers/STM32F4xx_HAL_Driver/Src/stm32f4xx_ll_usb.c ****   *         with the EP/channel
 895:Drivers/STM32F4xx_HAL_Driver/Src/stm32f4xx_ll_usb.c ****   * @param  USBx  Selected device  
 896:Drivers/STM32F4xx_HAL_Driver/Src/stm32f4xx_ll_usb.c ****   * @param  src  source pointer
 897:Drivers/STM32F4xx_HAL_Driver/Src/stm32f4xx_ll_usb.c ****   * @param  ch_ep_num  endpoint or host channel number
 898:Drivers/STM32F4xx_HAL_Driver/Src/stm32f4xx_ll_usb.c ****   * @param  len  Number of bytes to read
 899:Drivers/STM32F4xx_HAL_Driver/Src/stm32f4xx_ll_usb.c ****   * @param  dma USB dma enabled or disabled 
 900:Drivers/STM32F4xx_HAL_Driver/Src/stm32f4xx_ll_usb.c ****   *          This parameter can be one of these values:
 901:Drivers/STM32F4xx_HAL_Driver/Src/stm32f4xx_ll_usb.c ****   *           0 : DMA feature not used 
 902:Drivers/STM32F4xx_HAL_Driver/Src/stm32f4xx_ll_usb.c ****   *           1 : DMA feature used  
 903:Drivers/STM32F4xx_HAL_Driver/Src/stm32f4xx_ll_usb.c ****   * @retval pointer to destination buffer
 904:Drivers/STM32F4xx_HAL_Driver/Src/stm32f4xx_ll_usb.c ****   */
 905:Drivers/STM32F4xx_HAL_Driver/Src/stm32f4xx_ll_usb.c **** void *USB_ReadPacket(USB_OTG_GlobalTypeDef *USBx, uint8_t *dest, uint16_t len)
 906:Drivers/STM32F4xx_HAL_Driver/Src/stm32f4xx_ll_usb.c **** {
 1788              		.loc 1 906 0
 1789              		.cfi_startproc
 1790              		@ args = 0, pretend = 0, frame = 0
 1791              		@ frame_needed = 0, uses_anonymous_args = 0
 1792              		@ link register save eliminated.
 1793              	.LVL128:
 907:Drivers/STM32F4xx_HAL_Driver/Src/stm32f4xx_ll_usb.c ****   uint32_t i=0U;
 908:Drivers/STM32F4xx_HAL_Driver/Src/stm32f4xx_ll_usb.c ****   uint32_t count32b = (len + 3U) / 4U;
 1794              		.loc 1 908 0
 1795 0000 0332     		adds	r2, r2, #3
 1796              	.LVL129:
 1797 0002 9208     		lsrs	r2, r2, #2
 1798              	.LVL130:
 909:Drivers/STM32F4xx_HAL_Driver/Src/stm32f4xx_ll_usb.c ****   
 910:Drivers/STM32F4xx_HAL_Driver/Src/stm32f4xx_ll_usb.c ****   for ( i = 0U; i < count32b; i++, dest += 4U )
 1799              		.loc 1 910 0
 1800 0004 0023     		movs	r3, #0
 1801              	.LVL131:
 1802 0006 9342     		cmp	r3, r2
 1803 0008 0CD2     		bcs	.L145
 906:Drivers/STM32F4xx_HAL_Driver/Src/stm32f4xx_ll_usb.c ****   uint32_t i=0U;
 1804              		.loc 1 906 0
 1805 000a 10B4     		push	{r4}
 1806              	.LCFI28:
ARM GAS  x:\temp2\cc1gRVhO.s 			page 50


 1807              		.cfi_def_cfa_offset 4
 1808              		.cfi_offset 4, -4
 1809              	.L140:
 911:Drivers/STM32F4xx_HAL_Driver/Src/stm32f4xx_ll_usb.c ****   {
 912:Drivers/STM32F4xx_HAL_Driver/Src/stm32f4xx_ll_usb.c ****     *(__packed uint32_t *)dest = USBx_DFIFO(0U);
 1810              		.loc 1 912 0 discriminator 3
 1811 000c 00F58054 		add	r4, r0, #4096
 1812 0010 2468     		ldr	r4, [r4]
 1813 0012 41F8044B 		str	r4, [r1], #4
 1814              	.LVL132:
 910:Drivers/STM32F4xx_HAL_Driver/Src/stm32f4xx_ll_usb.c ****   {
 1815              		.loc 1 910 0 discriminator 3
 1816 0016 0133     		adds	r3, r3, #1
 1817              	.LVL133:
 1818 0018 9342     		cmp	r3, r2
 1819 001a F7D3     		bcc	.L140
 913:Drivers/STM32F4xx_HAL_Driver/Src/stm32f4xx_ll_usb.c ****     
 914:Drivers/STM32F4xx_HAL_Driver/Src/stm32f4xx_ll_usb.c ****   }
 915:Drivers/STM32F4xx_HAL_Driver/Src/stm32f4xx_ll_usb.c ****   return ((void *)dest);
 916:Drivers/STM32F4xx_HAL_Driver/Src/stm32f4xx_ll_usb.c **** }
 1820              		.loc 1 916 0
 1821 001c 0846     		mov	r0, r1
 1822              	.LVL134:
 1823 001e 5DF8044B 		ldr	r4, [sp], #4
 1824              	.LCFI29:
 1825              		.cfi_restore 4
 1826              		.cfi_def_cfa_offset 0
 1827 0022 7047     		bx	lr
 1828              	.LVL135:
 1829              	.L145:
 1830 0024 0846     		mov	r0, r1
 1831              	.LVL136:
 1832 0026 7047     		bx	lr
 1833              		.cfi_endproc
 1834              	.LFE142:
 1836              		.section	.text.USB_EPSetStall,"ax",%progbits
 1837              		.align	1
 1838              		.global	USB_EPSetStall
 1839              		.syntax unified
 1840              		.thumb
 1841              		.thumb_func
 1842              		.fpu fpv4-sp-d16
 1844              	USB_EPSetStall:
 1845              	.LFB143:
 917:Drivers/STM32F4xx_HAL_Driver/Src/stm32f4xx_ll_usb.c **** 
 918:Drivers/STM32F4xx_HAL_Driver/Src/stm32f4xx_ll_usb.c **** /**
 919:Drivers/STM32F4xx_HAL_Driver/Src/stm32f4xx_ll_usb.c ****   * @brief  USB_EPSetStall : set a stall condition over an EP
 920:Drivers/STM32F4xx_HAL_Driver/Src/stm32f4xx_ll_usb.c ****   * @param  USBx  Selected device
 921:Drivers/STM32F4xx_HAL_Driver/Src/stm32f4xx_ll_usb.c ****   * @param  ep pointer to endpoint structure   
 922:Drivers/STM32F4xx_HAL_Driver/Src/stm32f4xx_ll_usb.c ****   * @retval HAL status
 923:Drivers/STM32F4xx_HAL_Driver/Src/stm32f4xx_ll_usb.c ****   */
 924:Drivers/STM32F4xx_HAL_Driver/Src/stm32f4xx_ll_usb.c **** HAL_StatusTypeDef USB_EPSetStall(USB_OTG_GlobalTypeDef *USBx , USB_OTG_EPTypeDef *ep)
 925:Drivers/STM32F4xx_HAL_Driver/Src/stm32f4xx_ll_usb.c **** {
 1846              		.loc 1 925 0
 1847              		.cfi_startproc
 1848              		@ args = 0, pretend = 0, frame = 0
 1849              		@ frame_needed = 0, uses_anonymous_args = 0
ARM GAS  x:\temp2\cc1gRVhO.s 			page 51


 1850              		@ link register save eliminated.
 1851              	.LVL137:
 926:Drivers/STM32F4xx_HAL_Driver/Src/stm32f4xx_ll_usb.c ****   if (ep->is_in == 1U)
 1852              		.loc 1 926 0
 1853 0000 4B78     		ldrb	r3, [r1, #1]	@ zero_extendqisi2
 1854 0002 012B     		cmp	r3, #1
 1855 0004 17D0     		beq	.L151
 927:Drivers/STM32F4xx_HAL_Driver/Src/stm32f4xx_ll_usb.c ****   {
 928:Drivers/STM32F4xx_HAL_Driver/Src/stm32f4xx_ll_usb.c ****     if (((USBx_INEP(ep->num)->DIEPCTL) & USB_OTG_DIEPCTL_EPENA) == 0U)
 929:Drivers/STM32F4xx_HAL_Driver/Src/stm32f4xx_ll_usb.c ****     {
 930:Drivers/STM32F4xx_HAL_Driver/Src/stm32f4xx_ll_usb.c ****       USBx_INEP(ep->num)->DIEPCTL &= ~(USB_OTG_DIEPCTL_EPDIS); 
 931:Drivers/STM32F4xx_HAL_Driver/Src/stm32f4xx_ll_usb.c ****     } 
 932:Drivers/STM32F4xx_HAL_Driver/Src/stm32f4xx_ll_usb.c ****     USBx_INEP(ep->num)->DIEPCTL |= USB_OTG_DIEPCTL_STALL;
 933:Drivers/STM32F4xx_HAL_Driver/Src/stm32f4xx_ll_usb.c ****   }
 934:Drivers/STM32F4xx_HAL_Driver/Src/stm32f4xx_ll_usb.c ****   else
 935:Drivers/STM32F4xx_HAL_Driver/Src/stm32f4xx_ll_usb.c ****   {
 936:Drivers/STM32F4xx_HAL_Driver/Src/stm32f4xx_ll_usb.c ****     if (((USBx_OUTEP(ep->num)->DOEPCTL) & USB_OTG_DOEPCTL_EPENA) == 0U)
 1856              		.loc 1 936 0
 1857 0006 0B78     		ldrb	r3, [r1]	@ zero_extendqisi2
 1858 0008 00EB4313 		add	r3, r0, r3, lsl #5
 1859 000c D3F8002B 		ldr	r2, [r3, #2816]
 1860 0010 002A     		cmp	r2, #0
 1861 0012 05DB     		blt	.L150
 937:Drivers/STM32F4xx_HAL_Driver/Src/stm32f4xx_ll_usb.c ****     {
 938:Drivers/STM32F4xx_HAL_Driver/Src/stm32f4xx_ll_usb.c ****       USBx_OUTEP(ep->num)->DOEPCTL &= ~(USB_OTG_DOEPCTL_EPDIS); 
 1862              		.loc 1 938 0
 1863 0014 D3F8002B 		ldr	r2, [r3, #2816]
 1864 0018 22F08042 		bic	r2, r2, #1073741824
 1865 001c C3F8002B 		str	r2, [r3, #2816]
 1866              	.L150:
 939:Drivers/STM32F4xx_HAL_Driver/Src/stm32f4xx_ll_usb.c ****     } 
 940:Drivers/STM32F4xx_HAL_Driver/Src/stm32f4xx_ll_usb.c ****     USBx_OUTEP(ep->num)->DOEPCTL |= USB_OTG_DOEPCTL_STALL;
 1867              		.loc 1 940 0
 1868 0020 0B78     		ldrb	r3, [r1]	@ zero_extendqisi2
 1869 0022 00EB4310 		add	r0, r0, r3, lsl #5
 1870              	.LVL138:
 1871 0026 D0F8003B 		ldr	r3, [r0, #2816]
 1872 002a 43F40013 		orr	r3, r3, #2097152
 1873 002e C0F8003B 		str	r3, [r0, #2816]
 1874              	.L149:
 941:Drivers/STM32F4xx_HAL_Driver/Src/stm32f4xx_ll_usb.c ****   }
 942:Drivers/STM32F4xx_HAL_Driver/Src/stm32f4xx_ll_usb.c ****   return HAL_OK;
 943:Drivers/STM32F4xx_HAL_Driver/Src/stm32f4xx_ll_usb.c **** }
 1875              		.loc 1 943 0
 1876 0032 0020     		movs	r0, #0
 1877 0034 7047     		bx	lr
 1878              	.LVL139:
 1879              	.L151:
 928:Drivers/STM32F4xx_HAL_Driver/Src/stm32f4xx_ll_usb.c ****     {
 1880              		.loc 1 928 0
 1881 0036 0B78     		ldrb	r3, [r1]	@ zero_extendqisi2
 1882 0038 00EB4313 		add	r3, r0, r3, lsl #5
 1883 003c D3F80029 		ldr	r2, [r3, #2304]
 1884 0040 002A     		cmp	r2, #0
 1885 0042 05DB     		blt	.L148
 930:Drivers/STM32F4xx_HAL_Driver/Src/stm32f4xx_ll_usb.c ****     } 
 1886              		.loc 1 930 0
ARM GAS  x:\temp2\cc1gRVhO.s 			page 52


 1887 0044 D3F80029 		ldr	r2, [r3, #2304]
 1888 0048 22F08042 		bic	r2, r2, #1073741824
 1889 004c C3F80029 		str	r2, [r3, #2304]
 1890              	.L148:
 932:Drivers/STM32F4xx_HAL_Driver/Src/stm32f4xx_ll_usb.c ****   }
 1891              		.loc 1 932 0
 1892 0050 0B78     		ldrb	r3, [r1]	@ zero_extendqisi2
 1893 0052 00EB4310 		add	r0, r0, r3, lsl #5
 1894              	.LVL140:
 1895 0056 D0F80039 		ldr	r3, [r0, #2304]
 1896 005a 43F40013 		orr	r3, r3, #2097152
 1897 005e C0F80039 		str	r3, [r0, #2304]
 1898 0062 E6E7     		b	.L149
 1899              		.cfi_endproc
 1900              	.LFE143:
 1902              		.section	.text.USB_EPClearStall,"ax",%progbits
 1903              		.align	1
 1904              		.global	USB_EPClearStall
 1905              		.syntax unified
 1906              		.thumb
 1907              		.thumb_func
 1908              		.fpu fpv4-sp-d16
 1910              	USB_EPClearStall:
 1911              	.LFB144:
 944:Drivers/STM32F4xx_HAL_Driver/Src/stm32f4xx_ll_usb.c **** 
 945:Drivers/STM32F4xx_HAL_Driver/Src/stm32f4xx_ll_usb.c **** 
 946:Drivers/STM32F4xx_HAL_Driver/Src/stm32f4xx_ll_usb.c **** /**
 947:Drivers/STM32F4xx_HAL_Driver/Src/stm32f4xx_ll_usb.c ****   * @brief  USB_EPClearStall : Clear a stall condition over an EP
 948:Drivers/STM32F4xx_HAL_Driver/Src/stm32f4xx_ll_usb.c ****   * @param  USBx  Selected device
 949:Drivers/STM32F4xx_HAL_Driver/Src/stm32f4xx_ll_usb.c ****   * @param  ep pointer to endpoint structure   
 950:Drivers/STM32F4xx_HAL_Driver/Src/stm32f4xx_ll_usb.c ****   * @retval HAL status
 951:Drivers/STM32F4xx_HAL_Driver/Src/stm32f4xx_ll_usb.c ****   */
 952:Drivers/STM32F4xx_HAL_Driver/Src/stm32f4xx_ll_usb.c **** HAL_StatusTypeDef USB_EPClearStall(USB_OTG_GlobalTypeDef *USBx, USB_OTG_EPTypeDef *ep)
 953:Drivers/STM32F4xx_HAL_Driver/Src/stm32f4xx_ll_usb.c **** {
 1912              		.loc 1 953 0
 1913              		.cfi_startproc
 1914              		@ args = 0, pretend = 0, frame = 0
 1915              		@ frame_needed = 0, uses_anonymous_args = 0
 1916              		@ link register save eliminated.
 1917              	.LVL141:
 954:Drivers/STM32F4xx_HAL_Driver/Src/stm32f4xx_ll_usb.c ****   if (ep->is_in == 1U)
 1918              		.loc 1 954 0
 1919 0000 4B78     		ldrb	r3, [r1, #1]	@ zero_extendqisi2
 1920 0002 012B     		cmp	r3, #1
 1921 0004 0FD0     		beq	.L155
 955:Drivers/STM32F4xx_HAL_Driver/Src/stm32f4xx_ll_usb.c ****   {
 956:Drivers/STM32F4xx_HAL_Driver/Src/stm32f4xx_ll_usb.c ****     USBx_INEP(ep->num)->DIEPCTL &= ~USB_OTG_DIEPCTL_STALL;
 957:Drivers/STM32F4xx_HAL_Driver/Src/stm32f4xx_ll_usb.c ****     if (ep->type == EP_TYPE_INTR || ep->type == EP_TYPE_BULK)
 958:Drivers/STM32F4xx_HAL_Driver/Src/stm32f4xx_ll_usb.c ****     {
 959:Drivers/STM32F4xx_HAL_Driver/Src/stm32f4xx_ll_usb.c ****        USBx_INEP(ep->num)->DIEPCTL |= USB_OTG_DIEPCTL_SD0PID_SEVNFRM; /* DATA0 */
 960:Drivers/STM32F4xx_HAL_Driver/Src/stm32f4xx_ll_usb.c ****     }    
 961:Drivers/STM32F4xx_HAL_Driver/Src/stm32f4xx_ll_usb.c ****   }
 962:Drivers/STM32F4xx_HAL_Driver/Src/stm32f4xx_ll_usb.c ****   else
 963:Drivers/STM32F4xx_HAL_Driver/Src/stm32f4xx_ll_usb.c ****   {
 964:Drivers/STM32F4xx_HAL_Driver/Src/stm32f4xx_ll_usb.c ****     USBx_OUTEP(ep->num)->DOEPCTL &= ~USB_OTG_DOEPCTL_STALL;
 1922              		.loc 1 964 0
 1923 0006 0B78     		ldrb	r3, [r1]	@ zero_extendqisi2
ARM GAS  x:\temp2\cc1gRVhO.s 			page 53


 1924 0008 00EB4313 		add	r3, r0, r3, lsl #5
 1925 000c D3F8002B 		ldr	r2, [r3, #2816]
 1926 0010 22F40012 		bic	r2, r2, #2097152
 1927 0014 C3F8002B 		str	r2, [r3, #2816]
 965:Drivers/STM32F4xx_HAL_Driver/Src/stm32f4xx_ll_usb.c ****     if (ep->type == EP_TYPE_INTR || ep->type == EP_TYPE_BULK)
 1928              		.loc 1 965 0
 1929 0018 CB78     		ldrb	r3, [r1, #3]	@ zero_extendqisi2
 1930 001a 023B     		subs	r3, r3, #2
 1931 001c DBB2     		uxtb	r3, r3
 1932 001e 012B     		cmp	r3, #1
 1933 0020 19D9     		bls	.L156
 1934              	.LVL142:
 1935              	.L154:
 966:Drivers/STM32F4xx_HAL_Driver/Src/stm32f4xx_ll_usb.c ****     {
 967:Drivers/STM32F4xx_HAL_Driver/Src/stm32f4xx_ll_usb.c ****       USBx_OUTEP(ep->num)->DOEPCTL |= USB_OTG_DOEPCTL_SD0PID_SEVNFRM; /* DATA0 */
 968:Drivers/STM32F4xx_HAL_Driver/Src/stm32f4xx_ll_usb.c ****     }    
 969:Drivers/STM32F4xx_HAL_Driver/Src/stm32f4xx_ll_usb.c ****   }
 970:Drivers/STM32F4xx_HAL_Driver/Src/stm32f4xx_ll_usb.c ****   return HAL_OK;
 971:Drivers/STM32F4xx_HAL_Driver/Src/stm32f4xx_ll_usb.c **** }
 1936              		.loc 1 971 0
 1937 0022 0020     		movs	r0, #0
 1938 0024 7047     		bx	lr
 1939              	.LVL143:
 1940              	.L155:
 956:Drivers/STM32F4xx_HAL_Driver/Src/stm32f4xx_ll_usb.c ****     if (ep->type == EP_TYPE_INTR || ep->type == EP_TYPE_BULK)
 1941              		.loc 1 956 0
 1942 0026 0B78     		ldrb	r3, [r1]	@ zero_extendqisi2
 1943 0028 00EB4313 		add	r3, r0, r3, lsl #5
 1944 002c D3F80029 		ldr	r2, [r3, #2304]
 1945 0030 22F40012 		bic	r2, r2, #2097152
 1946 0034 C3F80029 		str	r2, [r3, #2304]
 957:Drivers/STM32F4xx_HAL_Driver/Src/stm32f4xx_ll_usb.c ****     {
 1947              		.loc 1 957 0
 1948 0038 CB78     		ldrb	r3, [r1, #3]	@ zero_extendqisi2
 1949 003a 023B     		subs	r3, r3, #2
 1950 003c DBB2     		uxtb	r3, r3
 1951 003e 012B     		cmp	r3, #1
 1952 0040 EFD8     		bhi	.L154
 959:Drivers/STM32F4xx_HAL_Driver/Src/stm32f4xx_ll_usb.c ****     }    
 1953              		.loc 1 959 0
 1954 0042 0B78     		ldrb	r3, [r1]	@ zero_extendqisi2
 1955 0044 00EB4310 		add	r0, r0, r3, lsl #5
 1956              	.LVL144:
 1957 0048 D0F80039 		ldr	r3, [r0, #2304]
 1958 004c 43F08053 		orr	r3, r3, #268435456
 1959 0050 C0F80039 		str	r3, [r0, #2304]
 1960 0054 E5E7     		b	.L154
 1961              	.LVL145:
 1962              	.L156:
 967:Drivers/STM32F4xx_HAL_Driver/Src/stm32f4xx_ll_usb.c ****     }    
 1963              		.loc 1 967 0
 1964 0056 0B78     		ldrb	r3, [r1]	@ zero_extendqisi2
 1965 0058 00EB4310 		add	r0, r0, r3, lsl #5
 1966              	.LVL146:
 1967 005c D0F8003B 		ldr	r3, [r0, #2816]
 1968 0060 43F08053 		orr	r3, r3, #268435456
 1969 0064 C0F8003B 		str	r3, [r0, #2816]
ARM GAS  x:\temp2\cc1gRVhO.s 			page 54


 1970 0068 DBE7     		b	.L154
 1971              		.cfi_endproc
 1972              	.LFE144:
 1974              		.section	.text.USB_StopDevice,"ax",%progbits
 1975              		.align	1
 1976              		.global	USB_StopDevice
 1977              		.syntax unified
 1978              		.thumb
 1979              		.thumb_func
 1980              		.fpu fpv4-sp-d16
 1982              	USB_StopDevice:
 1983              	.LFB145:
 972:Drivers/STM32F4xx_HAL_Driver/Src/stm32f4xx_ll_usb.c **** 
 973:Drivers/STM32F4xx_HAL_Driver/Src/stm32f4xx_ll_usb.c **** /**
 974:Drivers/STM32F4xx_HAL_Driver/Src/stm32f4xx_ll_usb.c ****   * @brief  USB_StopDevice : Stop the usb device mode
 975:Drivers/STM32F4xx_HAL_Driver/Src/stm32f4xx_ll_usb.c ****   * @param  USBx  Selected device
 976:Drivers/STM32F4xx_HAL_Driver/Src/stm32f4xx_ll_usb.c ****   * @retval HAL status
 977:Drivers/STM32F4xx_HAL_Driver/Src/stm32f4xx_ll_usb.c ****   */
 978:Drivers/STM32F4xx_HAL_Driver/Src/stm32f4xx_ll_usb.c **** HAL_StatusTypeDef USB_StopDevice(USB_OTG_GlobalTypeDef *USBx)
 979:Drivers/STM32F4xx_HAL_Driver/Src/stm32f4xx_ll_usb.c **** {
 1984              		.loc 1 979 0
 1985              		.cfi_startproc
 1986              		@ args = 0, pretend = 0, frame = 0
 1987              		@ frame_needed = 0, uses_anonymous_args = 0
 1988              	.LVL147:
 1989 0000 38B5     		push	{r3, r4, r5, lr}
 1990              	.LCFI30:
 1991              		.cfi_def_cfa_offset 16
 1992              		.cfi_offset 3, -16
 1993              		.cfi_offset 4, -12
 1994              		.cfi_offset 5, -8
 1995              		.cfi_offset 14, -4
 1996 0002 0446     		mov	r4, r0
 1997              	.LVL148:
 980:Drivers/STM32F4xx_HAL_Driver/Src/stm32f4xx_ll_usb.c ****   uint32_t i;
 981:Drivers/STM32F4xx_HAL_Driver/Src/stm32f4xx_ll_usb.c ****   
 982:Drivers/STM32F4xx_HAL_Driver/Src/stm32f4xx_ll_usb.c ****   /* Clear Pending interrupt */
 983:Drivers/STM32F4xx_HAL_Driver/Src/stm32f4xx_ll_usb.c ****   for (i = 0U; i < 15U ; i++)
 1998              		.loc 1 983 0
 1999 0004 0022     		movs	r2, #0
 2000 0006 07E0     		b	.L158
 2001              	.LVL149:
 2002              	.L159:
 984:Drivers/STM32F4xx_HAL_Driver/Src/stm32f4xx_ll_usb.c ****   {
 985:Drivers/STM32F4xx_HAL_Driver/Src/stm32f4xx_ll_usb.c ****     USBx_INEP(i)->DIEPINT  = 0xFFU;
 2003              		.loc 1 985 0 discriminator 3
 2004 0008 04EB4213 		add	r3, r4, r2, lsl #5
 2005 000c FF21     		movs	r1, #255
 2006 000e C3F80819 		str	r1, [r3, #2312]
 986:Drivers/STM32F4xx_HAL_Driver/Src/stm32f4xx_ll_usb.c ****     USBx_OUTEP(i)->DOEPINT  = 0xFFU;
 2007              		.loc 1 986 0 discriminator 3
 2008 0012 C3F8081B 		str	r1, [r3, #2824]
 983:Drivers/STM32F4xx_HAL_Driver/Src/stm32f4xx_ll_usb.c ****   {
 2009              		.loc 1 983 0 discriminator 3
 2010 0016 0132     		adds	r2, r2, #1
 2011              	.LVL150:
 2012              	.L158:
ARM GAS  x:\temp2\cc1gRVhO.s 			page 55


 983:Drivers/STM32F4xx_HAL_Driver/Src/stm32f4xx_ll_usb.c ****   {
 2013              		.loc 1 983 0 is_stmt 0 discriminator 1
 2014 0018 0E2A     		cmp	r2, #14
 2015 001a F5D9     		bls	.L159
 987:Drivers/STM32F4xx_HAL_Driver/Src/stm32f4xx_ll_usb.c ****   }
 988:Drivers/STM32F4xx_HAL_Driver/Src/stm32f4xx_ll_usb.c ****   USBx_DEVICE->DAINT = 0xFFFFFFFFU;
 2016              		.loc 1 988 0 is_stmt 1
 2017 001c 4FF0FF32 		mov	r2, #-1
 2018              	.LVL151:
 2019 0020 C4F81828 		str	r2, [r4, #2072]
 989:Drivers/STM32F4xx_HAL_Driver/Src/stm32f4xx_ll_usb.c ****   
 990:Drivers/STM32F4xx_HAL_Driver/Src/stm32f4xx_ll_usb.c ****   /* Clear interrupt masks */
 991:Drivers/STM32F4xx_HAL_Driver/Src/stm32f4xx_ll_usb.c ****   USBx_DEVICE->DIEPMSK  = 0U;
 2020              		.loc 1 991 0
 2021 0024 0025     		movs	r5, #0
 2022 0026 C4F81058 		str	r5, [r4, #2064]
 992:Drivers/STM32F4xx_HAL_Driver/Src/stm32f4xx_ll_usb.c ****   USBx_DEVICE->DOEPMSK  = 0U;
 2023              		.loc 1 992 0
 2024 002a C4F81458 		str	r5, [r4, #2068]
 993:Drivers/STM32F4xx_HAL_Driver/Src/stm32f4xx_ll_usb.c ****   USBx_DEVICE->DAINTMSK = 0U;
 2025              		.loc 1 993 0
 2026 002e C4F81C58 		str	r5, [r4, #2076]
 994:Drivers/STM32F4xx_HAL_Driver/Src/stm32f4xx_ll_usb.c ****   
 995:Drivers/STM32F4xx_HAL_Driver/Src/stm32f4xx_ll_usb.c ****   /* Flush the FIFO */
 996:Drivers/STM32F4xx_HAL_Driver/Src/stm32f4xx_ll_usb.c ****   USB_FlushRxFifo(USBx);
 2027              		.loc 1 996 0
 2028 0032 2046     		mov	r0, r4
 2029              	.LVL152:
 2030 0034 FFF7FEFF 		bl	USB_FlushRxFifo
 2031              	.LVL153:
 997:Drivers/STM32F4xx_HAL_Driver/Src/stm32f4xx_ll_usb.c ****   USB_FlushTxFifo(USBx ,  0x10U);  
 2032              		.loc 1 997 0
 2033 0038 1021     		movs	r1, #16
 2034 003a 2046     		mov	r0, r4
 2035 003c FFF7FEFF 		bl	USB_FlushTxFifo
 2036              	.LVL154:
 998:Drivers/STM32F4xx_HAL_Driver/Src/stm32f4xx_ll_usb.c ****   
 999:Drivers/STM32F4xx_HAL_Driver/Src/stm32f4xx_ll_usb.c ****   return HAL_OK;
1000:Drivers/STM32F4xx_HAL_Driver/Src/stm32f4xx_ll_usb.c **** }
 2037              		.loc 1 1000 0
 2038 0040 2846     		mov	r0, r5
 2039 0042 38BD     		pop	{r3, r4, r5, pc}
 2040              		.cfi_endproc
 2041              	.LFE145:
 2043              		.section	.text.USB_SetDevAddress,"ax",%progbits
 2044              		.align	1
 2045              		.global	USB_SetDevAddress
 2046              		.syntax unified
 2047              		.thumb
 2048              		.thumb_func
 2049              		.fpu fpv4-sp-d16
 2051              	USB_SetDevAddress:
 2052              	.LFB146:
1001:Drivers/STM32F4xx_HAL_Driver/Src/stm32f4xx_ll_usb.c **** 
1002:Drivers/STM32F4xx_HAL_Driver/Src/stm32f4xx_ll_usb.c **** /**
1003:Drivers/STM32F4xx_HAL_Driver/Src/stm32f4xx_ll_usb.c ****   * @brief  USB_SetDevAddress : Stop the usb device mode
1004:Drivers/STM32F4xx_HAL_Driver/Src/stm32f4xx_ll_usb.c ****   * @param  USBx  Selected device
ARM GAS  x:\temp2\cc1gRVhO.s 			page 56


1005:Drivers/STM32F4xx_HAL_Driver/Src/stm32f4xx_ll_usb.c ****   * @param  address  new device address to be assigned
1006:Drivers/STM32F4xx_HAL_Driver/Src/stm32f4xx_ll_usb.c ****   *          This parameter can be a value from 0 to 255
1007:Drivers/STM32F4xx_HAL_Driver/Src/stm32f4xx_ll_usb.c ****   * @retval HAL status
1008:Drivers/STM32F4xx_HAL_Driver/Src/stm32f4xx_ll_usb.c ****   */
1009:Drivers/STM32F4xx_HAL_Driver/Src/stm32f4xx_ll_usb.c **** HAL_StatusTypeDef  USB_SetDevAddress (USB_OTG_GlobalTypeDef *USBx, uint8_t address)
1010:Drivers/STM32F4xx_HAL_Driver/Src/stm32f4xx_ll_usb.c **** {
 2053              		.loc 1 1010 0
 2054              		.cfi_startproc
 2055              		@ args = 0, pretend = 0, frame = 0
 2056              		@ frame_needed = 0, uses_anonymous_args = 0
 2057              		@ link register save eliminated.
 2058              	.LVL155:
1011:Drivers/STM32F4xx_HAL_Driver/Src/stm32f4xx_ll_usb.c ****   USBx_DEVICE->DCFG &= ~ (USB_OTG_DCFG_DAD);
 2059              		.loc 1 1011 0
 2060 0000 D0F80038 		ldr	r3, [r0, #2048]
 2061 0004 23F4FE63 		bic	r3, r3, #2032
 2062 0008 C0F80038 		str	r3, [r0, #2048]
1012:Drivers/STM32F4xx_HAL_Driver/Src/stm32f4xx_ll_usb.c ****   USBx_DEVICE->DCFG |= (address << 4U) & USB_OTG_DCFG_DAD ;
 2063              		.loc 1 1012 0
 2064 000c D0F80038 		ldr	r3, [r0, #2048]
 2065 0010 0901     		lsls	r1, r1, #4
 2066              	.LVL156:
 2067 0012 01F4FE61 		and	r1, r1, #2032
 2068 0016 0B43     		orrs	r3, r3, r1
 2069 0018 C0F80038 		str	r3, [r0, #2048]
1013:Drivers/STM32F4xx_HAL_Driver/Src/stm32f4xx_ll_usb.c ****   
1014:Drivers/STM32F4xx_HAL_Driver/Src/stm32f4xx_ll_usb.c ****   return HAL_OK;  
1015:Drivers/STM32F4xx_HAL_Driver/Src/stm32f4xx_ll_usb.c **** }
 2070              		.loc 1 1015 0
 2071 001c 0020     		movs	r0, #0
 2072              	.LVL157:
 2073 001e 7047     		bx	lr
 2074              		.cfi_endproc
 2075              	.LFE146:
 2077              		.section	.text.USB_DevConnect,"ax",%progbits
 2078              		.align	1
 2079              		.global	USB_DevConnect
 2080              		.syntax unified
 2081              		.thumb
 2082              		.thumb_func
 2083              		.fpu fpv4-sp-d16
 2085              	USB_DevConnect:
 2086              	.LFB147:
1016:Drivers/STM32F4xx_HAL_Driver/Src/stm32f4xx_ll_usb.c **** 
1017:Drivers/STM32F4xx_HAL_Driver/Src/stm32f4xx_ll_usb.c **** /**
1018:Drivers/STM32F4xx_HAL_Driver/Src/stm32f4xx_ll_usb.c ****   * @brief  USB_DevConnect : Connect the USB device by enabling the pull-up/pull-down
1019:Drivers/STM32F4xx_HAL_Driver/Src/stm32f4xx_ll_usb.c ****   * @param  USBx  Selected device
1020:Drivers/STM32F4xx_HAL_Driver/Src/stm32f4xx_ll_usb.c ****   * @retval HAL status
1021:Drivers/STM32F4xx_HAL_Driver/Src/stm32f4xx_ll_usb.c ****   */
1022:Drivers/STM32F4xx_HAL_Driver/Src/stm32f4xx_ll_usb.c **** HAL_StatusTypeDef  USB_DevConnect (USB_OTG_GlobalTypeDef *USBx)
1023:Drivers/STM32F4xx_HAL_Driver/Src/stm32f4xx_ll_usb.c **** {
 2087              		.loc 1 1023 0
 2088              		.cfi_startproc
 2089              		@ args = 0, pretend = 0, frame = 0
 2090              		@ frame_needed = 0, uses_anonymous_args = 0
 2091              	.LVL158:
 2092 0000 08B5     		push	{r3, lr}
ARM GAS  x:\temp2\cc1gRVhO.s 			page 57


 2093              	.LCFI31:
 2094              		.cfi_def_cfa_offset 8
 2095              		.cfi_offset 3, -8
 2096              		.cfi_offset 14, -4
1024:Drivers/STM32F4xx_HAL_Driver/Src/stm32f4xx_ll_usb.c ****   USBx_DEVICE->DCTL &= ~USB_OTG_DCTL_SDIS ;
 2097              		.loc 1 1024 0
 2098 0002 D0F80438 		ldr	r3, [r0, #2052]
 2099 0006 23F00203 		bic	r3, r3, #2
 2100 000a C0F80438 		str	r3, [r0, #2052]
1025:Drivers/STM32F4xx_HAL_Driver/Src/stm32f4xx_ll_usb.c ****   HAL_Delay(3U);
 2101              		.loc 1 1025 0
 2102 000e 0320     		movs	r0, #3
 2103              	.LVL159:
 2104 0010 FFF7FEFF 		bl	HAL_Delay
 2105              	.LVL160:
1026:Drivers/STM32F4xx_HAL_Driver/Src/stm32f4xx_ll_usb.c ****   
1027:Drivers/STM32F4xx_HAL_Driver/Src/stm32f4xx_ll_usb.c ****   return HAL_OK;  
1028:Drivers/STM32F4xx_HAL_Driver/Src/stm32f4xx_ll_usb.c **** }
 2106              		.loc 1 1028 0
 2107 0014 0020     		movs	r0, #0
 2108 0016 08BD     		pop	{r3, pc}
 2109              		.cfi_endproc
 2110              	.LFE147:
 2112              		.section	.text.USB_DevDisconnect,"ax",%progbits
 2113              		.align	1
 2114              		.global	USB_DevDisconnect
 2115              		.syntax unified
 2116              		.thumb
 2117              		.thumb_func
 2118              		.fpu fpv4-sp-d16
 2120              	USB_DevDisconnect:
 2121              	.LFB148:
1029:Drivers/STM32F4xx_HAL_Driver/Src/stm32f4xx_ll_usb.c **** 
1030:Drivers/STM32F4xx_HAL_Driver/Src/stm32f4xx_ll_usb.c **** /**
1031:Drivers/STM32F4xx_HAL_Driver/Src/stm32f4xx_ll_usb.c ****   * @brief  USB_DevDisconnect : Disconnect the USB device by disabling the pull-up/pull-down
1032:Drivers/STM32F4xx_HAL_Driver/Src/stm32f4xx_ll_usb.c ****   * @param  USBx  Selected device
1033:Drivers/STM32F4xx_HAL_Driver/Src/stm32f4xx_ll_usb.c ****   * @retval HAL status
1034:Drivers/STM32F4xx_HAL_Driver/Src/stm32f4xx_ll_usb.c ****   */
1035:Drivers/STM32F4xx_HAL_Driver/Src/stm32f4xx_ll_usb.c **** HAL_StatusTypeDef  USB_DevDisconnect (USB_OTG_GlobalTypeDef *USBx)
1036:Drivers/STM32F4xx_HAL_Driver/Src/stm32f4xx_ll_usb.c **** {
 2122              		.loc 1 1036 0
 2123              		.cfi_startproc
 2124              		@ args = 0, pretend = 0, frame = 0
 2125              		@ frame_needed = 0, uses_anonymous_args = 0
 2126              	.LVL161:
 2127 0000 08B5     		push	{r3, lr}
 2128              	.LCFI32:
 2129              		.cfi_def_cfa_offset 8
 2130              		.cfi_offset 3, -8
 2131              		.cfi_offset 14, -4
1037:Drivers/STM32F4xx_HAL_Driver/Src/stm32f4xx_ll_usb.c ****   USBx_DEVICE->DCTL |= USB_OTG_DCTL_SDIS ;
 2132              		.loc 1 1037 0
 2133 0002 D0F80438 		ldr	r3, [r0, #2052]
 2134 0006 43F00203 		orr	r3, r3, #2
 2135 000a C0F80438 		str	r3, [r0, #2052]
1038:Drivers/STM32F4xx_HAL_Driver/Src/stm32f4xx_ll_usb.c ****   HAL_Delay(3U);
 2136              		.loc 1 1038 0
ARM GAS  x:\temp2\cc1gRVhO.s 			page 58


 2137 000e 0320     		movs	r0, #3
 2138              	.LVL162:
 2139 0010 FFF7FEFF 		bl	HAL_Delay
 2140              	.LVL163:
1039:Drivers/STM32F4xx_HAL_Driver/Src/stm32f4xx_ll_usb.c ****   
1040:Drivers/STM32F4xx_HAL_Driver/Src/stm32f4xx_ll_usb.c ****   return HAL_OK;  
1041:Drivers/STM32F4xx_HAL_Driver/Src/stm32f4xx_ll_usb.c **** }
 2141              		.loc 1 1041 0
 2142 0014 0020     		movs	r0, #0
 2143 0016 08BD     		pop	{r3, pc}
 2144              		.cfi_endproc
 2145              	.LFE148:
 2147              		.section	.text.USB_ReadInterrupts,"ax",%progbits
 2148              		.align	1
 2149              		.global	USB_ReadInterrupts
 2150              		.syntax unified
 2151              		.thumb
 2152              		.thumb_func
 2153              		.fpu fpv4-sp-d16
 2155              	USB_ReadInterrupts:
 2156              	.LFB149:
1042:Drivers/STM32F4xx_HAL_Driver/Src/stm32f4xx_ll_usb.c **** 
1043:Drivers/STM32F4xx_HAL_Driver/Src/stm32f4xx_ll_usb.c **** /**
1044:Drivers/STM32F4xx_HAL_Driver/Src/stm32f4xx_ll_usb.c ****   * @brief  USB_ReadInterrupts: return the global USB interrupt status
1045:Drivers/STM32F4xx_HAL_Driver/Src/stm32f4xx_ll_usb.c ****   * @param  USBx  Selected device
1046:Drivers/STM32F4xx_HAL_Driver/Src/stm32f4xx_ll_usb.c ****   * @retval HAL status
1047:Drivers/STM32F4xx_HAL_Driver/Src/stm32f4xx_ll_usb.c ****   */
1048:Drivers/STM32F4xx_HAL_Driver/Src/stm32f4xx_ll_usb.c **** uint32_t  USB_ReadInterrupts (USB_OTG_GlobalTypeDef *USBx)
1049:Drivers/STM32F4xx_HAL_Driver/Src/stm32f4xx_ll_usb.c **** {
 2157              		.loc 1 1049 0
 2158              		.cfi_startproc
 2159              		@ args = 0, pretend = 0, frame = 0
 2160              		@ frame_needed = 0, uses_anonymous_args = 0
 2161              		@ link register save eliminated.
 2162              	.LVL164:
1050:Drivers/STM32F4xx_HAL_Driver/Src/stm32f4xx_ll_usb.c ****   uint32_t v = 0U;
1051:Drivers/STM32F4xx_HAL_Driver/Src/stm32f4xx_ll_usb.c ****   
1052:Drivers/STM32F4xx_HAL_Driver/Src/stm32f4xx_ll_usb.c ****   v = USBx->GINTSTS;
 2163              		.loc 1 1052 0
 2164 0000 4269     		ldr	r2, [r0, #20]
 2165              	.LVL165:
1053:Drivers/STM32F4xx_HAL_Driver/Src/stm32f4xx_ll_usb.c ****   v &= USBx->GINTMSK;
 2166              		.loc 1 1053 0
 2167 0002 8069     		ldr	r0, [r0, #24]
 2168              	.LVL166:
1054:Drivers/STM32F4xx_HAL_Driver/Src/stm32f4xx_ll_usb.c ****   return v;  
1055:Drivers/STM32F4xx_HAL_Driver/Src/stm32f4xx_ll_usb.c **** }
 2169              		.loc 1 1055 0
 2170 0004 1040     		ands	r0, r0, r2
 2171              	.LVL167:
 2172 0006 7047     		bx	lr
 2173              		.cfi_endproc
 2174              	.LFE149:
 2176              		.section	.text.USB_ReadDevAllOutEpInterrupt,"ax",%progbits
 2177              		.align	1
 2178              		.global	USB_ReadDevAllOutEpInterrupt
 2179              		.syntax unified
ARM GAS  x:\temp2\cc1gRVhO.s 			page 59


 2180              		.thumb
 2181              		.thumb_func
 2182              		.fpu fpv4-sp-d16
 2184              	USB_ReadDevAllOutEpInterrupt:
 2185              	.LFB150:
1056:Drivers/STM32F4xx_HAL_Driver/Src/stm32f4xx_ll_usb.c **** 
1057:Drivers/STM32F4xx_HAL_Driver/Src/stm32f4xx_ll_usb.c **** /**
1058:Drivers/STM32F4xx_HAL_Driver/Src/stm32f4xx_ll_usb.c ****   * @brief  USB_ReadDevAllOutEpInterrupt: return the USB device OUT endpoints interrupt status
1059:Drivers/STM32F4xx_HAL_Driver/Src/stm32f4xx_ll_usb.c ****   * @param  USBx  Selected device
1060:Drivers/STM32F4xx_HAL_Driver/Src/stm32f4xx_ll_usb.c ****   * @retval HAL status
1061:Drivers/STM32F4xx_HAL_Driver/Src/stm32f4xx_ll_usb.c ****   */
1062:Drivers/STM32F4xx_HAL_Driver/Src/stm32f4xx_ll_usb.c **** uint32_t USB_ReadDevAllOutEpInterrupt (USB_OTG_GlobalTypeDef *USBx)
1063:Drivers/STM32F4xx_HAL_Driver/Src/stm32f4xx_ll_usb.c **** {
 2186              		.loc 1 1063 0
 2187              		.cfi_startproc
 2188              		@ args = 0, pretend = 0, frame = 0
 2189              		@ frame_needed = 0, uses_anonymous_args = 0
 2190              		@ link register save eliminated.
 2191              	.LVL168:
1064:Drivers/STM32F4xx_HAL_Driver/Src/stm32f4xx_ll_usb.c ****   uint32_t v;
1065:Drivers/STM32F4xx_HAL_Driver/Src/stm32f4xx_ll_usb.c ****   v  = USBx_DEVICE->DAINT;
 2192              		.loc 1 1065 0
 2193 0000 D0F81838 		ldr	r3, [r0, #2072]
 2194 0004 00F50060 		add	r0, r0, #2048
 2195              	.LVL169:
1066:Drivers/STM32F4xx_HAL_Driver/Src/stm32f4xx_ll_usb.c ****   v &= USBx_DEVICE->DAINTMSK;
 2196              		.loc 1 1066 0
 2197 0008 C069     		ldr	r0, [r0, #28]
 2198              	.LVL170:
 2199 000a 1840     		ands	r0, r0, r3
 2200              	.LVL171:
1067:Drivers/STM32F4xx_HAL_Driver/Src/stm32f4xx_ll_usb.c ****   return ((v & 0xffff0000U) >> 16U);
1068:Drivers/STM32F4xx_HAL_Driver/Src/stm32f4xx_ll_usb.c **** }
 2201              		.loc 1 1068 0
 2202 000c 000C     		lsrs	r0, r0, #16
 2203              	.LVL172:
 2204 000e 7047     		bx	lr
 2205              		.cfi_endproc
 2206              	.LFE150:
 2208              		.section	.text.USB_ReadDevAllInEpInterrupt,"ax",%progbits
 2209              		.align	1
 2210              		.global	USB_ReadDevAllInEpInterrupt
 2211              		.syntax unified
 2212              		.thumb
 2213              		.thumb_func
 2214              		.fpu fpv4-sp-d16
 2216              	USB_ReadDevAllInEpInterrupt:
 2217              	.LFB151:
1069:Drivers/STM32F4xx_HAL_Driver/Src/stm32f4xx_ll_usb.c **** 
1070:Drivers/STM32F4xx_HAL_Driver/Src/stm32f4xx_ll_usb.c **** /**
1071:Drivers/STM32F4xx_HAL_Driver/Src/stm32f4xx_ll_usb.c ****   * @brief  USB_ReadDevAllInEpInterrupt: return the USB device IN endpoints interrupt status
1072:Drivers/STM32F4xx_HAL_Driver/Src/stm32f4xx_ll_usb.c ****   * @param  USBx  Selected device
1073:Drivers/STM32F4xx_HAL_Driver/Src/stm32f4xx_ll_usb.c ****   * @retval HAL status
1074:Drivers/STM32F4xx_HAL_Driver/Src/stm32f4xx_ll_usb.c ****   */
1075:Drivers/STM32F4xx_HAL_Driver/Src/stm32f4xx_ll_usb.c **** uint32_t USB_ReadDevAllInEpInterrupt (USB_OTG_GlobalTypeDef *USBx)
1076:Drivers/STM32F4xx_HAL_Driver/Src/stm32f4xx_ll_usb.c **** {
 2218              		.loc 1 1076 0
ARM GAS  x:\temp2\cc1gRVhO.s 			page 60


 2219              		.cfi_startproc
 2220              		@ args = 0, pretend = 0, frame = 0
 2221              		@ frame_needed = 0, uses_anonymous_args = 0
 2222              		@ link register save eliminated.
 2223              	.LVL173:
1077:Drivers/STM32F4xx_HAL_Driver/Src/stm32f4xx_ll_usb.c ****   uint32_t v;
1078:Drivers/STM32F4xx_HAL_Driver/Src/stm32f4xx_ll_usb.c ****   v  = USBx_DEVICE->DAINT;
 2224              		.loc 1 1078 0
 2225 0000 D0F81838 		ldr	r3, [r0, #2072]
 2226 0004 00F50060 		add	r0, r0, #2048
 2227              	.LVL174:
1079:Drivers/STM32F4xx_HAL_Driver/Src/stm32f4xx_ll_usb.c ****   v &= USBx_DEVICE->DAINTMSK;
 2228              		.loc 1 1079 0
 2229 0008 C069     		ldr	r0, [r0, #28]
 2230              	.LVL175:
 2231 000a 1840     		ands	r0, r0, r3
 2232              	.LVL176:
1080:Drivers/STM32F4xx_HAL_Driver/Src/stm32f4xx_ll_usb.c ****   return ((v & 0xFFFFU));
1081:Drivers/STM32F4xx_HAL_Driver/Src/stm32f4xx_ll_usb.c **** }
 2233              		.loc 1 1081 0
 2234 000c 80B2     		uxth	r0, r0
 2235              	.LVL177:
 2236 000e 7047     		bx	lr
 2237              		.cfi_endproc
 2238              	.LFE151:
 2240              		.section	.text.USB_ReadDevOutEPInterrupt,"ax",%progbits
 2241              		.align	1
 2242              		.global	USB_ReadDevOutEPInterrupt
 2243              		.syntax unified
 2244              		.thumb
 2245              		.thumb_func
 2246              		.fpu fpv4-sp-d16
 2248              	USB_ReadDevOutEPInterrupt:
 2249              	.LFB152:
1082:Drivers/STM32F4xx_HAL_Driver/Src/stm32f4xx_ll_usb.c **** 
1083:Drivers/STM32F4xx_HAL_Driver/Src/stm32f4xx_ll_usb.c **** /**
1084:Drivers/STM32F4xx_HAL_Driver/Src/stm32f4xx_ll_usb.c ****   * @brief  Returns Device OUT EP Interrupt register
1085:Drivers/STM32F4xx_HAL_Driver/Src/stm32f4xx_ll_usb.c ****   * @param  USBx  Selected device
1086:Drivers/STM32F4xx_HAL_Driver/Src/stm32f4xx_ll_usb.c ****   * @param  epnum  endpoint number
1087:Drivers/STM32F4xx_HAL_Driver/Src/stm32f4xx_ll_usb.c ****   *          This parameter can be a value from 0 to 15
1088:Drivers/STM32F4xx_HAL_Driver/Src/stm32f4xx_ll_usb.c ****   * @retval Device OUT EP Interrupt register
1089:Drivers/STM32F4xx_HAL_Driver/Src/stm32f4xx_ll_usb.c ****   */
1090:Drivers/STM32F4xx_HAL_Driver/Src/stm32f4xx_ll_usb.c **** uint32_t USB_ReadDevOutEPInterrupt (USB_OTG_GlobalTypeDef *USBx , uint8_t epnum)
1091:Drivers/STM32F4xx_HAL_Driver/Src/stm32f4xx_ll_usb.c **** {
 2250              		.loc 1 1091 0
 2251              		.cfi_startproc
 2252              		@ args = 0, pretend = 0, frame = 0
 2253              		@ frame_needed = 0, uses_anonymous_args = 0
 2254              		@ link register save eliminated.
 2255              	.LVL178:
1092:Drivers/STM32F4xx_HAL_Driver/Src/stm32f4xx_ll_usb.c ****   uint32_t v;
1093:Drivers/STM32F4xx_HAL_Driver/Src/stm32f4xx_ll_usb.c ****   v  = USBx_OUTEP(epnum)->DOEPINT;
 2256              		.loc 1 1093 0
 2257 0000 00EB4111 		add	r1, r0, r1, lsl #5
 2258              	.LVL179:
 2259 0004 D1F8082B 		ldr	r2, [r1, #2824]
 2260              	.LVL180:
ARM GAS  x:\temp2\cc1gRVhO.s 			page 61


1094:Drivers/STM32F4xx_HAL_Driver/Src/stm32f4xx_ll_usb.c ****   v &= USBx_DEVICE->DOEPMSK;
 2261              		.loc 1 1094 0
 2262 0008 00F50060 		add	r0, r0, #2048
 2263              	.LVL181:
 2264 000c 4069     		ldr	r0, [r0, #20]
 2265              	.LVL182:
1095:Drivers/STM32F4xx_HAL_Driver/Src/stm32f4xx_ll_usb.c ****   return v;
1096:Drivers/STM32F4xx_HAL_Driver/Src/stm32f4xx_ll_usb.c **** }
 2266              		.loc 1 1096 0
 2267 000e 1040     		ands	r0, r0, r2
 2268              	.LVL183:
 2269 0010 7047     		bx	lr
 2270              		.cfi_endproc
 2271              	.LFE152:
 2273              		.section	.text.USB_ReadDevInEPInterrupt,"ax",%progbits
 2274              		.align	1
 2275              		.global	USB_ReadDevInEPInterrupt
 2276              		.syntax unified
 2277              		.thumb
 2278              		.thumb_func
 2279              		.fpu fpv4-sp-d16
 2281              	USB_ReadDevInEPInterrupt:
 2282              	.LFB153:
1097:Drivers/STM32F4xx_HAL_Driver/Src/stm32f4xx_ll_usb.c **** 
1098:Drivers/STM32F4xx_HAL_Driver/Src/stm32f4xx_ll_usb.c **** /**
1099:Drivers/STM32F4xx_HAL_Driver/Src/stm32f4xx_ll_usb.c ****   * @brief  Returns Device IN EP Interrupt register
1100:Drivers/STM32F4xx_HAL_Driver/Src/stm32f4xx_ll_usb.c ****   * @param  USBx  Selected device
1101:Drivers/STM32F4xx_HAL_Driver/Src/stm32f4xx_ll_usb.c ****   * @param  epnum  endpoint number
1102:Drivers/STM32F4xx_HAL_Driver/Src/stm32f4xx_ll_usb.c ****   *          This parameter can be a value from 0 to 15
1103:Drivers/STM32F4xx_HAL_Driver/Src/stm32f4xx_ll_usb.c ****   * @retval Device IN EP Interrupt register
1104:Drivers/STM32F4xx_HAL_Driver/Src/stm32f4xx_ll_usb.c ****   */
1105:Drivers/STM32F4xx_HAL_Driver/Src/stm32f4xx_ll_usb.c **** uint32_t USB_ReadDevInEPInterrupt (USB_OTG_GlobalTypeDef *USBx , uint8_t epnum)
1106:Drivers/STM32F4xx_HAL_Driver/Src/stm32f4xx_ll_usb.c **** {
 2283              		.loc 1 1106 0
 2284              		.cfi_startproc
 2285              		@ args = 0, pretend = 0, frame = 0
 2286              		@ frame_needed = 0, uses_anonymous_args = 0
 2287              		@ link register save eliminated.
 2288              	.LVL184:
 2289 0000 10B4     		push	{r4}
 2290              	.LCFI33:
 2291              		.cfi_def_cfa_offset 4
 2292              		.cfi_offset 4, -4
1107:Drivers/STM32F4xx_HAL_Driver/Src/stm32f4xx_ll_usb.c ****   uint32_t v, msk, emp;
1108:Drivers/STM32F4xx_HAL_Driver/Src/stm32f4xx_ll_usb.c ****   
1109:Drivers/STM32F4xx_HAL_Driver/Src/stm32f4xx_ll_usb.c ****   msk = USBx_DEVICE->DIEPMSK;
 2293              		.loc 1 1109 0
 2294 0002 D0F81048 		ldr	r4, [r0, #2064]
 2295              	.LVL185:
1110:Drivers/STM32F4xx_HAL_Driver/Src/stm32f4xx_ll_usb.c ****   emp = USBx_DEVICE->DIEPEMPMSK;
 2296              		.loc 1 1110 0
 2297 0006 D0F83438 		ldr	r3, [r0, #2100]
 2298              	.LVL186:
1111:Drivers/STM32F4xx_HAL_Driver/Src/stm32f4xx_ll_usb.c ****   msk |= ((emp >> epnum) & 0x1U) << 7U;
 2299              		.loc 1 1111 0
 2300 000a CB40     		lsrs	r3, r3, r1
 2301              	.LVL187:
ARM GAS  x:\temp2\cc1gRVhO.s 			page 62


 2302 000c DB01     		lsls	r3, r3, #7
 2303 000e DBB2     		uxtb	r3, r3
 2304 0010 2343     		orrs	r3, r3, r4
 2305              	.LVL188:
1112:Drivers/STM32F4xx_HAL_Driver/Src/stm32f4xx_ll_usb.c ****   v = USBx_INEP(epnum)->DIEPINT & msk;
 2306              		.loc 1 1112 0
 2307 0012 00EB4110 		add	r0, r0, r1, lsl #5
 2308              	.LVL189:
 2309 0016 00F51060 		add	r0, r0, #2304
 2310 001a 8068     		ldr	r0, [r0, #8]
 2311              	.LVL190:
1113:Drivers/STM32F4xx_HAL_Driver/Src/stm32f4xx_ll_usb.c ****   return v;
1114:Drivers/STM32F4xx_HAL_Driver/Src/stm32f4xx_ll_usb.c **** }
 2312              		.loc 1 1114 0
 2313 001c 1840     		ands	r0, r0, r3
 2314              	.LVL191:
 2315 001e 5DF8044B 		ldr	r4, [sp], #4
 2316              	.LCFI34:
 2317              		.cfi_restore 4
 2318              		.cfi_def_cfa_offset 0
 2319 0022 7047     		bx	lr
 2320              		.cfi_endproc
 2321              	.LFE153:
 2323              		.section	.text.USB_ClearInterrupts,"ax",%progbits
 2324              		.align	1
 2325              		.global	USB_ClearInterrupts
 2326              		.syntax unified
 2327              		.thumb
 2328              		.thumb_func
 2329              		.fpu fpv4-sp-d16
 2331              	USB_ClearInterrupts:
 2332              	.LFB154:
1115:Drivers/STM32F4xx_HAL_Driver/Src/stm32f4xx_ll_usb.c **** 
1116:Drivers/STM32F4xx_HAL_Driver/Src/stm32f4xx_ll_usb.c **** /**
1117:Drivers/STM32F4xx_HAL_Driver/Src/stm32f4xx_ll_usb.c ****   * @brief  USB_ClearInterrupts: clear a USB interrupt
1118:Drivers/STM32F4xx_HAL_Driver/Src/stm32f4xx_ll_usb.c ****   * @param  USBx  Selected device
1119:Drivers/STM32F4xx_HAL_Driver/Src/stm32f4xx_ll_usb.c ****   * @param  interrupt  interrupt flag
1120:Drivers/STM32F4xx_HAL_Driver/Src/stm32f4xx_ll_usb.c ****   * @retval None
1121:Drivers/STM32F4xx_HAL_Driver/Src/stm32f4xx_ll_usb.c ****   */
1122:Drivers/STM32F4xx_HAL_Driver/Src/stm32f4xx_ll_usb.c **** void  USB_ClearInterrupts (USB_OTG_GlobalTypeDef *USBx, uint32_t interrupt)
1123:Drivers/STM32F4xx_HAL_Driver/Src/stm32f4xx_ll_usb.c **** {
 2333              		.loc 1 1123 0
 2334              		.cfi_startproc
 2335              		@ args = 0, pretend = 0, frame = 0
 2336              		@ frame_needed = 0, uses_anonymous_args = 0
 2337              		@ link register save eliminated.
 2338              	.LVL192:
1124:Drivers/STM32F4xx_HAL_Driver/Src/stm32f4xx_ll_usb.c ****   USBx->GINTSTS |= interrupt; 
 2339              		.loc 1 1124 0
 2340 0000 4369     		ldr	r3, [r0, #20]
 2341 0002 1943     		orrs	r1, r1, r3
 2342              	.LVL193:
 2343 0004 4161     		str	r1, [r0, #20]
1125:Drivers/STM32F4xx_HAL_Driver/Src/stm32f4xx_ll_usb.c **** }
 2344              		.loc 1 1125 0
 2345 0006 7047     		bx	lr
 2346              		.cfi_endproc
ARM GAS  x:\temp2\cc1gRVhO.s 			page 63


 2347              	.LFE154:
 2349              		.section	.text.USB_GetMode,"ax",%progbits
 2350              		.align	1
 2351              		.global	USB_GetMode
 2352              		.syntax unified
 2353              		.thumb
 2354              		.thumb_func
 2355              		.fpu fpv4-sp-d16
 2357              	USB_GetMode:
 2358              	.LFB155:
1126:Drivers/STM32F4xx_HAL_Driver/Src/stm32f4xx_ll_usb.c **** 
1127:Drivers/STM32F4xx_HAL_Driver/Src/stm32f4xx_ll_usb.c **** /**
1128:Drivers/STM32F4xx_HAL_Driver/Src/stm32f4xx_ll_usb.c ****   * @brief  Returns USB core mode
1129:Drivers/STM32F4xx_HAL_Driver/Src/stm32f4xx_ll_usb.c ****   * @param  USBx  Selected device
1130:Drivers/STM32F4xx_HAL_Driver/Src/stm32f4xx_ll_usb.c ****   * @retval return core mode : Host or Device
1131:Drivers/STM32F4xx_HAL_Driver/Src/stm32f4xx_ll_usb.c ****   *          This parameter can be one of these values:
1132:Drivers/STM32F4xx_HAL_Driver/Src/stm32f4xx_ll_usb.c ****   *           0 : Host 
1133:Drivers/STM32F4xx_HAL_Driver/Src/stm32f4xx_ll_usb.c ****   *           1 : Device
1134:Drivers/STM32F4xx_HAL_Driver/Src/stm32f4xx_ll_usb.c ****   */
1135:Drivers/STM32F4xx_HAL_Driver/Src/stm32f4xx_ll_usb.c **** uint32_t USB_GetMode(USB_OTG_GlobalTypeDef *USBx)
1136:Drivers/STM32F4xx_HAL_Driver/Src/stm32f4xx_ll_usb.c **** {
 2359              		.loc 1 1136 0
 2360              		.cfi_startproc
 2361              		@ args = 0, pretend = 0, frame = 0
 2362              		@ frame_needed = 0, uses_anonymous_args = 0
 2363              		@ link register save eliminated.
 2364              	.LVL194:
1137:Drivers/STM32F4xx_HAL_Driver/Src/stm32f4xx_ll_usb.c ****   return ((USBx->GINTSTS ) & 0x1U);
 2365              		.loc 1 1137 0
 2366 0000 4069     		ldr	r0, [r0, #20]
 2367              	.LVL195:
1138:Drivers/STM32F4xx_HAL_Driver/Src/stm32f4xx_ll_usb.c **** }
 2368              		.loc 1 1138 0
 2369 0002 00F00100 		and	r0, r0, #1
 2370 0006 7047     		bx	lr
 2371              		.cfi_endproc
 2372              	.LFE155:
 2374              		.section	.text.USB_ActivateSetup,"ax",%progbits
 2375              		.align	1
 2376              		.global	USB_ActivateSetup
 2377              		.syntax unified
 2378              		.thumb
 2379              		.thumb_func
 2380              		.fpu fpv4-sp-d16
 2382              	USB_ActivateSetup:
 2383              	.LFB156:
1139:Drivers/STM32F4xx_HAL_Driver/Src/stm32f4xx_ll_usb.c **** 
1140:Drivers/STM32F4xx_HAL_Driver/Src/stm32f4xx_ll_usb.c **** 
1141:Drivers/STM32F4xx_HAL_Driver/Src/stm32f4xx_ll_usb.c **** /**
1142:Drivers/STM32F4xx_HAL_Driver/Src/stm32f4xx_ll_usb.c ****   * @brief  Activate EP0 for Setup transactions
1143:Drivers/STM32F4xx_HAL_Driver/Src/stm32f4xx_ll_usb.c ****   * @param  USBx  Selected device
1144:Drivers/STM32F4xx_HAL_Driver/Src/stm32f4xx_ll_usb.c ****   * @retval HAL status
1145:Drivers/STM32F4xx_HAL_Driver/Src/stm32f4xx_ll_usb.c ****   */
1146:Drivers/STM32F4xx_HAL_Driver/Src/stm32f4xx_ll_usb.c **** HAL_StatusTypeDef  USB_ActivateSetup (USB_OTG_GlobalTypeDef *USBx)
1147:Drivers/STM32F4xx_HAL_Driver/Src/stm32f4xx_ll_usb.c **** {
 2384              		.loc 1 1147 0
 2385              		.cfi_startproc
ARM GAS  x:\temp2\cc1gRVhO.s 			page 64


 2386              		@ args = 0, pretend = 0, frame = 0
 2387              		@ frame_needed = 0, uses_anonymous_args = 0
 2388              		@ link register save eliminated.
 2389              	.LVL196:
1148:Drivers/STM32F4xx_HAL_Driver/Src/stm32f4xx_ll_usb.c ****   /* Set the MPS of the IN EP based on the enumeration speed */
1149:Drivers/STM32F4xx_HAL_Driver/Src/stm32f4xx_ll_usb.c ****   USBx_INEP(0U)->DIEPCTL &= ~USB_OTG_DIEPCTL_MPSIZ;
 2390              		.loc 1 1149 0
 2391 0000 D0F80039 		ldr	r3, [r0, #2304]
 2392 0004 23F4FF63 		bic	r3, r3, #2040
 2393 0008 23F00703 		bic	r3, r3, #7
 2394 000c C0F80039 		str	r3, [r0, #2304]
1150:Drivers/STM32F4xx_HAL_Driver/Src/stm32f4xx_ll_usb.c ****   
1151:Drivers/STM32F4xx_HAL_Driver/Src/stm32f4xx_ll_usb.c ****   if((USBx_DEVICE->DSTS & USB_OTG_DSTS_ENUMSPD) == DSTS_ENUMSPD_LS_PHY_6MHZ)
 2395              		.loc 1 1151 0
 2396 0010 00F50063 		add	r3, r0, #2048
 2397 0014 9A68     		ldr	r2, [r3, #8]
 2398 0016 02F00602 		and	r2, r2, #6
 2399 001a 042A     		cmp	r2, #4
 2400 001c 05D0     		beq	.L176
 2401              	.L175:
1152:Drivers/STM32F4xx_HAL_Driver/Src/stm32f4xx_ll_usb.c ****   {
1153:Drivers/STM32F4xx_HAL_Driver/Src/stm32f4xx_ll_usb.c ****     USBx_INEP(0U)->DIEPCTL |= 3U;
1154:Drivers/STM32F4xx_HAL_Driver/Src/stm32f4xx_ll_usb.c ****   }
1155:Drivers/STM32F4xx_HAL_Driver/Src/stm32f4xx_ll_usb.c ****   USBx_DEVICE->DCTL |= USB_OTG_DCTL_CGINAK;
 2402              		.loc 1 1155 0
 2403 001e 5A68     		ldr	r2, [r3, #4]
 2404 0020 42F48072 		orr	r2, r2, #256
 2405 0024 5A60     		str	r2, [r3, #4]
1156:Drivers/STM32F4xx_HAL_Driver/Src/stm32f4xx_ll_usb.c **** 
1157:Drivers/STM32F4xx_HAL_Driver/Src/stm32f4xx_ll_usb.c ****   return HAL_OK;
1158:Drivers/STM32F4xx_HAL_Driver/Src/stm32f4xx_ll_usb.c **** }
 2406              		.loc 1 1158 0
 2407 0026 0020     		movs	r0, #0
 2408              	.LVL197:
 2409 0028 7047     		bx	lr
 2410              	.LVL198:
 2411              	.L176:
1153:Drivers/STM32F4xx_HAL_Driver/Src/stm32f4xx_ll_usb.c ****   }
 2412              		.loc 1 1153 0
 2413 002a D0F80029 		ldr	r2, [r0, #2304]
 2414 002e 42F00302 		orr	r2, r2, #3
 2415 0032 C0F80029 		str	r2, [r0, #2304]
 2416 0036 F2E7     		b	.L175
 2417              		.cfi_endproc
 2418              	.LFE156:
 2420              		.section	.text.USB_EP0_OutStart,"ax",%progbits
 2421              		.align	1
 2422              		.global	USB_EP0_OutStart
 2423              		.syntax unified
 2424              		.thumb
 2425              		.thumb_func
 2426              		.fpu fpv4-sp-d16
 2428              	USB_EP0_OutStart:
 2429              	.LFB157:
1159:Drivers/STM32F4xx_HAL_Driver/Src/stm32f4xx_ll_usb.c **** 
1160:Drivers/STM32F4xx_HAL_Driver/Src/stm32f4xx_ll_usb.c **** 
1161:Drivers/STM32F4xx_HAL_Driver/Src/stm32f4xx_ll_usb.c **** /**
ARM GAS  x:\temp2\cc1gRVhO.s 			page 65


1162:Drivers/STM32F4xx_HAL_Driver/Src/stm32f4xx_ll_usb.c ****   * @brief  Prepare the EP0 to start the first control setup
1163:Drivers/STM32F4xx_HAL_Driver/Src/stm32f4xx_ll_usb.c ****   * @param  USBx  Selected device
1164:Drivers/STM32F4xx_HAL_Driver/Src/stm32f4xx_ll_usb.c ****   * @param  dma USB dma enabled or disabled 
1165:Drivers/STM32F4xx_HAL_Driver/Src/stm32f4xx_ll_usb.c ****   *          This parameter can be one of these values:
1166:Drivers/STM32F4xx_HAL_Driver/Src/stm32f4xx_ll_usb.c ****   *           0 : DMA feature not used 
1167:Drivers/STM32F4xx_HAL_Driver/Src/stm32f4xx_ll_usb.c ****   *           1 : DMA feature used  
1168:Drivers/STM32F4xx_HAL_Driver/Src/stm32f4xx_ll_usb.c ****   * @param  psetup  pointer to setup packet
1169:Drivers/STM32F4xx_HAL_Driver/Src/stm32f4xx_ll_usb.c ****   * @retval HAL status
1170:Drivers/STM32F4xx_HAL_Driver/Src/stm32f4xx_ll_usb.c ****   */
1171:Drivers/STM32F4xx_HAL_Driver/Src/stm32f4xx_ll_usb.c **** HAL_StatusTypeDef USB_EP0_OutStart(USB_OTG_GlobalTypeDef *USBx, uint8_t dma, uint8_t *psetup)
1172:Drivers/STM32F4xx_HAL_Driver/Src/stm32f4xx_ll_usb.c **** {
 2430              		.loc 1 1172 0
 2431              		.cfi_startproc
 2432              		@ args = 0, pretend = 0, frame = 0
 2433              		@ frame_needed = 0, uses_anonymous_args = 0
 2434              		@ link register save eliminated.
 2435              	.LVL199:
 2436 0000 10B4     		push	{r4}
 2437              	.LCFI35:
 2438              		.cfi_def_cfa_offset 4
 2439              		.cfi_offset 4, -4
1173:Drivers/STM32F4xx_HAL_Driver/Src/stm32f4xx_ll_usb.c ****   USBx_OUTEP(0U)->DOEPTSIZ = 0U;
 2440              		.loc 1 1173 0
 2441 0002 0024     		movs	r4, #0
 2442 0004 C0F8104B 		str	r4, [r0, #2832]
1174:Drivers/STM32F4xx_HAL_Driver/Src/stm32f4xx_ll_usb.c ****   USBx_OUTEP(0U)->DOEPTSIZ |= (USB_OTG_DOEPTSIZ_PKTCNT & (1U << 19U)) ;
 2443              		.loc 1 1174 0
 2444 0008 D0F8104B 		ldr	r4, [r0, #2832]
 2445 000c 44F40024 		orr	r4, r4, #524288
 2446 0010 C0F8104B 		str	r4, [r0, #2832]
1175:Drivers/STM32F4xx_HAL_Driver/Src/stm32f4xx_ll_usb.c ****   USBx_OUTEP(0U)->DOEPTSIZ |= (3U * 8U);
 2447              		.loc 1 1175 0
 2448 0014 D0F8104B 		ldr	r4, [r0, #2832]
 2449 0018 44F01804 		orr	r4, r4, #24
 2450 001c C0F8104B 		str	r4, [r0, #2832]
1176:Drivers/STM32F4xx_HAL_Driver/Src/stm32f4xx_ll_usb.c ****   USBx_OUTEP(0U)->DOEPTSIZ |=  USB_OTG_DOEPTSIZ_STUPCNT;  
 2451              		.loc 1 1176 0
 2452 0020 D0F8104B 		ldr	r4, [r0, #2832]
 2453 0024 44F0C044 		orr	r4, r4, #1610612736
 2454 0028 C0F8104B 		str	r4, [r0, #2832]
1177:Drivers/STM32F4xx_HAL_Driver/Src/stm32f4xx_ll_usb.c ****   
1178:Drivers/STM32F4xx_HAL_Driver/Src/stm32f4xx_ll_usb.c ****   if (dma == 1U)
 2455              		.loc 1 1178 0
 2456 002c 0129     		cmp	r1, #1
 2457 002e 03D0     		beq	.L180
 2458              	.L178:
1179:Drivers/STM32F4xx_HAL_Driver/Src/stm32f4xx_ll_usb.c ****   {
1180:Drivers/STM32F4xx_HAL_Driver/Src/stm32f4xx_ll_usb.c ****     USBx_OUTEP(0U)->DOEPDMA = (uint32_t)psetup;
1181:Drivers/STM32F4xx_HAL_Driver/Src/stm32f4xx_ll_usb.c ****     /* EP enable */
1182:Drivers/STM32F4xx_HAL_Driver/Src/stm32f4xx_ll_usb.c ****     USBx_OUTEP(0U)->DOEPCTL = 0x80008000U;
1183:Drivers/STM32F4xx_HAL_Driver/Src/stm32f4xx_ll_usb.c ****   }
1184:Drivers/STM32F4xx_HAL_Driver/Src/stm32f4xx_ll_usb.c ****   
1185:Drivers/STM32F4xx_HAL_Driver/Src/stm32f4xx_ll_usb.c ****   return HAL_OK;  
1186:Drivers/STM32F4xx_HAL_Driver/Src/stm32f4xx_ll_usb.c **** }
 2459              		.loc 1 1186 0
 2460 0030 0020     		movs	r0, #0
 2461              	.LVL200:
ARM GAS  x:\temp2\cc1gRVhO.s 			page 66


 2462 0032 5DF8044B 		ldr	r4, [sp], #4
 2463              	.LCFI36:
 2464              		.cfi_remember_state
 2465              		.cfi_restore 4
 2466              		.cfi_def_cfa_offset 0
 2467 0036 7047     		bx	lr
 2468              	.LVL201:
 2469              	.L180:
 2470              	.LCFI37:
 2471              		.cfi_restore_state
1180:Drivers/STM32F4xx_HAL_Driver/Src/stm32f4xx_ll_usb.c ****     /* EP enable */
 2472              		.loc 1 1180 0
 2473 0038 C0F8142B 		str	r2, [r0, #2836]
1182:Drivers/STM32F4xx_HAL_Driver/Src/stm32f4xx_ll_usb.c ****   }
 2474              		.loc 1 1182 0
 2475 003c 4FF08023 		mov	r3, #-2147450880
 2476 0040 C0F8003B 		str	r3, [r0, #2816]
 2477 0044 F4E7     		b	.L178
 2478              		.cfi_endproc
 2479              	.LFE157:
 2481              		.section	.text.USB_CoreReset,"ax",%progbits
 2482              		.align	1
 2483              		.syntax unified
 2484              		.thumb
 2485              		.thumb_func
 2486              		.fpu fpv4-sp-d16
 2488              	USB_CoreReset:
 2489              	.LFB158:
1187:Drivers/STM32F4xx_HAL_Driver/Src/stm32f4xx_ll_usb.c **** 
1188:Drivers/STM32F4xx_HAL_Driver/Src/stm32f4xx_ll_usb.c **** 
1189:Drivers/STM32F4xx_HAL_Driver/Src/stm32f4xx_ll_usb.c **** /**
1190:Drivers/STM32F4xx_HAL_Driver/Src/stm32f4xx_ll_usb.c ****   * @brief  Reset the USB Core (needed after USB clock settings change)
1191:Drivers/STM32F4xx_HAL_Driver/Src/stm32f4xx_ll_usb.c ****   * @param  USBx  Selected device
1192:Drivers/STM32F4xx_HAL_Driver/Src/stm32f4xx_ll_usb.c ****   * @retval HAL status
1193:Drivers/STM32F4xx_HAL_Driver/Src/stm32f4xx_ll_usb.c ****   */
1194:Drivers/STM32F4xx_HAL_Driver/Src/stm32f4xx_ll_usb.c **** static HAL_StatusTypeDef USB_CoreReset(USB_OTG_GlobalTypeDef *USBx)
1195:Drivers/STM32F4xx_HAL_Driver/Src/stm32f4xx_ll_usb.c **** {
 2490              		.loc 1 1195 0
 2491              		.cfi_startproc
 2492              		@ args = 0, pretend = 0, frame = 0
 2493              		@ frame_needed = 0, uses_anonymous_args = 0
 2494              		@ link register save eliminated.
 2495              	.LVL202:
1196:Drivers/STM32F4xx_HAL_Driver/Src/stm32f4xx_ll_usb.c ****   uint32_t count = 0U;
 2496              		.loc 1 1196 0
 2497 0000 0023     		movs	r3, #0
 2498              	.LVL203:
 2499              	.L183:
1197:Drivers/STM32F4xx_HAL_Driver/Src/stm32f4xx_ll_usb.c **** 
1198:Drivers/STM32F4xx_HAL_Driver/Src/stm32f4xx_ll_usb.c ****   /* Wait for AHB master IDLE state. */
1199:Drivers/STM32F4xx_HAL_Driver/Src/stm32f4xx_ll_usb.c ****   do
1200:Drivers/STM32F4xx_HAL_Driver/Src/stm32f4xx_ll_usb.c ****   {
1201:Drivers/STM32F4xx_HAL_Driver/Src/stm32f4xx_ll_usb.c ****     if (++count > 200000U)
 2500              		.loc 1 1201 0
 2501 0002 0133     		adds	r3, r3, #1
 2502              	.LVL204:
 2503 0004 0C4A     		ldr	r2, .L187
ARM GAS  x:\temp2\cc1gRVhO.s 			page 67


 2504 0006 9342     		cmp	r3, r2
 2505 0008 11D8     		bhi	.L185
1202:Drivers/STM32F4xx_HAL_Driver/Src/stm32f4xx_ll_usb.c ****     {
1203:Drivers/STM32F4xx_HAL_Driver/Src/stm32f4xx_ll_usb.c ****       return HAL_TIMEOUT;
1204:Drivers/STM32F4xx_HAL_Driver/Src/stm32f4xx_ll_usb.c ****     }
1205:Drivers/STM32F4xx_HAL_Driver/Src/stm32f4xx_ll_usb.c ****   }
1206:Drivers/STM32F4xx_HAL_Driver/Src/stm32f4xx_ll_usb.c ****   while ((USBx->GRSTCTL & USB_OTG_GRSTCTL_AHBIDL) == 0U);
 2506              		.loc 1 1206 0
 2507 000a 0269     		ldr	r2, [r0, #16]
 2508 000c 002A     		cmp	r2, #0
 2509 000e F8DA     		bge	.L183
 2510              	.LVL205:
1207:Drivers/STM32F4xx_HAL_Driver/Src/stm32f4xx_ll_usb.c ****   
1208:Drivers/STM32F4xx_HAL_Driver/Src/stm32f4xx_ll_usb.c ****   /* Core Soft Reset */
1209:Drivers/STM32F4xx_HAL_Driver/Src/stm32f4xx_ll_usb.c ****   count = 0U;
1210:Drivers/STM32F4xx_HAL_Driver/Src/stm32f4xx_ll_usb.c ****   USBx->GRSTCTL |= USB_OTG_GRSTCTL_CSRST;
 2511              		.loc 1 1210 0
 2512 0010 0369     		ldr	r3, [r0, #16]
 2513 0012 43F00103 		orr	r3, r3, #1
 2514 0016 0361     		str	r3, [r0, #16]
1209:Drivers/STM32F4xx_HAL_Driver/Src/stm32f4xx_ll_usb.c ****   USBx->GRSTCTL |= USB_OTG_GRSTCTL_CSRST;
 2515              		.loc 1 1209 0
 2516 0018 0023     		movs	r3, #0
 2517              	.LVL206:
 2518              	.L184:
1211:Drivers/STM32F4xx_HAL_Driver/Src/stm32f4xx_ll_usb.c **** 
1212:Drivers/STM32F4xx_HAL_Driver/Src/stm32f4xx_ll_usb.c ****   do
1213:Drivers/STM32F4xx_HAL_Driver/Src/stm32f4xx_ll_usb.c ****   {
1214:Drivers/STM32F4xx_HAL_Driver/Src/stm32f4xx_ll_usb.c ****     if (++count > 200000U)
 2519              		.loc 1 1214 0
 2520 001a 0133     		adds	r3, r3, #1
 2521              	.LVL207:
 2522 001c 064A     		ldr	r2, .L187
 2523 001e 9342     		cmp	r3, r2
 2524 0020 07D8     		bhi	.L186
1215:Drivers/STM32F4xx_HAL_Driver/Src/stm32f4xx_ll_usb.c ****     {
1216:Drivers/STM32F4xx_HAL_Driver/Src/stm32f4xx_ll_usb.c ****       return HAL_TIMEOUT;
1217:Drivers/STM32F4xx_HAL_Driver/Src/stm32f4xx_ll_usb.c ****     }
1218:Drivers/STM32F4xx_HAL_Driver/Src/stm32f4xx_ll_usb.c ****   }
1219:Drivers/STM32F4xx_HAL_Driver/Src/stm32f4xx_ll_usb.c ****   while ((USBx->GRSTCTL & USB_OTG_GRSTCTL_CSRST) == USB_OTG_GRSTCTL_CSRST);
 2525              		.loc 1 1219 0
 2526 0022 0269     		ldr	r2, [r0, #16]
 2527 0024 12F0010F 		tst	r2, #1
 2528 0028 F7D1     		bne	.L184
1220:Drivers/STM32F4xx_HAL_Driver/Src/stm32f4xx_ll_usb.c ****   
1221:Drivers/STM32F4xx_HAL_Driver/Src/stm32f4xx_ll_usb.c ****   return HAL_OK;
 2529              		.loc 1 1221 0
 2530 002a 0020     		movs	r0, #0
 2531              	.LVL208:
 2532 002c 7047     		bx	lr
 2533              	.LVL209:
 2534              	.L185:
1203:Drivers/STM32F4xx_HAL_Driver/Src/stm32f4xx_ll_usb.c ****     }
 2535              		.loc 1 1203 0
 2536 002e 0320     		movs	r0, #3
 2537              	.LVL210:
 2538 0030 7047     		bx	lr
ARM GAS  x:\temp2\cc1gRVhO.s 			page 68


 2539              	.LVL211:
 2540              	.L186:
1216:Drivers/STM32F4xx_HAL_Driver/Src/stm32f4xx_ll_usb.c ****     }
 2541              		.loc 1 1216 0
 2542 0032 0320     		movs	r0, #3
 2543              	.LVL212:
1222:Drivers/STM32F4xx_HAL_Driver/Src/stm32f4xx_ll_usb.c **** }
 2544              		.loc 1 1222 0
 2545 0034 7047     		bx	lr
 2546              	.L188:
 2547 0036 00BF     		.align	2
 2548              	.L187:
 2549 0038 400D0300 		.word	200000
 2550              		.cfi_endproc
 2551              	.LFE158:
 2553              		.section	.text.USB_HostInit,"ax",%progbits
 2554              		.align	1
 2555              		.global	USB_HostInit
 2556              		.syntax unified
 2557              		.thumb
 2558              		.thumb_func
 2559              		.fpu fpv4-sp-d16
 2561              	USB_HostInit:
 2562              	.LFB159:
1223:Drivers/STM32F4xx_HAL_Driver/Src/stm32f4xx_ll_usb.c **** 
1224:Drivers/STM32F4xx_HAL_Driver/Src/stm32f4xx_ll_usb.c **** 
1225:Drivers/STM32F4xx_HAL_Driver/Src/stm32f4xx_ll_usb.c **** /**
1226:Drivers/STM32F4xx_HAL_Driver/Src/stm32f4xx_ll_usb.c ****   * @brief  USB_HostInit : Initializes the USB OTG controller registers 
1227:Drivers/STM32F4xx_HAL_Driver/Src/stm32f4xx_ll_usb.c ****   *         for Host mode 
1228:Drivers/STM32F4xx_HAL_Driver/Src/stm32f4xx_ll_usb.c ****   * @param  USBx  Selected device
1229:Drivers/STM32F4xx_HAL_Driver/Src/stm32f4xx_ll_usb.c ****   * @param  cfg   pointer to a USB_OTG_CfgTypeDef structure that contains
1230:Drivers/STM32F4xx_HAL_Driver/Src/stm32f4xx_ll_usb.c ****   *         the configuration information for the specified USBx peripheral.
1231:Drivers/STM32F4xx_HAL_Driver/Src/stm32f4xx_ll_usb.c ****   * @retval HAL status
1232:Drivers/STM32F4xx_HAL_Driver/Src/stm32f4xx_ll_usb.c ****   */
1233:Drivers/STM32F4xx_HAL_Driver/Src/stm32f4xx_ll_usb.c **** HAL_StatusTypeDef USB_HostInit (USB_OTG_GlobalTypeDef *USBx, USB_OTG_CfgTypeDef cfg)
1234:Drivers/STM32F4xx_HAL_Driver/Src/stm32f4xx_ll_usb.c **** {
 2563              		.loc 1 1234 0
 2564              		.cfi_startproc
 2565              		@ args = 56, pretend = 16, frame = 0
 2566              		@ frame_needed = 0, uses_anonymous_args = 0
 2567              	.LVL213:
 2568 0000 84B0     		sub	sp, sp, #16
 2569              	.LCFI38:
 2570              		.cfi_def_cfa_offset 16
 2571 0002 38B5     		push	{r3, r4, r5, lr}
 2572              	.LCFI39:
 2573              		.cfi_def_cfa_offset 32
 2574              		.cfi_offset 3, -32
 2575              		.cfi_offset 4, -28
 2576              		.cfi_offset 5, -24
 2577              		.cfi_offset 14, -20
 2578 0004 0446     		mov	r4, r0
 2579 0006 05A8     		add	r0, sp, #20
 2580              	.LVL214:
 2581 0008 80E80E00 		stm	r0, {r1, r2, r3}
1235:Drivers/STM32F4xx_HAL_Driver/Src/stm32f4xx_ll_usb.c ****   uint32_t i;
1236:Drivers/STM32F4xx_HAL_Driver/Src/stm32f4xx_ll_usb.c ****   
ARM GAS  x:\temp2\cc1gRVhO.s 			page 69


1237:Drivers/STM32F4xx_HAL_Driver/Src/stm32f4xx_ll_usb.c ****   /* Restart the Phy Clock */
1238:Drivers/STM32F4xx_HAL_Driver/Src/stm32f4xx_ll_usb.c ****   USBx_PCGCCTL = 0U;
 2582              		.loc 1 1238 0
 2583 000c 2546     		mov	r5, r4
 2584 000e 0023     		movs	r3, #0
 2585 0010 C4F8003E 		str	r3, [r4, #3584]
1239:Drivers/STM32F4xx_HAL_Driver/Src/stm32f4xx_ll_usb.c ****   
1240:Drivers/STM32F4xx_HAL_Driver/Src/stm32f4xx_ll_usb.c ****   /* Activate VBUS Sensing B */
1241:Drivers/STM32F4xx_HAL_Driver/Src/stm32f4xx_ll_usb.c **** #if defined(STM32F446xx) || defined(STM32F469xx) || defined(STM32F479xx) || defined(STM32F412Zx) ||
1242:Drivers/STM32F4xx_HAL_Driver/Src/stm32f4xx_ll_usb.c ****     defined(STM32F412Rx) || defined(STM32F412Cx) || defined(STM32F413xx) || defined(STM32F423xx)
1243:Drivers/STM32F4xx_HAL_Driver/Src/stm32f4xx_ll_usb.c ****   USBx->GCCFG |= USB_OTG_GCCFG_VBDEN;
1244:Drivers/STM32F4xx_HAL_Driver/Src/stm32f4xx_ll_usb.c **** #else
1245:Drivers/STM32F4xx_HAL_Driver/Src/stm32f4xx_ll_usb.c ****   USBx->GCCFG &=~ (USB_OTG_GCCFG_VBUSASEN);
 2586              		.loc 1 1245 0
 2587 0014 A36B     		ldr	r3, [r4, #56]
 2588 0016 23F48023 		bic	r3, r3, #262144
 2589 001a A363     		str	r3, [r4, #56]
1246:Drivers/STM32F4xx_HAL_Driver/Src/stm32f4xx_ll_usb.c ****   USBx->GCCFG &=~ (USB_OTG_GCCFG_VBUSBSEN);
 2590              		.loc 1 1246 0
 2591 001c A36B     		ldr	r3, [r4, #56]
 2592 001e 23F40023 		bic	r3, r3, #524288
 2593 0022 A363     		str	r3, [r4, #56]
1247:Drivers/STM32F4xx_HAL_Driver/Src/stm32f4xx_ll_usb.c ****   USBx->GCCFG |= USB_OTG_GCCFG_NOVBUSSENS;
 2594              		.loc 1 1247 0
 2595 0024 A36B     		ldr	r3, [r4, #56]
 2596 0026 43F40013 		orr	r3, r3, #2097152
 2597 002a A363     		str	r3, [r4, #56]
1248:Drivers/STM32F4xx_HAL_Driver/Src/stm32f4xx_ll_usb.c **** #endif /* STM32F446xx || STM32F469xx || STM32F479xx || STM32F412Zx || STM32F412Rx || STM32F412Vx ||
1249:Drivers/STM32F4xx_HAL_Driver/Src/stm32f4xx_ll_usb.c **** 
1250:Drivers/STM32F4xx_HAL_Driver/Src/stm32f4xx_ll_usb.c ****   /* Disable the FS/LS support mode only */
1251:Drivers/STM32F4xx_HAL_Driver/Src/stm32f4xx_ll_usb.c ****   if((cfg.speed == USB_OTG_SPEED_FULL)&&
 2598              		.loc 1 1251 0
 2599 002c 079B     		ldr	r3, [sp, #28]
 2600 002e 032B     		cmp	r3, #3
 2601 0030 0ED0     		beq	.L198
 2602              	.L190:
1252:Drivers/STM32F4xx_HAL_Driver/Src/stm32f4xx_ll_usb.c ****      (USBx != USB_OTG_FS))
1253:Drivers/STM32F4xx_HAL_Driver/Src/stm32f4xx_ll_usb.c ****   {
1254:Drivers/STM32F4xx_HAL_Driver/Src/stm32f4xx_ll_usb.c ****     USBx_HOST->HCFG |= USB_OTG_HCFG_FSLSS; 
1255:Drivers/STM32F4xx_HAL_Driver/Src/stm32f4xx_ll_usb.c ****   }
1256:Drivers/STM32F4xx_HAL_Driver/Src/stm32f4xx_ll_usb.c ****   else
1257:Drivers/STM32F4xx_HAL_Driver/Src/stm32f4xx_ll_usb.c ****   {
1258:Drivers/STM32F4xx_HAL_Driver/Src/stm32f4xx_ll_usb.c ****     USBx_HOST->HCFG &= ~(USB_OTG_HCFG_FSLSS);  
 2603              		.loc 1 1258 0
 2604 0032 D4F80034 		ldr	r3, [r4, #1024]
 2605 0036 23F00403 		bic	r3, r3, #4
 2606 003a C4F80034 		str	r3, [r4, #1024]
 2607              	.L191:
1259:Drivers/STM32F4xx_HAL_Driver/Src/stm32f4xx_ll_usb.c ****   }
1260:Drivers/STM32F4xx_HAL_Driver/Src/stm32f4xx_ll_usb.c **** 
1261:Drivers/STM32F4xx_HAL_Driver/Src/stm32f4xx_ll_usb.c ****   /* Make sure the FIFOs are flushed. */
1262:Drivers/STM32F4xx_HAL_Driver/Src/stm32f4xx_ll_usb.c ****   USB_FlushTxFifo(USBx, 0x10U); /* all Tx FIFOs */
 2608              		.loc 1 1262 0
 2609 003e 1021     		movs	r1, #16
 2610 0040 2046     		mov	r0, r4
 2611 0042 FFF7FEFF 		bl	USB_FlushTxFifo
 2612              	.LVL215:
ARM GAS  x:\temp2\cc1gRVhO.s 			page 70


1263:Drivers/STM32F4xx_HAL_Driver/Src/stm32f4xx_ll_usb.c ****   USB_FlushRxFifo(USBx);
 2613              		.loc 1 1263 0
 2614 0046 2046     		mov	r0, r4
 2615 0048 FFF7FEFF 		bl	USB_FlushRxFifo
 2616              	.LVL216:
1264:Drivers/STM32F4xx_HAL_Driver/Src/stm32f4xx_ll_usb.c **** 
1265:Drivers/STM32F4xx_HAL_Driver/Src/stm32f4xx_ll_usb.c ****   /* Clear all pending HC Interrupts */
1266:Drivers/STM32F4xx_HAL_Driver/Src/stm32f4xx_ll_usb.c ****   for (i = 0U; i < cfg.Host_channels; i++)
 2617              		.loc 1 1266 0
 2618 004c 0022     		movs	r2, #0
 2619 004e 13E0     		b	.L192
 2620              	.LVL217:
 2621              	.L198:
1251:Drivers/STM32F4xx_HAL_Driver/Src/stm32f4xx_ll_usb.c ****      (USBx != USB_OTG_FS))
 2622              		.loc 1 1251 0 discriminator 1
 2623 0050 B4F1A04F 		cmp	r4, #1342177280
 2624 0054 EDD0     		beq	.L190
1254:Drivers/STM32F4xx_HAL_Driver/Src/stm32f4xx_ll_usb.c ****   }
 2625              		.loc 1 1254 0
 2626 0056 D4F80034 		ldr	r3, [r4, #1024]
 2627 005a 43F00403 		orr	r3, r3, #4
 2628 005e C4F80034 		str	r3, [r4, #1024]
 2629 0062 ECE7     		b	.L191
 2630              	.LVL218:
 2631              	.L193:
1267:Drivers/STM32F4xx_HAL_Driver/Src/stm32f4xx_ll_usb.c ****   {
1268:Drivers/STM32F4xx_HAL_Driver/Src/stm32f4xx_ll_usb.c ****     USBx_HC(i)->HCINT = 0xFFFFFFFFU;
 2632              		.loc 1 1268 0 discriminator 3
 2633 0064 05EB4213 		add	r3, r5, r2, lsl #5
 2634 0068 4FF0FF31 		mov	r1, #-1
 2635 006c C3F80815 		str	r1, [r3, #1288]
1269:Drivers/STM32F4xx_HAL_Driver/Src/stm32f4xx_ll_usb.c ****     USBx_HC(i)->HCINTMSK = 0U;
 2636              		.loc 1 1269 0 discriminator 3
 2637 0070 0021     		movs	r1, #0
 2638 0072 C3F80C15 		str	r1, [r3, #1292]
1266:Drivers/STM32F4xx_HAL_Driver/Src/stm32f4xx_ll_usb.c ****   {
 2639              		.loc 1 1266 0 discriminator 3
 2640 0076 0132     		adds	r2, r2, #1
 2641              	.LVL219:
 2642              	.L192:
1266:Drivers/STM32F4xx_HAL_Driver/Src/stm32f4xx_ll_usb.c ****   {
 2643              		.loc 1 1266 0 is_stmt 0 discriminator 1
 2644 0078 069B     		ldr	r3, [sp, #24]
 2645 007a 9342     		cmp	r3, r2
 2646 007c F2D8     		bhi	.L193
1270:Drivers/STM32F4xx_HAL_Driver/Src/stm32f4xx_ll_usb.c ****   }
1271:Drivers/STM32F4xx_HAL_Driver/Src/stm32f4xx_ll_usb.c ****   
1272:Drivers/STM32F4xx_HAL_Driver/Src/stm32f4xx_ll_usb.c ****   /* Enable VBUS driving */
1273:Drivers/STM32F4xx_HAL_Driver/Src/stm32f4xx_ll_usb.c ****   USB_DriveVbus(USBx, 1U);
 2647              		.loc 1 1273 0 is_stmt 1
 2648 007e 0121     		movs	r1, #1
 2649 0080 2046     		mov	r0, r4
 2650 0082 FFF7FEFF 		bl	USB_DriveVbus
 2651              	.LVL220:
1274:Drivers/STM32F4xx_HAL_Driver/Src/stm32f4xx_ll_usb.c ****   
1275:Drivers/STM32F4xx_HAL_Driver/Src/stm32f4xx_ll_usb.c ****   HAL_Delay(200U);
 2652              		.loc 1 1275 0
ARM GAS  x:\temp2\cc1gRVhO.s 			page 71


 2653 0086 C820     		movs	r0, #200
 2654 0088 FFF7FEFF 		bl	HAL_Delay
 2655              	.LVL221:
1276:Drivers/STM32F4xx_HAL_Driver/Src/stm32f4xx_ll_usb.c ****   
1277:Drivers/STM32F4xx_HAL_Driver/Src/stm32f4xx_ll_usb.c ****   /* Disable all interrupts. */
1278:Drivers/STM32F4xx_HAL_Driver/Src/stm32f4xx_ll_usb.c ****   USBx->GINTMSK = 0U;
 2656              		.loc 1 1278 0
 2657 008c 0023     		movs	r3, #0
 2658 008e A361     		str	r3, [r4, #24]
1279:Drivers/STM32F4xx_HAL_Driver/Src/stm32f4xx_ll_usb.c ****   
1280:Drivers/STM32F4xx_HAL_Driver/Src/stm32f4xx_ll_usb.c ****   /* Clear any pending interrupts */
1281:Drivers/STM32F4xx_HAL_Driver/Src/stm32f4xx_ll_usb.c ****   USBx->GINTSTS = 0xFFFFFFFFU;
 2659              		.loc 1 1281 0
 2660 0090 4FF0FF33 		mov	r3, #-1
 2661 0094 6361     		str	r3, [r4, #20]
1282:Drivers/STM32F4xx_HAL_Driver/Src/stm32f4xx_ll_usb.c ****   
1283:Drivers/STM32F4xx_HAL_Driver/Src/stm32f4xx_ll_usb.c ****   if(USBx == USB_OTG_FS)
 2662              		.loc 1 1283 0
 2663 0096 B4F1A04F 		cmp	r4, #1342177280
 2664 009a 17D0     		beq	.L199
1284:Drivers/STM32F4xx_HAL_Driver/Src/stm32f4xx_ll_usb.c ****   {
1285:Drivers/STM32F4xx_HAL_Driver/Src/stm32f4xx_ll_usb.c ****     /* set Rx FIFO size */
1286:Drivers/STM32F4xx_HAL_Driver/Src/stm32f4xx_ll_usb.c ****     USBx->GRXFSIZ  = 0x80U; 
1287:Drivers/STM32F4xx_HAL_Driver/Src/stm32f4xx_ll_usb.c ****     USBx->DIEPTXF0_HNPTXFSIZ = (uint32_t )(((0x60U << 16U)& USB_OTG_NPTXFD) | 0x80U);
1288:Drivers/STM32F4xx_HAL_Driver/Src/stm32f4xx_ll_usb.c ****     USBx->HPTXFSIZ = (uint32_t )(((0x40U << 16U)& USB_OTG_HPTXFSIZ_PTXFD) | 0xE0U);
1289:Drivers/STM32F4xx_HAL_Driver/Src/stm32f4xx_ll_usb.c ****   }
1290:Drivers/STM32F4xx_HAL_Driver/Src/stm32f4xx_ll_usb.c ****   else
1291:Drivers/STM32F4xx_HAL_Driver/Src/stm32f4xx_ll_usb.c ****   {
1292:Drivers/STM32F4xx_HAL_Driver/Src/stm32f4xx_ll_usb.c ****     /* set Rx FIFO size */
1293:Drivers/STM32F4xx_HAL_Driver/Src/stm32f4xx_ll_usb.c ****     USBx->GRXFSIZ  = 0x200U; 
 2665              		.loc 1 1293 0
 2666 009c 4FF40073 		mov	r3, #512
 2667 00a0 6362     		str	r3, [r4, #36]
1294:Drivers/STM32F4xx_HAL_Driver/Src/stm32f4xx_ll_usb.c ****     USBx->DIEPTXF0_HNPTXFSIZ = (uint32_t )(((0x100U << 16U)& USB_OTG_NPTXFD) | 0x200U);
 2668              		.loc 1 1294 0
 2669 00a2 03F18073 		add	r3, r3, #16777216
 2670 00a6 A362     		str	r3, [r4, #40]
1295:Drivers/STM32F4xx_HAL_Driver/Src/stm32f4xx_ll_usb.c ****     USBx->HPTXFSIZ = (uint32_t )(((0xE0U << 16U)& USB_OTG_HPTXFSIZ_PTXFD) | 0x300U);
 2671              		.loc 1 1295 0
 2672 00a8 0D4B     		ldr	r3, .L200
 2673 00aa C4F80031 		str	r3, [r4, #256]
 2674              	.L195:
1296:Drivers/STM32F4xx_HAL_Driver/Src/stm32f4xx_ll_usb.c ****   }
1297:Drivers/STM32F4xx_HAL_Driver/Src/stm32f4xx_ll_usb.c ****   
1298:Drivers/STM32F4xx_HAL_Driver/Src/stm32f4xx_ll_usb.c ****   /* Enable the common interrupts */
1299:Drivers/STM32F4xx_HAL_Driver/Src/stm32f4xx_ll_usb.c ****   if (cfg.dma_enable == DISABLE)
 2675              		.loc 1 1299 0
 2676 00ae 089B     		ldr	r3, [sp, #32]
 2677 00b0 1BB9     		cbnz	r3, .L196
1300:Drivers/STM32F4xx_HAL_Driver/Src/stm32f4xx_ll_usb.c ****   {
1301:Drivers/STM32F4xx_HAL_Driver/Src/stm32f4xx_ll_usb.c ****     USBx->GINTMSK |= USB_OTG_GINTMSK_RXFLVLM; 
 2678              		.loc 1 1301 0
 2679 00b2 A369     		ldr	r3, [r4, #24]
 2680 00b4 43F01003 		orr	r3, r3, #16
 2681 00b8 A361     		str	r3, [r4, #24]
 2682              	.L196:
1302:Drivers/STM32F4xx_HAL_Driver/Src/stm32f4xx_ll_usb.c ****   }
ARM GAS  x:\temp2\cc1gRVhO.s 			page 72


1303:Drivers/STM32F4xx_HAL_Driver/Src/stm32f4xx_ll_usb.c ****   
1304:Drivers/STM32F4xx_HAL_Driver/Src/stm32f4xx_ll_usb.c ****   /* Enable interrupts matching to the Host mode ONLY */
1305:Drivers/STM32F4xx_HAL_Driver/Src/stm32f4xx_ll_usb.c ****   USBx->GINTMSK |= (USB_OTG_GINTMSK_PRTIM            | USB_OTG_GINTMSK_HCIM |\
 2683              		.loc 1 1305 0
 2684 00ba A269     		ldr	r2, [r4, #24]
 2685 00bc 094B     		ldr	r3, .L200+4
 2686 00be 1343     		orrs	r3, r3, r2
 2687 00c0 A361     		str	r3, [r4, #24]
1306:Drivers/STM32F4xx_HAL_Driver/Src/stm32f4xx_ll_usb.c ****                     USB_OTG_GINTMSK_SOFM             |USB_OTG_GINTSTS_DISCINT|\
1307:Drivers/STM32F4xx_HAL_Driver/Src/stm32f4xx_ll_usb.c ****                     USB_OTG_GINTMSK_PXFRM_IISOOXFRM  | USB_OTG_GINTMSK_WUIM);
1308:Drivers/STM32F4xx_HAL_Driver/Src/stm32f4xx_ll_usb.c **** 
1309:Drivers/STM32F4xx_HAL_Driver/Src/stm32f4xx_ll_usb.c ****   return HAL_OK;
1310:Drivers/STM32F4xx_HAL_Driver/Src/stm32f4xx_ll_usb.c **** }
 2688              		.loc 1 1310 0
 2689 00c2 0020     		movs	r0, #0
 2690 00c4 BDE83840 		pop	{r3, r4, r5, lr}
 2691              	.LCFI40:
 2692              		.cfi_remember_state
 2693              		.cfi_restore 14
 2694              		.cfi_restore 5
 2695              		.cfi_restore 4
 2696              		.cfi_restore 3
 2697              		.cfi_def_cfa_offset 16
 2698              	.LVL222:
 2699 00c8 04B0     		add	sp, sp, #16
 2700              	.LCFI41:
 2701              		.cfi_def_cfa_offset 0
 2702 00ca 7047     		bx	lr
 2703              	.LVL223:
 2704              	.L199:
 2705              	.LCFI42:
 2706              		.cfi_restore_state
1286:Drivers/STM32F4xx_HAL_Driver/Src/stm32f4xx_ll_usb.c ****     USBx->DIEPTXF0_HNPTXFSIZ = (uint32_t )(((0x60U << 16U)& USB_OTG_NPTXFD) | 0x80U);
 2707              		.loc 1 1286 0
 2708 00cc 8023     		movs	r3, #128
 2709 00ce 6362     		str	r3, [r4, #36]
1287:Drivers/STM32F4xx_HAL_Driver/Src/stm32f4xx_ll_usb.c ****     USBx->HPTXFSIZ = (uint32_t )(((0x40U << 16U)& USB_OTG_HPTXFSIZ_PTXFD) | 0xE0U);
 2710              		.loc 1 1287 0
 2711 00d0 03F5C003 		add	r3, r3, #6291456
 2712 00d4 A362     		str	r3, [r4, #40]
1288:Drivers/STM32F4xx_HAL_Driver/Src/stm32f4xx_ll_usb.c ****   }
 2713              		.loc 1 1288 0
 2714 00d6 044B     		ldr	r3, .L200+8
 2715 00d8 C4F80031 		str	r3, [r4, #256]
 2716 00dc E7E7     		b	.L195
 2717              	.L201:
 2718 00de 00BF     		.align	2
 2719              	.L200:
 2720 00e0 0003E000 		.word	14680832
 2721 00e4 080020A3 		.word	-1558183928
 2722 00e8 E0004000 		.word	4194528
 2723              		.cfi_endproc
 2724              	.LFE159:
 2726              		.section	.text.USB_InitFSLSPClkSel,"ax",%progbits
 2727              		.align	1
 2728              		.global	USB_InitFSLSPClkSel
 2729              		.syntax unified
ARM GAS  x:\temp2\cc1gRVhO.s 			page 73


 2730              		.thumb
 2731              		.thumb_func
 2732              		.fpu fpv4-sp-d16
 2734              	USB_InitFSLSPClkSel:
 2735              	.LFB160:
1311:Drivers/STM32F4xx_HAL_Driver/Src/stm32f4xx_ll_usb.c **** 
1312:Drivers/STM32F4xx_HAL_Driver/Src/stm32f4xx_ll_usb.c **** /**
1313:Drivers/STM32F4xx_HAL_Driver/Src/stm32f4xx_ll_usb.c ****   * @brief  USB_InitFSLSPClkSel : Initializes the FSLSPClkSel field of the 
1314:Drivers/STM32F4xx_HAL_Driver/Src/stm32f4xx_ll_usb.c ****   *         HCFG register on the PHY type and set the right frame interval
1315:Drivers/STM32F4xx_HAL_Driver/Src/stm32f4xx_ll_usb.c ****   * @param  USBx  Selected device
1316:Drivers/STM32F4xx_HAL_Driver/Src/stm32f4xx_ll_usb.c ****   * @param  freq  clock frequency
1317:Drivers/STM32F4xx_HAL_Driver/Src/stm32f4xx_ll_usb.c ****   *          This parameter can be one of these values:
1318:Drivers/STM32F4xx_HAL_Driver/Src/stm32f4xx_ll_usb.c ****   *           HCFG_48_MHZ : Full Speed 48 MHz Clock 
1319:Drivers/STM32F4xx_HAL_Driver/Src/stm32f4xx_ll_usb.c ****   *           HCFG_6_MHZ : Low Speed 6 MHz Clock 
1320:Drivers/STM32F4xx_HAL_Driver/Src/stm32f4xx_ll_usb.c ****   * @retval HAL status
1321:Drivers/STM32F4xx_HAL_Driver/Src/stm32f4xx_ll_usb.c ****   */
1322:Drivers/STM32F4xx_HAL_Driver/Src/stm32f4xx_ll_usb.c **** HAL_StatusTypeDef USB_InitFSLSPClkSel(USB_OTG_GlobalTypeDef *USBx , uint8_t freq)
1323:Drivers/STM32F4xx_HAL_Driver/Src/stm32f4xx_ll_usb.c **** {
 2736              		.loc 1 1323 0
 2737              		.cfi_startproc
 2738              		@ args = 0, pretend = 0, frame = 0
 2739              		@ frame_needed = 0, uses_anonymous_args = 0
 2740              		@ link register save eliminated.
 2741              	.LVL224:
 2742 0000 10B4     		push	{r4}
 2743              	.LCFI43:
 2744              		.cfi_def_cfa_offset 4
 2745              		.cfi_offset 4, -4
1324:Drivers/STM32F4xx_HAL_Driver/Src/stm32f4xx_ll_usb.c ****   USBx_HOST->HCFG &= ~(USB_OTG_HCFG_FSLSPCS);
 2746              		.loc 1 1324 0
 2747 0002 00F58064 		add	r4, r0, #1024
 2748 0006 D0F80034 		ldr	r3, [r0, #1024]
 2749 000a 23F00303 		bic	r3, r3, #3
 2750 000e C0F80034 		str	r3, [r0, #1024]
1325:Drivers/STM32F4xx_HAL_Driver/Src/stm32f4xx_ll_usb.c ****   USBx_HOST->HCFG |= (freq & USB_OTG_HCFG_FSLSPCS);
 2751              		.loc 1 1325 0
 2752 0012 D0F80034 		ldr	r3, [r0, #1024]
 2753 0016 01F00302 		and	r2, r1, #3
 2754 001a 1343     		orrs	r3, r3, r2
 2755 001c C0F80034 		str	r3, [r0, #1024]
1326:Drivers/STM32F4xx_HAL_Driver/Src/stm32f4xx_ll_usb.c ****   
1327:Drivers/STM32F4xx_HAL_Driver/Src/stm32f4xx_ll_usb.c ****   if (freq ==  HCFG_48_MHZ)
 2756              		.loc 1 1327 0
 2757 0020 0129     		cmp	r1, #1
 2758 0022 05D0     		beq	.L206
1328:Drivers/STM32F4xx_HAL_Driver/Src/stm32f4xx_ll_usb.c ****   {
1329:Drivers/STM32F4xx_HAL_Driver/Src/stm32f4xx_ll_usb.c ****     USBx_HOST->HFIR = 48000U;
1330:Drivers/STM32F4xx_HAL_Driver/Src/stm32f4xx_ll_usb.c ****   }
1331:Drivers/STM32F4xx_HAL_Driver/Src/stm32f4xx_ll_usb.c ****   else if (freq ==  HCFG_6_MHZ)
 2759              		.loc 1 1331 0
 2760 0024 0229     		cmp	r1, #2
 2761 0026 07D0     		beq	.L207
 2762              	.L204:
1332:Drivers/STM32F4xx_HAL_Driver/Src/stm32f4xx_ll_usb.c ****   {
1333:Drivers/STM32F4xx_HAL_Driver/Src/stm32f4xx_ll_usb.c ****     USBx_HOST->HFIR = 6000U;
1334:Drivers/STM32F4xx_HAL_Driver/Src/stm32f4xx_ll_usb.c ****   } 
1335:Drivers/STM32F4xx_HAL_Driver/Src/stm32f4xx_ll_usb.c ****   return HAL_OK;  
ARM GAS  x:\temp2\cc1gRVhO.s 			page 74


1336:Drivers/STM32F4xx_HAL_Driver/Src/stm32f4xx_ll_usb.c **** }
 2763              		.loc 1 1336 0
 2764 0028 0020     		movs	r0, #0
 2765              	.LVL225:
 2766 002a 5DF8044B 		ldr	r4, [sp], #4
 2767              	.LCFI44:
 2768              		.cfi_remember_state
 2769              		.cfi_restore 4
 2770              		.cfi_def_cfa_offset 0
 2771              	.LVL226:
 2772 002e 7047     		bx	lr
 2773              	.LVL227:
 2774              	.L206:
 2775              	.LCFI45:
 2776              		.cfi_restore_state
1329:Drivers/STM32F4xx_HAL_Driver/Src/stm32f4xx_ll_usb.c ****   }
 2777              		.loc 1 1329 0
 2778 0030 4BF68033 		movw	r3, #48000
 2779 0034 6360     		str	r3, [r4, #4]
 2780 0036 F7E7     		b	.L204
 2781              	.L207:
1333:Drivers/STM32F4xx_HAL_Driver/Src/stm32f4xx_ll_usb.c ****   } 
 2782              		.loc 1 1333 0
 2783 0038 41F27073 		movw	r3, #6000
 2784 003c 6360     		str	r3, [r4, #4]
 2785 003e F3E7     		b	.L204
 2786              		.cfi_endproc
 2787              	.LFE160:
 2789              		.section	.text.USB_ResetPort,"ax",%progbits
 2790              		.align	1
 2791              		.global	USB_ResetPort
 2792              		.syntax unified
 2793              		.thumb
 2794              		.thumb_func
 2795              		.fpu fpv4-sp-d16
 2797              	USB_ResetPort:
 2798              	.LFB161:
1337:Drivers/STM32F4xx_HAL_Driver/Src/stm32f4xx_ll_usb.c **** 
1338:Drivers/STM32F4xx_HAL_Driver/Src/stm32f4xx_ll_usb.c **** /**
1339:Drivers/STM32F4xx_HAL_Driver/Src/stm32f4xx_ll_usb.c **** * @brief  USB_OTG_ResetPort : Reset Host Port
1340:Drivers/STM32F4xx_HAL_Driver/Src/stm32f4xx_ll_usb.c ****   * @param  USBx  Selected device
1341:Drivers/STM32F4xx_HAL_Driver/Src/stm32f4xx_ll_usb.c ****   * @retval HAL status
1342:Drivers/STM32F4xx_HAL_Driver/Src/stm32f4xx_ll_usb.c ****   * @note   (1)The application must wait at least 10 ms
1343:Drivers/STM32F4xx_HAL_Driver/Src/stm32f4xx_ll_usb.c ****   *   before clearing the reset bit.
1344:Drivers/STM32F4xx_HAL_Driver/Src/stm32f4xx_ll_usb.c ****   */
1345:Drivers/STM32F4xx_HAL_Driver/Src/stm32f4xx_ll_usb.c **** HAL_StatusTypeDef USB_ResetPort(USB_OTG_GlobalTypeDef *USBx)
1346:Drivers/STM32F4xx_HAL_Driver/Src/stm32f4xx_ll_usb.c **** {
 2799              		.loc 1 1346 0
 2800              		.cfi_startproc
 2801              		@ args = 0, pretend = 0, frame = 8
 2802              		@ frame_needed = 0, uses_anonymous_args = 0
 2803              	.LVL228:
 2804 0000 10B5     		push	{r4, lr}
 2805              	.LCFI46:
 2806              		.cfi_def_cfa_offset 8
 2807              		.cfi_offset 4, -8
 2808              		.cfi_offset 14, -4
ARM GAS  x:\temp2\cc1gRVhO.s 			page 75


 2809 0002 82B0     		sub	sp, sp, #8
 2810              	.LCFI47:
 2811              		.cfi_def_cfa_offset 16
 2812 0004 0446     		mov	r4, r0
1347:Drivers/STM32F4xx_HAL_Driver/Src/stm32f4xx_ll_usb.c ****   __IO uint32_t hprt0;
1348:Drivers/STM32F4xx_HAL_Driver/Src/stm32f4xx_ll_usb.c ****   
1349:Drivers/STM32F4xx_HAL_Driver/Src/stm32f4xx_ll_usb.c ****   hprt0 = USBx_HPRT0;
 2813              		.loc 1 1349 0
 2814 0006 D0F84034 		ldr	r3, [r0, #1088]
 2815 000a 0193     		str	r3, [sp, #4]
1350:Drivers/STM32F4xx_HAL_Driver/Src/stm32f4xx_ll_usb.c ****   
1351:Drivers/STM32F4xx_HAL_Driver/Src/stm32f4xx_ll_usb.c ****   hprt0 &= ~(USB_OTG_HPRT_PENA    | USB_OTG_HPRT_PCDET |\
 2816              		.loc 1 1351 0
 2817 000c 019B     		ldr	r3, [sp, #4]
 2818 000e 23F02E03 		bic	r3, r3, #46
 2819 0012 0193     		str	r3, [sp, #4]
1352:Drivers/STM32F4xx_HAL_Driver/Src/stm32f4xx_ll_usb.c ****     USB_OTG_HPRT_PENCHNG | USB_OTG_HPRT_POCCHNG );
1353:Drivers/STM32F4xx_HAL_Driver/Src/stm32f4xx_ll_usb.c ****   
1354:Drivers/STM32F4xx_HAL_Driver/Src/stm32f4xx_ll_usb.c ****   USBx_HPRT0 = (USB_OTG_HPRT_PRST | hprt0);  
 2820              		.loc 1 1354 0
 2821 0014 019B     		ldr	r3, [sp, #4]
 2822 0016 43F48073 		orr	r3, r3, #256
 2823 001a C0F84034 		str	r3, [r0, #1088]
1355:Drivers/STM32F4xx_HAL_Driver/Src/stm32f4xx_ll_usb.c ****   HAL_Delay (10U);                                /* See Note #1 */
 2824              		.loc 1 1355 0
 2825 001e 0A20     		movs	r0, #10
 2826              	.LVL229:
 2827 0020 FFF7FEFF 		bl	HAL_Delay
 2828              	.LVL230:
1356:Drivers/STM32F4xx_HAL_Driver/Src/stm32f4xx_ll_usb.c ****   USBx_HPRT0 = ((~USB_OTG_HPRT_PRST) & hprt0); 
 2829              		.loc 1 1356 0
 2830 0024 019B     		ldr	r3, [sp, #4]
 2831 0026 23F48073 		bic	r3, r3, #256
 2832 002a C4F84034 		str	r3, [r4, #1088]
1357:Drivers/STM32F4xx_HAL_Driver/Src/stm32f4xx_ll_usb.c ****   return HAL_OK;
1358:Drivers/STM32F4xx_HAL_Driver/Src/stm32f4xx_ll_usb.c **** }
 2833              		.loc 1 1358 0
 2834 002e 0020     		movs	r0, #0
 2835 0030 02B0     		add	sp, sp, #8
 2836              	.LCFI48:
 2837              		.cfi_def_cfa_offset 8
 2838              		@ sp needed
 2839 0032 10BD     		pop	{r4, pc}
 2840              		.cfi_endproc
 2841              	.LFE161:
 2843              		.section	.text.USB_DriveVbus,"ax",%progbits
 2844              		.align	1
 2845              		.global	USB_DriveVbus
 2846              		.syntax unified
 2847              		.thumb
 2848              		.thumb_func
 2849              		.fpu fpv4-sp-d16
 2851              	USB_DriveVbus:
 2852              	.LFB162:
1359:Drivers/STM32F4xx_HAL_Driver/Src/stm32f4xx_ll_usb.c **** 
1360:Drivers/STM32F4xx_HAL_Driver/Src/stm32f4xx_ll_usb.c **** /**
1361:Drivers/STM32F4xx_HAL_Driver/Src/stm32f4xx_ll_usb.c ****   * @brief  USB_DriveVbus : activate or de-activate vbus
ARM GAS  x:\temp2\cc1gRVhO.s 			page 76


1362:Drivers/STM32F4xx_HAL_Driver/Src/stm32f4xx_ll_usb.c ****   * @param  state  VBUS state
1363:Drivers/STM32F4xx_HAL_Driver/Src/stm32f4xx_ll_usb.c ****   *          This parameter can be one of these values:
1364:Drivers/STM32F4xx_HAL_Driver/Src/stm32f4xx_ll_usb.c ****   *           0 : VBUS Active 
1365:Drivers/STM32F4xx_HAL_Driver/Src/stm32f4xx_ll_usb.c ****   *           1 : VBUS Inactive
1366:Drivers/STM32F4xx_HAL_Driver/Src/stm32f4xx_ll_usb.c ****   * @retval HAL status
1367:Drivers/STM32F4xx_HAL_Driver/Src/stm32f4xx_ll_usb.c **** */
1368:Drivers/STM32F4xx_HAL_Driver/Src/stm32f4xx_ll_usb.c **** HAL_StatusTypeDef USB_DriveVbus (USB_OTG_GlobalTypeDef *USBx, uint8_t state)
1369:Drivers/STM32F4xx_HAL_Driver/Src/stm32f4xx_ll_usb.c **** {
 2853              		.loc 1 1369 0
 2854              		.cfi_startproc
 2855              		@ args = 0, pretend = 0, frame = 8
 2856              		@ frame_needed = 0, uses_anonymous_args = 0
 2857              		@ link register save eliminated.
 2858              	.LVL231:
 2859 0000 82B0     		sub	sp, sp, #8
 2860              	.LCFI49:
 2861              		.cfi_def_cfa_offset 8
1370:Drivers/STM32F4xx_HAL_Driver/Src/stm32f4xx_ll_usb.c ****   __IO uint32_t hprt0;
1371:Drivers/STM32F4xx_HAL_Driver/Src/stm32f4xx_ll_usb.c **** 
1372:Drivers/STM32F4xx_HAL_Driver/Src/stm32f4xx_ll_usb.c ****   hprt0 = USBx_HPRT0;
 2862              		.loc 1 1372 0
 2863 0002 D0F84034 		ldr	r3, [r0, #1088]
 2864 0006 0193     		str	r3, [sp, #4]
1373:Drivers/STM32F4xx_HAL_Driver/Src/stm32f4xx_ll_usb.c ****   hprt0 &= ~(USB_OTG_HPRT_PENA    | USB_OTG_HPRT_PCDET |\
 2865              		.loc 1 1373 0
 2866 0008 019B     		ldr	r3, [sp, #4]
 2867 000a 23F02E03 		bic	r3, r3, #46
 2868 000e 0193     		str	r3, [sp, #4]
1374:Drivers/STM32F4xx_HAL_Driver/Src/stm32f4xx_ll_usb.c ****                          USB_OTG_HPRT_PENCHNG | USB_OTG_HPRT_POCCHNG );
1375:Drivers/STM32F4xx_HAL_Driver/Src/stm32f4xx_ll_usb.c ****   
1376:Drivers/STM32F4xx_HAL_Driver/Src/stm32f4xx_ll_usb.c ****   if (((hprt0 & USB_OTG_HPRT_PPWR) == 0U) && (state == 1U))
 2869              		.loc 1 1376 0
 2870 0010 019B     		ldr	r3, [sp, #4]
 2871 0012 13F4805F 		tst	r3, #4096
 2872 0016 01D1     		bne	.L211
 2873              		.loc 1 1376 0 is_stmt 0 discriminator 1
 2874 0018 0129     		cmp	r1, #1
 2875 001a 0CD0     		beq	.L214
 2876              	.L211:
1377:Drivers/STM32F4xx_HAL_Driver/Src/stm32f4xx_ll_usb.c ****   {
1378:Drivers/STM32F4xx_HAL_Driver/Src/stm32f4xx_ll_usb.c ****     USBx_HPRT0 = (USB_OTG_HPRT_PPWR | hprt0); 
1379:Drivers/STM32F4xx_HAL_Driver/Src/stm32f4xx_ll_usb.c ****   }
1380:Drivers/STM32F4xx_HAL_Driver/Src/stm32f4xx_ll_usb.c ****   if (((hprt0 & USB_OTG_HPRT_PPWR) == USB_OTG_HPRT_PPWR) && (state == 0U))
 2877              		.loc 1 1380 0 is_stmt 1
 2878 001c 019B     		ldr	r3, [sp, #4]
 2879 001e 13F4805F 		tst	r3, #4096
 2880 0022 05D0     		beq	.L212
 2881              		.loc 1 1380 0 is_stmt 0 discriminator 1
 2882 0024 21B9     		cbnz	r1, .L212
1381:Drivers/STM32F4xx_HAL_Driver/Src/stm32f4xx_ll_usb.c ****   {
1382:Drivers/STM32F4xx_HAL_Driver/Src/stm32f4xx_ll_usb.c ****     USBx_HPRT0 = ((~USB_OTG_HPRT_PPWR) & hprt0); 
 2883              		.loc 1 1382 0 is_stmt 1
 2884 0026 019B     		ldr	r3, [sp, #4]
 2885 0028 23F48053 		bic	r3, r3, #4096
 2886 002c C0F84034 		str	r3, [r0, #1088]
 2887              	.L212:
1383:Drivers/STM32F4xx_HAL_Driver/Src/stm32f4xx_ll_usb.c ****   }
ARM GAS  x:\temp2\cc1gRVhO.s 			page 77


1384:Drivers/STM32F4xx_HAL_Driver/Src/stm32f4xx_ll_usb.c ****   return HAL_OK; 
1385:Drivers/STM32F4xx_HAL_Driver/Src/stm32f4xx_ll_usb.c **** }
 2888              		.loc 1 1385 0
 2889 0030 0020     		movs	r0, #0
 2890              	.LVL232:
 2891 0032 02B0     		add	sp, sp, #8
 2892              	.LCFI50:
 2893              		.cfi_remember_state
 2894              		.cfi_def_cfa_offset 0
 2895              		@ sp needed
 2896 0034 7047     		bx	lr
 2897              	.LVL233:
 2898              	.L214:
 2899              	.LCFI51:
 2900              		.cfi_restore_state
1378:Drivers/STM32F4xx_HAL_Driver/Src/stm32f4xx_ll_usb.c ****   }
 2901              		.loc 1 1378 0
 2902 0036 019B     		ldr	r3, [sp, #4]
 2903 0038 43F48053 		orr	r3, r3, #4096
 2904 003c C0F84034 		str	r3, [r0, #1088]
 2905 0040 ECE7     		b	.L211
 2906              		.cfi_endproc
 2907              	.LFE162:
 2909              		.section	.text.USB_GetHostSpeed,"ax",%progbits
 2910              		.align	1
 2911              		.global	USB_GetHostSpeed
 2912              		.syntax unified
 2913              		.thumb
 2914              		.thumb_func
 2915              		.fpu fpv4-sp-d16
 2917              	USB_GetHostSpeed:
 2918              	.LFB163:
1386:Drivers/STM32F4xx_HAL_Driver/Src/stm32f4xx_ll_usb.c **** 
1387:Drivers/STM32F4xx_HAL_Driver/Src/stm32f4xx_ll_usb.c **** /**
1388:Drivers/STM32F4xx_HAL_Driver/Src/stm32f4xx_ll_usb.c ****   * @brief  Return Host Core speed
1389:Drivers/STM32F4xx_HAL_Driver/Src/stm32f4xx_ll_usb.c ****   * @param  USBx  Selected device
1390:Drivers/STM32F4xx_HAL_Driver/Src/stm32f4xx_ll_usb.c ****   * @retval speed : Host speed
1391:Drivers/STM32F4xx_HAL_Driver/Src/stm32f4xx_ll_usb.c ****   *          This parameter can be one of these values:
1392:Drivers/STM32F4xx_HAL_Driver/Src/stm32f4xx_ll_usb.c ****   *            @arg USB_OTG_SPEED_HIGH: High speed mode
1393:Drivers/STM32F4xx_HAL_Driver/Src/stm32f4xx_ll_usb.c ****   *            @arg USB_OTG_SPEED_FULL: Full speed mode
1394:Drivers/STM32F4xx_HAL_Driver/Src/stm32f4xx_ll_usb.c ****   *            @arg USB_OTG_SPEED_LOW: Low speed mode
1395:Drivers/STM32F4xx_HAL_Driver/Src/stm32f4xx_ll_usb.c ****   */
1396:Drivers/STM32F4xx_HAL_Driver/Src/stm32f4xx_ll_usb.c **** uint32_t USB_GetHostSpeed (USB_OTG_GlobalTypeDef *USBx)
1397:Drivers/STM32F4xx_HAL_Driver/Src/stm32f4xx_ll_usb.c **** {
 2919              		.loc 1 1397 0
 2920              		.cfi_startproc
 2921              		@ args = 0, pretend = 0, frame = 8
 2922              		@ frame_needed = 0, uses_anonymous_args = 0
 2923              		@ link register save eliminated.
 2924              	.LVL234:
 2925 0000 82B0     		sub	sp, sp, #8
 2926              	.LCFI52:
 2927              		.cfi_def_cfa_offset 8
1398:Drivers/STM32F4xx_HAL_Driver/Src/stm32f4xx_ll_usb.c ****   __IO uint32_t hprt0;
1399:Drivers/STM32F4xx_HAL_Driver/Src/stm32f4xx_ll_usb.c ****   
1400:Drivers/STM32F4xx_HAL_Driver/Src/stm32f4xx_ll_usb.c ****   hprt0 = USBx_HPRT0;
 2928              		.loc 1 1400 0
ARM GAS  x:\temp2\cc1gRVhO.s 			page 78


 2929 0002 D0F84034 		ldr	r3, [r0, #1088]
 2930 0006 0193     		str	r3, [sp, #4]
1401:Drivers/STM32F4xx_HAL_Driver/Src/stm32f4xx_ll_usb.c ****   return ((hprt0 & USB_OTG_HPRT_PSPD) >> 17U);
 2931              		.loc 1 1401 0
 2932 0008 0198     		ldr	r0, [sp, #4]
 2933              	.LVL235:
1402:Drivers/STM32F4xx_HAL_Driver/Src/stm32f4xx_ll_usb.c **** }
 2934              		.loc 1 1402 0
 2935 000a C0F34140 		ubfx	r0, r0, #17, #2
 2936 000e 02B0     		add	sp, sp, #8
 2937              	.LCFI53:
 2938              		.cfi_def_cfa_offset 0
 2939              		@ sp needed
 2940 0010 7047     		bx	lr
 2941              		.cfi_endproc
 2942              	.LFE163:
 2944              		.section	.text.USB_GetCurrentFrame,"ax",%progbits
 2945              		.align	1
 2946              		.global	USB_GetCurrentFrame
 2947              		.syntax unified
 2948              		.thumb
 2949              		.thumb_func
 2950              		.fpu fpv4-sp-d16
 2952              	USB_GetCurrentFrame:
 2953              	.LFB164:
1403:Drivers/STM32F4xx_HAL_Driver/Src/stm32f4xx_ll_usb.c **** 
1404:Drivers/STM32F4xx_HAL_Driver/Src/stm32f4xx_ll_usb.c **** /**
1405:Drivers/STM32F4xx_HAL_Driver/Src/stm32f4xx_ll_usb.c ****   * @brief  Return Host Current Frame number
