ARM GAS  x:\temp2\ccqe4sF7.s 			page 1


   1              		.cpu cortex-m4
   2              		.eabi_attribute 27, 1
   3              		.eabi_attribute 28, 1
   4              		.eabi_attribute 20, 1
   5              		.eabi_attribute 21, 1
   6              		.eabi_attribute 23, 3
   7              		.eabi_attribute 24, 1
   8              		.eabi_attribute 25, 1
   9              		.eabi_attribute 26, 1
  10              		.eabi_attribute 30, 1
  11              		.eabi_attribute 34, 1
  12              		.eabi_attribute 18, 4
  13              		.file	"stm32f4xx_hal_pcd.c"
  14              		.text
  15              	.Ltext0:
  16              		.cfi_sections	.debug_frame
  17              		.section	.text.PCD_WriteEmptyTxFifo,"ax",%progbits
  18              		.align	1
  19              		.syntax unified
  20              		.thumb
  21              		.thumb_func
  22              		.fpu fpv4-sp-d16
  24              	PCD_WriteEmptyTxFifo:
  25              	.LFB158:
  26              		.file 1 "Drivers/STM32F4xx_HAL_Driver/Src/stm32f4xx_hal_pcd.c"
   1:Drivers/STM32F4xx_HAL_Driver/Src/stm32f4xx_hal_pcd.c **** /**
   2:Drivers/STM32F4xx_HAL_Driver/Src/stm32f4xx_hal_pcd.c ****   ******************************************************************************
   3:Drivers/STM32F4xx_HAL_Driver/Src/stm32f4xx_hal_pcd.c ****   * @file    stm32f4xx_hal_pcd.c
   4:Drivers/STM32F4xx_HAL_Driver/Src/stm32f4xx_hal_pcd.c ****   * @author  MCD Application Team
   5:Drivers/STM32F4xx_HAL_Driver/Src/stm32f4xx_hal_pcd.c ****   * @brief   PCD HAL module driver.
   6:Drivers/STM32F4xx_HAL_Driver/Src/stm32f4xx_hal_pcd.c ****   *          This file provides firmware functions to manage the following 
   7:Drivers/STM32F4xx_HAL_Driver/Src/stm32f4xx_hal_pcd.c ****   *          functionalities of the USB Peripheral Controller:
   8:Drivers/STM32F4xx_HAL_Driver/Src/stm32f4xx_hal_pcd.c ****   *           + Initialization and de-initialization functions
   9:Drivers/STM32F4xx_HAL_Driver/Src/stm32f4xx_hal_pcd.c ****   *           + IO operation functions
  10:Drivers/STM32F4xx_HAL_Driver/Src/stm32f4xx_hal_pcd.c ****   *           + Peripheral Control functions 
  11:Drivers/STM32F4xx_HAL_Driver/Src/stm32f4xx_hal_pcd.c ****   *           + Peripheral State functions
  12:Drivers/STM32F4xx_HAL_Driver/Src/stm32f4xx_hal_pcd.c ****   *         
  13:Drivers/STM32F4xx_HAL_Driver/Src/stm32f4xx_hal_pcd.c ****   @verbatim
  14:Drivers/STM32F4xx_HAL_Driver/Src/stm32f4xx_hal_pcd.c ****   ==============================================================================
  15:Drivers/STM32F4xx_HAL_Driver/Src/stm32f4xx_hal_pcd.c ****                     ##### How to use this driver #####
  16:Drivers/STM32F4xx_HAL_Driver/Src/stm32f4xx_hal_pcd.c ****   ==============================================================================
  17:Drivers/STM32F4xx_HAL_Driver/Src/stm32f4xx_hal_pcd.c ****     [..]
  18:Drivers/STM32F4xx_HAL_Driver/Src/stm32f4xx_hal_pcd.c ****       The PCD HAL driver can be used as follows:
  19:Drivers/STM32F4xx_HAL_Driver/Src/stm32f4xx_hal_pcd.c **** 
  20:Drivers/STM32F4xx_HAL_Driver/Src/stm32f4xx_hal_pcd.c ****      (#) Declare a PCD_HandleTypeDef handle structure, for example:
  21:Drivers/STM32F4xx_HAL_Driver/Src/stm32f4xx_hal_pcd.c ****          PCD_HandleTypeDef  hpcd;
  22:Drivers/STM32F4xx_HAL_Driver/Src/stm32f4xx_hal_pcd.c ****         
  23:Drivers/STM32F4xx_HAL_Driver/Src/stm32f4xx_hal_pcd.c ****      (#) Fill parameters of Init structure in HCD handle
  24:Drivers/STM32F4xx_HAL_Driver/Src/stm32f4xx_hal_pcd.c ****   
  25:Drivers/STM32F4xx_HAL_Driver/Src/stm32f4xx_hal_pcd.c ****      (#) Call HAL_PCD_Init() API to initialize the PCD peripheral (Core, Device core, ...) 
  26:Drivers/STM32F4xx_HAL_Driver/Src/stm32f4xx_hal_pcd.c **** 
  27:Drivers/STM32F4xx_HAL_Driver/Src/stm32f4xx_hal_pcd.c ****      (#) Initialize the PCD low level resources through the HAL_PCD_MspInit() API:
  28:Drivers/STM32F4xx_HAL_Driver/Src/stm32f4xx_hal_pcd.c ****          (##) Enable the PCD/USB Low Level interface clock using 
  29:Drivers/STM32F4xx_HAL_Driver/Src/stm32f4xx_hal_pcd.c ****               (+++) __HAL_RCC_USB_OTG_FS_CLK_ENABLE();
  30:Drivers/STM32F4xx_HAL_Driver/Src/stm32f4xx_hal_pcd.c ****               (+++) __HAL_RCC_USB_OTG_HS_CLK_ENABLE(); (For High Speed Mode)
  31:Drivers/STM32F4xx_HAL_Driver/Src/stm32f4xx_hal_pcd.c ****            
  32:Drivers/STM32F4xx_HAL_Driver/Src/stm32f4xx_hal_pcd.c ****          (##) Initialize the related GPIO clocks
ARM GAS  x:\temp2\ccqe4sF7.s 			page 2


  33:Drivers/STM32F4xx_HAL_Driver/Src/stm32f4xx_hal_pcd.c ****          (##) Configure PCD pin-out
  34:Drivers/STM32F4xx_HAL_Driver/Src/stm32f4xx_hal_pcd.c ****          (##) Configure PCD NVIC interrupt
  35:Drivers/STM32F4xx_HAL_Driver/Src/stm32f4xx_hal_pcd.c ****     
  36:Drivers/STM32F4xx_HAL_Driver/Src/stm32f4xx_hal_pcd.c ****      (#)Associate the Upper USB device stack to the HAL PCD Driver:
  37:Drivers/STM32F4xx_HAL_Driver/Src/stm32f4xx_hal_pcd.c ****          (##) hpcd.pData = pdev;
  38:Drivers/STM32F4xx_HAL_Driver/Src/stm32f4xx_hal_pcd.c **** 
  39:Drivers/STM32F4xx_HAL_Driver/Src/stm32f4xx_hal_pcd.c ****      (#)Enable PCD transmission and reception:
  40:Drivers/STM32F4xx_HAL_Driver/Src/stm32f4xx_hal_pcd.c ****          (##) HAL_PCD_Start();
  41:Drivers/STM32F4xx_HAL_Driver/Src/stm32f4xx_hal_pcd.c **** 
  42:Drivers/STM32F4xx_HAL_Driver/Src/stm32f4xx_hal_pcd.c ****   @endverbatim
  43:Drivers/STM32F4xx_HAL_Driver/Src/stm32f4xx_hal_pcd.c ****   ******************************************************************************
  44:Drivers/STM32F4xx_HAL_Driver/Src/stm32f4xx_hal_pcd.c ****   * @attention
  45:Drivers/STM32F4xx_HAL_Driver/Src/stm32f4xx_hal_pcd.c ****   *
  46:Drivers/STM32F4xx_HAL_Driver/Src/stm32f4xx_hal_pcd.c ****   * <h2><center>&copy; COPYRIGHT(c) 2017 STMicroelectronics</center></h2>
  47:Drivers/STM32F4xx_HAL_Driver/Src/stm32f4xx_hal_pcd.c ****   *
  48:Drivers/STM32F4xx_HAL_Driver/Src/stm32f4xx_hal_pcd.c ****   * Redistribution and use in source and binary forms, with or without modification,
  49:Drivers/STM32F4xx_HAL_Driver/Src/stm32f4xx_hal_pcd.c ****   * are permitted provided that the following conditions are met:
  50:Drivers/STM32F4xx_HAL_Driver/Src/stm32f4xx_hal_pcd.c ****   *   1. Redistributions of source code must retain the above copyright notice,
  51:Drivers/STM32F4xx_HAL_Driver/Src/stm32f4xx_hal_pcd.c ****   *      this list of conditions and the following disclaimer.
  52:Drivers/STM32F4xx_HAL_Driver/Src/stm32f4xx_hal_pcd.c ****   *   2. Redistributions in binary form must reproduce the above copyright notice,
  53:Drivers/STM32F4xx_HAL_Driver/Src/stm32f4xx_hal_pcd.c ****   *      this list of conditions and the following disclaimer in the documentation
  54:Drivers/STM32F4xx_HAL_Driver/Src/stm32f4xx_hal_pcd.c ****   *      and/or other materials provided with the distribution.
  55:Drivers/STM32F4xx_HAL_Driver/Src/stm32f4xx_hal_pcd.c ****   *   3. Neither the name of STMicroelectronics nor the names of its contributors
  56:Drivers/STM32F4xx_HAL_Driver/Src/stm32f4xx_hal_pcd.c ****   *      may be used to endorse or promote products derived from this software
  57:Drivers/STM32F4xx_HAL_Driver/Src/stm32f4xx_hal_pcd.c ****   *      without specific prior written permission.
  58:Drivers/STM32F4xx_HAL_Driver/Src/stm32f4xx_hal_pcd.c ****   *
  59:Drivers/STM32F4xx_HAL_Driver/Src/stm32f4xx_hal_pcd.c ****   * THIS SOFTWARE IS PROVIDED BY THE COPYRIGHT HOLDERS AND CONTRIBUTORS "AS IS"
  60:Drivers/STM32F4xx_HAL_Driver/Src/stm32f4xx_hal_pcd.c ****   * AND ANY EXPRESS OR IMPLIED WARRANTIES, INCLUDING, BUT NOT LIMITED TO, THE
  61:Drivers/STM32F4xx_HAL_Driver/Src/stm32f4xx_hal_pcd.c ****   * IMPLIED WARRANTIES OF MERCHANTABILITY AND FITNESS FOR A PARTICULAR PURPOSE ARE
  62:Drivers/STM32F4xx_HAL_Driver/Src/stm32f4xx_hal_pcd.c ****   * DISCLAIMED. IN NO EVENT SHALL THE COPYRIGHT HOLDER OR CONTRIBUTORS BE LIABLE
  63:Drivers/STM32F4xx_HAL_Driver/Src/stm32f4xx_hal_pcd.c ****   * FOR ANY DIRECT, INDIRECT, INCIDENTAL, SPECIAL, EXEMPLARY, OR CONSEQUENTIAL
  64:Drivers/STM32F4xx_HAL_Driver/Src/stm32f4xx_hal_pcd.c ****   * DAMAGES (INCLUDING, BUT NOT LIMITED TO, PROCUREMENT OF SUBSTITUTE GOODS OR
  65:Drivers/STM32F4xx_HAL_Driver/Src/stm32f4xx_hal_pcd.c ****   * SERVICES; LOSS OF USE, DATA, OR PROFITS; OR BUSINESS INTERRUPTION) HOWEVER
  66:Drivers/STM32F4xx_HAL_Driver/Src/stm32f4xx_hal_pcd.c ****   * CAUSED AND ON ANY THEORY OF LIABILITY, WHETHER IN CONTRACT, STRICT LIABILITY,
  67:Drivers/STM32F4xx_HAL_Driver/Src/stm32f4xx_hal_pcd.c ****   * OR TORT (INCLUDING NEGLIGENCE OR OTHERWISE) ARISING IN ANY WAY OUT OF THE USE
  68:Drivers/STM32F4xx_HAL_Driver/Src/stm32f4xx_hal_pcd.c ****   * OF THIS SOFTWARE, EVEN IF ADVISED OF THE POSSIBILITY OF SUCH DAMAGE.
  69:Drivers/STM32F4xx_HAL_Driver/Src/stm32f4xx_hal_pcd.c ****   *
  70:Drivers/STM32F4xx_HAL_Driver/Src/stm32f4xx_hal_pcd.c ****   ******************************************************************************
  71:Drivers/STM32F4xx_HAL_Driver/Src/stm32f4xx_hal_pcd.c ****   */ 
  72:Drivers/STM32F4xx_HAL_Driver/Src/stm32f4xx_hal_pcd.c **** 
  73:Drivers/STM32F4xx_HAL_Driver/Src/stm32f4xx_hal_pcd.c **** /* Includes ------------------------------------------------------------------*/
  74:Drivers/STM32F4xx_HAL_Driver/Src/stm32f4xx_hal_pcd.c **** #include "stm32f4xx_hal.h"
  75:Drivers/STM32F4xx_HAL_Driver/Src/stm32f4xx_hal_pcd.c **** 
  76:Drivers/STM32F4xx_HAL_Driver/Src/stm32f4xx_hal_pcd.c **** /** @addtogroup STM32F4xx_HAL_Driver
  77:Drivers/STM32F4xx_HAL_Driver/Src/stm32f4xx_hal_pcd.c ****   * @{
  78:Drivers/STM32F4xx_HAL_Driver/Src/stm32f4xx_hal_pcd.c ****   */
  79:Drivers/STM32F4xx_HAL_Driver/Src/stm32f4xx_hal_pcd.c **** 
  80:Drivers/STM32F4xx_HAL_Driver/Src/stm32f4xx_hal_pcd.c **** /** @defgroup PCD PCD
  81:Drivers/STM32F4xx_HAL_Driver/Src/stm32f4xx_hal_pcd.c ****   * @brief PCD HAL module driver
  82:Drivers/STM32F4xx_HAL_Driver/Src/stm32f4xx_hal_pcd.c ****   * @{
  83:Drivers/STM32F4xx_HAL_Driver/Src/stm32f4xx_hal_pcd.c ****   */
  84:Drivers/STM32F4xx_HAL_Driver/Src/stm32f4xx_hal_pcd.c **** 
  85:Drivers/STM32F4xx_HAL_Driver/Src/stm32f4xx_hal_pcd.c **** #ifdef HAL_PCD_MODULE_ENABLED
  86:Drivers/STM32F4xx_HAL_Driver/Src/stm32f4xx_hal_pcd.c **** #if defined(STM32F405xx) || defined(STM32F415xx) || defined(STM32F407xx) || defined(STM32F417xx) ||
  87:Drivers/STM32F4xx_HAL_Driver/Src/stm32f4xx_hal_pcd.c ****     defined(STM32F427xx) || defined(STM32F437xx) || defined(STM32F429xx) || defined(STM32F439xx) ||
  88:Drivers/STM32F4xx_HAL_Driver/Src/stm32f4xx_hal_pcd.c ****     defined(STM32F401xC) || defined(STM32F401xE) || defined(STM32F411xE) || defined(STM32F446xx) ||
  89:Drivers/STM32F4xx_HAL_Driver/Src/stm32f4xx_hal_pcd.c ****     defined(STM32F469xx) || defined(STM32F479xx) || defined(STM32F412Zx) || defined(STM32F412Vx) ||
ARM GAS  x:\temp2\ccqe4sF7.s 			page 3


  90:Drivers/STM32F4xx_HAL_Driver/Src/stm32f4xx_hal_pcd.c ****     defined(STM32F412Rx) || defined(STM32F412Cx) || defined(STM32F413xx) || defined(STM32F423xx)
  91:Drivers/STM32F4xx_HAL_Driver/Src/stm32f4xx_hal_pcd.c **** /* Private types -------------------------------------------------------------*/
  92:Drivers/STM32F4xx_HAL_Driver/Src/stm32f4xx_hal_pcd.c **** /* Private variables ---------------------------------------------------------*/
  93:Drivers/STM32F4xx_HAL_Driver/Src/stm32f4xx_hal_pcd.c **** /* Private constants ---------------------------------------------------------*/
  94:Drivers/STM32F4xx_HAL_Driver/Src/stm32f4xx_hal_pcd.c **** /* Private macros ------------------------------------------------------------*/
  95:Drivers/STM32F4xx_HAL_Driver/Src/stm32f4xx_hal_pcd.c **** /** @defgroup PCD_Private_Macros PCD Private Macros
  96:Drivers/STM32F4xx_HAL_Driver/Src/stm32f4xx_hal_pcd.c ****   * @{
  97:Drivers/STM32F4xx_HAL_Driver/Src/stm32f4xx_hal_pcd.c ****   */ 
  98:Drivers/STM32F4xx_HAL_Driver/Src/stm32f4xx_hal_pcd.c **** #define PCD_MIN(a, b)  (((a) < (b)) ? (a) : (b))
  99:Drivers/STM32F4xx_HAL_Driver/Src/stm32f4xx_hal_pcd.c **** #define PCD_MAX(a, b)  (((a) > (b)) ? (a) : (b))
 100:Drivers/STM32F4xx_HAL_Driver/Src/stm32f4xx_hal_pcd.c **** /**
 101:Drivers/STM32F4xx_HAL_Driver/Src/stm32f4xx_hal_pcd.c ****   * @}
 102:Drivers/STM32F4xx_HAL_Driver/Src/stm32f4xx_hal_pcd.c ****   */
 103:Drivers/STM32F4xx_HAL_Driver/Src/stm32f4xx_hal_pcd.c **** 
 104:Drivers/STM32F4xx_HAL_Driver/Src/stm32f4xx_hal_pcd.c **** /* Private functions prototypes ----------------------------------------------*/
 105:Drivers/STM32F4xx_HAL_Driver/Src/stm32f4xx_hal_pcd.c **** /** @defgroup PCD_Private_Functions PCD Private Functions
 106:Drivers/STM32F4xx_HAL_Driver/Src/stm32f4xx_hal_pcd.c ****   * @{
 107:Drivers/STM32F4xx_HAL_Driver/Src/stm32f4xx_hal_pcd.c ****   */
 108:Drivers/STM32F4xx_HAL_Driver/Src/stm32f4xx_hal_pcd.c **** static HAL_StatusTypeDef PCD_WriteEmptyTxFifo(PCD_HandleTypeDef *hpcd, uint32_t epnum);
 109:Drivers/STM32F4xx_HAL_Driver/Src/stm32f4xx_hal_pcd.c **** /**
 110:Drivers/STM32F4xx_HAL_Driver/Src/stm32f4xx_hal_pcd.c ****   * @}
 111:Drivers/STM32F4xx_HAL_Driver/Src/stm32f4xx_hal_pcd.c ****   */
 112:Drivers/STM32F4xx_HAL_Driver/Src/stm32f4xx_hal_pcd.c **** 
 113:Drivers/STM32F4xx_HAL_Driver/Src/stm32f4xx_hal_pcd.c **** /* Exported functions --------------------------------------------------------*/
 114:Drivers/STM32F4xx_HAL_Driver/Src/stm32f4xx_hal_pcd.c **** /** @defgroup PCD_Exported_Functions PCD Exported Functions
 115:Drivers/STM32F4xx_HAL_Driver/Src/stm32f4xx_hal_pcd.c ****   * @{
 116:Drivers/STM32F4xx_HAL_Driver/Src/stm32f4xx_hal_pcd.c ****   */
 117:Drivers/STM32F4xx_HAL_Driver/Src/stm32f4xx_hal_pcd.c **** 
 118:Drivers/STM32F4xx_HAL_Driver/Src/stm32f4xx_hal_pcd.c **** /** @defgroup PCD_Exported_Functions_Group1 Initialization and de-initialization functions 
 119:Drivers/STM32F4xx_HAL_Driver/Src/stm32f4xx_hal_pcd.c ****  *  @brief    Initialization and Configuration functions 
 120:Drivers/STM32F4xx_HAL_Driver/Src/stm32f4xx_hal_pcd.c ****  *
 121:Drivers/STM32F4xx_HAL_Driver/Src/stm32f4xx_hal_pcd.c **** @verbatim 
 122:Drivers/STM32F4xx_HAL_Driver/Src/stm32f4xx_hal_pcd.c ****  ===============================================================================
 123:Drivers/STM32F4xx_HAL_Driver/Src/stm32f4xx_hal_pcd.c ****             ##### Initialization and de-initialization functions #####
 124:Drivers/STM32F4xx_HAL_Driver/Src/stm32f4xx_hal_pcd.c ****  ===============================================================================
 125:Drivers/STM32F4xx_HAL_Driver/Src/stm32f4xx_hal_pcd.c ****     [..]  This section provides functions allowing to:
 126:Drivers/STM32F4xx_HAL_Driver/Src/stm32f4xx_hal_pcd.c ****  
 127:Drivers/STM32F4xx_HAL_Driver/Src/stm32f4xx_hal_pcd.c **** @endverbatim
 128:Drivers/STM32F4xx_HAL_Driver/Src/stm32f4xx_hal_pcd.c ****   * @{
 129:Drivers/STM32F4xx_HAL_Driver/Src/stm32f4xx_hal_pcd.c ****   */
 130:Drivers/STM32F4xx_HAL_Driver/Src/stm32f4xx_hal_pcd.c **** 
 131:Drivers/STM32F4xx_HAL_Driver/Src/stm32f4xx_hal_pcd.c **** /**
 132:Drivers/STM32F4xx_HAL_Driver/Src/stm32f4xx_hal_pcd.c ****   * @brief  Initializes the PCD according to the specified
 133:Drivers/STM32F4xx_HAL_Driver/Src/stm32f4xx_hal_pcd.c ****   *         parameters in the PCD_InitTypeDef and initialize the associated handle.
 134:Drivers/STM32F4xx_HAL_Driver/Src/stm32f4xx_hal_pcd.c ****   * @param  hpcd PCD handle
 135:Drivers/STM32F4xx_HAL_Driver/Src/stm32f4xx_hal_pcd.c ****   * @retval HAL status
 136:Drivers/STM32F4xx_HAL_Driver/Src/stm32f4xx_hal_pcd.c ****   */
 137:Drivers/STM32F4xx_HAL_Driver/Src/stm32f4xx_hal_pcd.c **** HAL_StatusTypeDef HAL_PCD_Init(PCD_HandleTypeDef *hpcd)
 138:Drivers/STM32F4xx_HAL_Driver/Src/stm32f4xx_hal_pcd.c **** { 
 139:Drivers/STM32F4xx_HAL_Driver/Src/stm32f4xx_hal_pcd.c ****   uint32_t i = 0U;
 140:Drivers/STM32F4xx_HAL_Driver/Src/stm32f4xx_hal_pcd.c ****   
 141:Drivers/STM32F4xx_HAL_Driver/Src/stm32f4xx_hal_pcd.c ****   /* Check the PCD handle allocation */
 142:Drivers/STM32F4xx_HAL_Driver/Src/stm32f4xx_hal_pcd.c ****   if(hpcd == NULL)
 143:Drivers/STM32F4xx_HAL_Driver/Src/stm32f4xx_hal_pcd.c ****   {
 144:Drivers/STM32F4xx_HAL_Driver/Src/stm32f4xx_hal_pcd.c ****     return HAL_ERROR;
 145:Drivers/STM32F4xx_HAL_Driver/Src/stm32f4xx_hal_pcd.c ****   }
 146:Drivers/STM32F4xx_HAL_Driver/Src/stm32f4xx_hal_pcd.c ****   
ARM GAS  x:\temp2\ccqe4sF7.s 			page 4


 147:Drivers/STM32F4xx_HAL_Driver/Src/stm32f4xx_hal_pcd.c ****   /* Check the parameters */
 148:Drivers/STM32F4xx_HAL_Driver/Src/stm32f4xx_hal_pcd.c ****   assert_param(IS_PCD_ALL_INSTANCE(hpcd->Instance));
 149:Drivers/STM32F4xx_HAL_Driver/Src/stm32f4xx_hal_pcd.c **** 
 150:Drivers/STM32F4xx_HAL_Driver/Src/stm32f4xx_hal_pcd.c ****   hpcd->State = HAL_PCD_STATE_BUSY;
 151:Drivers/STM32F4xx_HAL_Driver/Src/stm32f4xx_hal_pcd.c ****   
 152:Drivers/STM32F4xx_HAL_Driver/Src/stm32f4xx_hal_pcd.c ****   /* Init the low level hardware : GPIO, CLOCK, NVIC... */
 153:Drivers/STM32F4xx_HAL_Driver/Src/stm32f4xx_hal_pcd.c ****   HAL_PCD_MspInit(hpcd);
 154:Drivers/STM32F4xx_HAL_Driver/Src/stm32f4xx_hal_pcd.c **** 
 155:Drivers/STM32F4xx_HAL_Driver/Src/stm32f4xx_hal_pcd.c ****   /* Disable the Interrupts */
 156:Drivers/STM32F4xx_HAL_Driver/Src/stm32f4xx_hal_pcd.c ****  __HAL_PCD_DISABLE(hpcd);
 157:Drivers/STM32F4xx_HAL_Driver/Src/stm32f4xx_hal_pcd.c ****  
 158:Drivers/STM32F4xx_HAL_Driver/Src/stm32f4xx_hal_pcd.c ****  /*Init the Core (common init.) */
 159:Drivers/STM32F4xx_HAL_Driver/Src/stm32f4xx_hal_pcd.c ****  USB_CoreInit(hpcd->Instance, hpcd->Init);
 160:Drivers/STM32F4xx_HAL_Driver/Src/stm32f4xx_hal_pcd.c ****  
 161:Drivers/STM32F4xx_HAL_Driver/Src/stm32f4xx_hal_pcd.c ****  /* Force Device Mode*/
 162:Drivers/STM32F4xx_HAL_Driver/Src/stm32f4xx_hal_pcd.c ****  USB_SetCurrentMode(hpcd->Instance , USB_OTG_DEVICE_MODE);
 163:Drivers/STM32F4xx_HAL_Driver/Src/stm32f4xx_hal_pcd.c ****  
 164:Drivers/STM32F4xx_HAL_Driver/Src/stm32f4xx_hal_pcd.c ****  /* Init endpoints structures */
 165:Drivers/STM32F4xx_HAL_Driver/Src/stm32f4xx_hal_pcd.c ****  for (i = 0U; i < 15U; i++)
 166:Drivers/STM32F4xx_HAL_Driver/Src/stm32f4xx_hal_pcd.c ****  {
 167:Drivers/STM32F4xx_HAL_Driver/Src/stm32f4xx_hal_pcd.c ****    /* Init ep structure */
 168:Drivers/STM32F4xx_HAL_Driver/Src/stm32f4xx_hal_pcd.c ****    hpcd->IN_ep[i].is_in = 1U;
 169:Drivers/STM32F4xx_HAL_Driver/Src/stm32f4xx_hal_pcd.c ****    hpcd->IN_ep[i].num = i;
 170:Drivers/STM32F4xx_HAL_Driver/Src/stm32f4xx_hal_pcd.c ****    hpcd->IN_ep[i].tx_fifo_num = i;
 171:Drivers/STM32F4xx_HAL_Driver/Src/stm32f4xx_hal_pcd.c ****    /* Control until ep is activated */
 172:Drivers/STM32F4xx_HAL_Driver/Src/stm32f4xx_hal_pcd.c ****    hpcd->IN_ep[i].type = EP_TYPE_CTRL;
 173:Drivers/STM32F4xx_HAL_Driver/Src/stm32f4xx_hal_pcd.c ****    hpcd->IN_ep[i].maxpacket = 0U;
 174:Drivers/STM32F4xx_HAL_Driver/Src/stm32f4xx_hal_pcd.c ****    hpcd->IN_ep[i].xfer_buff = 0U;
 175:Drivers/STM32F4xx_HAL_Driver/Src/stm32f4xx_hal_pcd.c ****    hpcd->IN_ep[i].xfer_len = 0U;
 176:Drivers/STM32F4xx_HAL_Driver/Src/stm32f4xx_hal_pcd.c ****  }
 177:Drivers/STM32F4xx_HAL_Driver/Src/stm32f4xx_hal_pcd.c ****  
 178:Drivers/STM32F4xx_HAL_Driver/Src/stm32f4xx_hal_pcd.c ****  for (i = 0U; i < 15U; i++)
 179:Drivers/STM32F4xx_HAL_Driver/Src/stm32f4xx_hal_pcd.c ****  {
 180:Drivers/STM32F4xx_HAL_Driver/Src/stm32f4xx_hal_pcd.c ****    hpcd->OUT_ep[i].is_in = 0U;
 181:Drivers/STM32F4xx_HAL_Driver/Src/stm32f4xx_hal_pcd.c ****    hpcd->OUT_ep[i].num = i;
 182:Drivers/STM32F4xx_HAL_Driver/Src/stm32f4xx_hal_pcd.c ****    hpcd->IN_ep[i].tx_fifo_num = i;
 183:Drivers/STM32F4xx_HAL_Driver/Src/stm32f4xx_hal_pcd.c ****    /* Control until ep is activated */
 184:Drivers/STM32F4xx_HAL_Driver/Src/stm32f4xx_hal_pcd.c ****    hpcd->OUT_ep[i].type = EP_TYPE_CTRL;
 185:Drivers/STM32F4xx_HAL_Driver/Src/stm32f4xx_hal_pcd.c ****    hpcd->OUT_ep[i].maxpacket = 0U;
 186:Drivers/STM32F4xx_HAL_Driver/Src/stm32f4xx_hal_pcd.c ****    hpcd->OUT_ep[i].xfer_buff = 0U;
 187:Drivers/STM32F4xx_HAL_Driver/Src/stm32f4xx_hal_pcd.c ****    hpcd->OUT_ep[i].xfer_len = 0U;
 188:Drivers/STM32F4xx_HAL_Driver/Src/stm32f4xx_hal_pcd.c ****    
 189:Drivers/STM32F4xx_HAL_Driver/Src/stm32f4xx_hal_pcd.c ****    hpcd->Instance->DIEPTXF[i] = 0U;
 190:Drivers/STM32F4xx_HAL_Driver/Src/stm32f4xx_hal_pcd.c ****  }
 191:Drivers/STM32F4xx_HAL_Driver/Src/stm32f4xx_hal_pcd.c ****  
 192:Drivers/STM32F4xx_HAL_Driver/Src/stm32f4xx_hal_pcd.c ****  /* Init Device */
 193:Drivers/STM32F4xx_HAL_Driver/Src/stm32f4xx_hal_pcd.c ****  USB_DevInit(hpcd->Instance, hpcd->Init);
 194:Drivers/STM32F4xx_HAL_Driver/Src/stm32f4xx_hal_pcd.c ****  
 195:Drivers/STM32F4xx_HAL_Driver/Src/stm32f4xx_hal_pcd.c ****  hpcd->State= HAL_PCD_STATE_READY;
 196:Drivers/STM32F4xx_HAL_Driver/Src/stm32f4xx_hal_pcd.c ****  
 197:Drivers/STM32F4xx_HAL_Driver/Src/stm32f4xx_hal_pcd.c **** #ifdef USB_OTG_GLPMCFG_LPMEN
 198:Drivers/STM32F4xx_HAL_Driver/Src/stm32f4xx_hal_pcd.c ****  /* Activate LPM */
 199:Drivers/STM32F4xx_HAL_Driver/Src/stm32f4xx_hal_pcd.c ****  if (hpcd->Init.lpm_enable == 1U)
 200:Drivers/STM32F4xx_HAL_Driver/Src/stm32f4xx_hal_pcd.c ****  {
 201:Drivers/STM32F4xx_HAL_Driver/Src/stm32f4xx_hal_pcd.c ****    HAL_PCDEx_ActivateLPM(hpcd);
 202:Drivers/STM32F4xx_HAL_Driver/Src/stm32f4xx_hal_pcd.c ****  }
 203:Drivers/STM32F4xx_HAL_Driver/Src/stm32f4xx_hal_pcd.c **** #endif /* USB_OTG_GLPMCFG_LPMEN */
ARM GAS  x:\temp2\ccqe4sF7.s 			page 5


 204:Drivers/STM32F4xx_HAL_Driver/Src/stm32f4xx_hal_pcd.c ****  
 205:Drivers/STM32F4xx_HAL_Driver/Src/stm32f4xx_hal_pcd.c **** #ifdef USB_OTG_GCCFG_BCDEN
 206:Drivers/STM32F4xx_HAL_Driver/Src/stm32f4xx_hal_pcd.c ****  /* Activate Battery charging */
 207:Drivers/STM32F4xx_HAL_Driver/Src/stm32f4xx_hal_pcd.c ****  if (hpcd->Init.battery_charging_enable == 1U)
 208:Drivers/STM32F4xx_HAL_Driver/Src/stm32f4xx_hal_pcd.c ****  {
 209:Drivers/STM32F4xx_HAL_Driver/Src/stm32f4xx_hal_pcd.c ****    HAL_PCDEx_ActivateBCD(hpcd);
 210:Drivers/STM32F4xx_HAL_Driver/Src/stm32f4xx_hal_pcd.c ****  }
 211:Drivers/STM32F4xx_HAL_Driver/Src/stm32f4xx_hal_pcd.c **** #endif /* USB_OTG_GCCFG_BCDEN */
 212:Drivers/STM32F4xx_HAL_Driver/Src/stm32f4xx_hal_pcd.c ****  
 213:Drivers/STM32F4xx_HAL_Driver/Src/stm32f4xx_hal_pcd.c ****  USB_DevDisconnect (hpcd->Instance);  
 214:Drivers/STM32F4xx_HAL_Driver/Src/stm32f4xx_hal_pcd.c ****  return HAL_OK;
 215:Drivers/STM32F4xx_HAL_Driver/Src/stm32f4xx_hal_pcd.c **** }
 216:Drivers/STM32F4xx_HAL_Driver/Src/stm32f4xx_hal_pcd.c **** 
 217:Drivers/STM32F4xx_HAL_Driver/Src/stm32f4xx_hal_pcd.c **** /**
 218:Drivers/STM32F4xx_HAL_Driver/Src/stm32f4xx_hal_pcd.c ****   * @brief  DeInitializes the PCD peripheral. 
 219:Drivers/STM32F4xx_HAL_Driver/Src/stm32f4xx_hal_pcd.c ****   * @param  hpcd PCD handle
 220:Drivers/STM32F4xx_HAL_Driver/Src/stm32f4xx_hal_pcd.c ****   * @retval HAL status
 221:Drivers/STM32F4xx_HAL_Driver/Src/stm32f4xx_hal_pcd.c ****   */
 222:Drivers/STM32F4xx_HAL_Driver/Src/stm32f4xx_hal_pcd.c **** HAL_StatusTypeDef HAL_PCD_DeInit(PCD_HandleTypeDef *hpcd)
 223:Drivers/STM32F4xx_HAL_Driver/Src/stm32f4xx_hal_pcd.c **** {
 224:Drivers/STM32F4xx_HAL_Driver/Src/stm32f4xx_hal_pcd.c ****   /* Check the PCD handle allocation */
 225:Drivers/STM32F4xx_HAL_Driver/Src/stm32f4xx_hal_pcd.c ****   if(hpcd == NULL)
 226:Drivers/STM32F4xx_HAL_Driver/Src/stm32f4xx_hal_pcd.c ****   {
 227:Drivers/STM32F4xx_HAL_Driver/Src/stm32f4xx_hal_pcd.c ****     return HAL_ERROR;
 228:Drivers/STM32F4xx_HAL_Driver/Src/stm32f4xx_hal_pcd.c ****   }
 229:Drivers/STM32F4xx_HAL_Driver/Src/stm32f4xx_hal_pcd.c **** 
 230:Drivers/STM32F4xx_HAL_Driver/Src/stm32f4xx_hal_pcd.c ****   hpcd->State = HAL_PCD_STATE_BUSY;
 231:Drivers/STM32F4xx_HAL_Driver/Src/stm32f4xx_hal_pcd.c ****   
 232:Drivers/STM32F4xx_HAL_Driver/Src/stm32f4xx_hal_pcd.c ****   /* Stop Device */
 233:Drivers/STM32F4xx_HAL_Driver/Src/stm32f4xx_hal_pcd.c ****   HAL_PCD_Stop(hpcd);
 234:Drivers/STM32F4xx_HAL_Driver/Src/stm32f4xx_hal_pcd.c ****     
 235:Drivers/STM32F4xx_HAL_Driver/Src/stm32f4xx_hal_pcd.c ****   /* DeInit the low level hardware */
 236:Drivers/STM32F4xx_HAL_Driver/Src/stm32f4xx_hal_pcd.c ****   HAL_PCD_MspDeInit(hpcd);
 237:Drivers/STM32F4xx_HAL_Driver/Src/stm32f4xx_hal_pcd.c ****   
 238:Drivers/STM32F4xx_HAL_Driver/Src/stm32f4xx_hal_pcd.c ****   hpcd->State = HAL_PCD_STATE_RESET; 
 239:Drivers/STM32F4xx_HAL_Driver/Src/stm32f4xx_hal_pcd.c ****   
 240:Drivers/STM32F4xx_HAL_Driver/Src/stm32f4xx_hal_pcd.c ****   return HAL_OK;
 241:Drivers/STM32F4xx_HAL_Driver/Src/stm32f4xx_hal_pcd.c **** }
 242:Drivers/STM32F4xx_HAL_Driver/Src/stm32f4xx_hal_pcd.c **** 
 243:Drivers/STM32F4xx_HAL_Driver/Src/stm32f4xx_hal_pcd.c **** /**
 244:Drivers/STM32F4xx_HAL_Driver/Src/stm32f4xx_hal_pcd.c ****   * @brief  Initializes the PCD MSP.
 245:Drivers/STM32F4xx_HAL_Driver/Src/stm32f4xx_hal_pcd.c ****   * @param  hpcd PCD handle
 246:Drivers/STM32F4xx_HAL_Driver/Src/stm32f4xx_hal_pcd.c ****   * @retval None
 247:Drivers/STM32F4xx_HAL_Driver/Src/stm32f4xx_hal_pcd.c ****   */
 248:Drivers/STM32F4xx_HAL_Driver/Src/stm32f4xx_hal_pcd.c **** __weak void HAL_PCD_MspInit(PCD_HandleTypeDef *hpcd)
 249:Drivers/STM32F4xx_HAL_Driver/Src/stm32f4xx_hal_pcd.c **** {
 250:Drivers/STM32F4xx_HAL_Driver/Src/stm32f4xx_hal_pcd.c ****   /* Prevent unused argument(s) compilation warning */
 251:Drivers/STM32F4xx_HAL_Driver/Src/stm32f4xx_hal_pcd.c ****   UNUSED(hpcd);
 252:Drivers/STM32F4xx_HAL_Driver/Src/stm32f4xx_hal_pcd.c ****   /* NOTE : This function Should not be modified, when the callback is needed,
 253:Drivers/STM32F4xx_HAL_Driver/Src/stm32f4xx_hal_pcd.c ****             the HAL_PCD_MspInit could be implemented in the user file
 254:Drivers/STM32F4xx_HAL_Driver/Src/stm32f4xx_hal_pcd.c ****    */
 255:Drivers/STM32F4xx_HAL_Driver/Src/stm32f4xx_hal_pcd.c **** }
 256:Drivers/STM32F4xx_HAL_Driver/Src/stm32f4xx_hal_pcd.c **** 
 257:Drivers/STM32F4xx_HAL_Driver/Src/stm32f4xx_hal_pcd.c **** /**
 258:Drivers/STM32F4xx_HAL_Driver/Src/stm32f4xx_hal_pcd.c ****   * @brief  DeInitializes PCD MSP.
 259:Drivers/STM32F4xx_HAL_Driver/Src/stm32f4xx_hal_pcd.c ****   * @param  hpcd PCD handle
 260:Drivers/STM32F4xx_HAL_Driver/Src/stm32f4xx_hal_pcd.c ****   * @retval None
ARM GAS  x:\temp2\ccqe4sF7.s 			page 6


 261:Drivers/STM32F4xx_HAL_Driver/Src/stm32f4xx_hal_pcd.c ****   */
 262:Drivers/STM32F4xx_HAL_Driver/Src/stm32f4xx_hal_pcd.c **** __weak void HAL_PCD_MspDeInit(PCD_HandleTypeDef *hpcd)
 263:Drivers/STM32F4xx_HAL_Driver/Src/stm32f4xx_hal_pcd.c **** {
 264:Drivers/STM32F4xx_HAL_Driver/Src/stm32f4xx_hal_pcd.c ****   /* Prevent unused argument(s) compilation warning */
 265:Drivers/STM32F4xx_HAL_Driver/Src/stm32f4xx_hal_pcd.c ****   UNUSED(hpcd);
 266:Drivers/STM32F4xx_HAL_Driver/Src/stm32f4xx_hal_pcd.c ****   /* NOTE : This function Should not be modified, when the callback is needed,
 267:Drivers/STM32F4xx_HAL_Driver/Src/stm32f4xx_hal_pcd.c ****             the HAL_PCD_MspDeInit could be implemented in the user file
 268:Drivers/STM32F4xx_HAL_Driver/Src/stm32f4xx_hal_pcd.c ****    */
 269:Drivers/STM32F4xx_HAL_Driver/Src/stm32f4xx_hal_pcd.c **** }
 270:Drivers/STM32F4xx_HAL_Driver/Src/stm32f4xx_hal_pcd.c **** 
 271:Drivers/STM32F4xx_HAL_Driver/Src/stm32f4xx_hal_pcd.c **** /**
 272:Drivers/STM32F4xx_HAL_Driver/Src/stm32f4xx_hal_pcd.c ****   * @}
 273:Drivers/STM32F4xx_HAL_Driver/Src/stm32f4xx_hal_pcd.c ****   */
 274:Drivers/STM32F4xx_HAL_Driver/Src/stm32f4xx_hal_pcd.c **** 
 275:Drivers/STM32F4xx_HAL_Driver/Src/stm32f4xx_hal_pcd.c **** /** @defgroup PCD_Exported_Functions_Group2 Input and Output operation functions 
 276:Drivers/STM32F4xx_HAL_Driver/Src/stm32f4xx_hal_pcd.c ****  *  @brief   Data transfers functions 
 277:Drivers/STM32F4xx_HAL_Driver/Src/stm32f4xx_hal_pcd.c ****  *
 278:Drivers/STM32F4xx_HAL_Driver/Src/stm32f4xx_hal_pcd.c **** @verbatim 
 279:Drivers/STM32F4xx_HAL_Driver/Src/stm32f4xx_hal_pcd.c ****  ===============================================================================
 280:Drivers/STM32F4xx_HAL_Driver/Src/stm32f4xx_hal_pcd.c ****                       ##### IO operation functions #####
 281:Drivers/STM32F4xx_HAL_Driver/Src/stm32f4xx_hal_pcd.c ****  ===============================================================================  
 282:Drivers/STM32F4xx_HAL_Driver/Src/stm32f4xx_hal_pcd.c ****     [..]
 283:Drivers/STM32F4xx_HAL_Driver/Src/stm32f4xx_hal_pcd.c ****     This subsection provides a set of functions allowing to manage the PCD data 
 284:Drivers/STM32F4xx_HAL_Driver/Src/stm32f4xx_hal_pcd.c ****     transfers.
 285:Drivers/STM32F4xx_HAL_Driver/Src/stm32f4xx_hal_pcd.c **** 
 286:Drivers/STM32F4xx_HAL_Driver/Src/stm32f4xx_hal_pcd.c **** @endverbatim
 287:Drivers/STM32F4xx_HAL_Driver/Src/stm32f4xx_hal_pcd.c ****   * @{
 288:Drivers/STM32F4xx_HAL_Driver/Src/stm32f4xx_hal_pcd.c ****   */
 289:Drivers/STM32F4xx_HAL_Driver/Src/stm32f4xx_hal_pcd.c ****   
 290:Drivers/STM32F4xx_HAL_Driver/Src/stm32f4xx_hal_pcd.c **** /**
 291:Drivers/STM32F4xx_HAL_Driver/Src/stm32f4xx_hal_pcd.c ****   * @brief  Start The USB OTG Device.
 292:Drivers/STM32F4xx_HAL_Driver/Src/stm32f4xx_hal_pcd.c ****   * @param  hpcd PCD handle
 293:Drivers/STM32F4xx_HAL_Driver/Src/stm32f4xx_hal_pcd.c ****   * @retval HAL status
 294:Drivers/STM32F4xx_HAL_Driver/Src/stm32f4xx_hal_pcd.c ****   */
 295:Drivers/STM32F4xx_HAL_Driver/Src/stm32f4xx_hal_pcd.c **** HAL_StatusTypeDef HAL_PCD_Start(PCD_HandleTypeDef *hpcd)
 296:Drivers/STM32F4xx_HAL_Driver/Src/stm32f4xx_hal_pcd.c **** { 
 297:Drivers/STM32F4xx_HAL_Driver/Src/stm32f4xx_hal_pcd.c ****   __HAL_LOCK(hpcd); 
 298:Drivers/STM32F4xx_HAL_Driver/Src/stm32f4xx_hal_pcd.c ****   USB_DevConnect (hpcd->Instance);  
 299:Drivers/STM32F4xx_HAL_Driver/Src/stm32f4xx_hal_pcd.c ****   __HAL_PCD_ENABLE(hpcd);
 300:Drivers/STM32F4xx_HAL_Driver/Src/stm32f4xx_hal_pcd.c ****   __HAL_UNLOCK(hpcd); 
 301:Drivers/STM32F4xx_HAL_Driver/Src/stm32f4xx_hal_pcd.c ****   return HAL_OK;
 302:Drivers/STM32F4xx_HAL_Driver/Src/stm32f4xx_hal_pcd.c **** }
 303:Drivers/STM32F4xx_HAL_Driver/Src/stm32f4xx_hal_pcd.c **** 
 304:Drivers/STM32F4xx_HAL_Driver/Src/stm32f4xx_hal_pcd.c **** /**
 305:Drivers/STM32F4xx_HAL_Driver/Src/stm32f4xx_hal_pcd.c ****   * @brief  Stop The USB OTG Device.
 306:Drivers/STM32F4xx_HAL_Driver/Src/stm32f4xx_hal_pcd.c ****   * @param  hpcd PCD handle
 307:Drivers/STM32F4xx_HAL_Driver/Src/stm32f4xx_hal_pcd.c ****   * @retval HAL status
 308:Drivers/STM32F4xx_HAL_Driver/Src/stm32f4xx_hal_pcd.c ****   */
 309:Drivers/STM32F4xx_HAL_Driver/Src/stm32f4xx_hal_pcd.c **** HAL_StatusTypeDef HAL_PCD_Stop(PCD_HandleTypeDef *hpcd)
 310:Drivers/STM32F4xx_HAL_Driver/Src/stm32f4xx_hal_pcd.c **** { 
 311:Drivers/STM32F4xx_HAL_Driver/Src/stm32f4xx_hal_pcd.c ****   __HAL_LOCK(hpcd); 
 312:Drivers/STM32F4xx_HAL_Driver/Src/stm32f4xx_hal_pcd.c ****   __HAL_PCD_DISABLE(hpcd);
 313:Drivers/STM32F4xx_HAL_Driver/Src/stm32f4xx_hal_pcd.c ****   USB_StopDevice(hpcd->Instance);
 314:Drivers/STM32F4xx_HAL_Driver/Src/stm32f4xx_hal_pcd.c ****   USB_DevDisconnect(hpcd->Instance);
 315:Drivers/STM32F4xx_HAL_Driver/Src/stm32f4xx_hal_pcd.c ****   __HAL_UNLOCK(hpcd); 
 316:Drivers/STM32F4xx_HAL_Driver/Src/stm32f4xx_hal_pcd.c ****   return HAL_OK;
 317:Drivers/STM32F4xx_HAL_Driver/Src/stm32f4xx_hal_pcd.c **** }
ARM GAS  x:\temp2\ccqe4sF7.s 			page 7


 318:Drivers/STM32F4xx_HAL_Driver/Src/stm32f4xx_hal_pcd.c **** 
 319:Drivers/STM32F4xx_HAL_Driver/Src/stm32f4xx_hal_pcd.c **** /**
 320:Drivers/STM32F4xx_HAL_Driver/Src/stm32f4xx_hal_pcd.c ****   * @brief  Handles PCD interrupt request.
 321:Drivers/STM32F4xx_HAL_Driver/Src/stm32f4xx_hal_pcd.c ****   * @param  hpcd PCD handle
 322:Drivers/STM32F4xx_HAL_Driver/Src/stm32f4xx_hal_pcd.c ****   * @retval HAL status
 323:Drivers/STM32F4xx_HAL_Driver/Src/stm32f4xx_hal_pcd.c ****   */
 324:Drivers/STM32F4xx_HAL_Driver/Src/stm32f4xx_hal_pcd.c **** void HAL_PCD_IRQHandler(PCD_HandleTypeDef *hpcd)
 325:Drivers/STM32F4xx_HAL_Driver/Src/stm32f4xx_hal_pcd.c **** {
 326:Drivers/STM32F4xx_HAL_Driver/Src/stm32f4xx_hal_pcd.c ****   USB_OTG_GlobalTypeDef *USBx = hpcd->Instance;
 327:Drivers/STM32F4xx_HAL_Driver/Src/stm32f4xx_hal_pcd.c ****   uint32_t i = 0U, ep_intr = 0U, epint = 0U, epnum = 0U;
 328:Drivers/STM32F4xx_HAL_Driver/Src/stm32f4xx_hal_pcd.c ****   uint32_t fifoemptymsk = 0U, temp = 0U;
 329:Drivers/STM32F4xx_HAL_Driver/Src/stm32f4xx_hal_pcd.c ****   USB_OTG_EPTypeDef *ep;
 330:Drivers/STM32F4xx_HAL_Driver/Src/stm32f4xx_hal_pcd.c ****   uint32_t hclk = 180000000U;
 331:Drivers/STM32F4xx_HAL_Driver/Src/stm32f4xx_hal_pcd.c ****   
 332:Drivers/STM32F4xx_HAL_Driver/Src/stm32f4xx_hal_pcd.c ****   /* ensure that we are in device mode */
 333:Drivers/STM32F4xx_HAL_Driver/Src/stm32f4xx_hal_pcd.c ****   if (USB_GetMode(hpcd->Instance) == USB_OTG_MODE_DEVICE)
 334:Drivers/STM32F4xx_HAL_Driver/Src/stm32f4xx_hal_pcd.c ****   {    
 335:Drivers/STM32F4xx_HAL_Driver/Src/stm32f4xx_hal_pcd.c ****     /* avoid spurious interrupt */
 336:Drivers/STM32F4xx_HAL_Driver/Src/stm32f4xx_hal_pcd.c ****     if(__HAL_PCD_IS_INVALID_INTERRUPT(hpcd)) 
 337:Drivers/STM32F4xx_HAL_Driver/Src/stm32f4xx_hal_pcd.c ****     {
 338:Drivers/STM32F4xx_HAL_Driver/Src/stm32f4xx_hal_pcd.c ****       return;
 339:Drivers/STM32F4xx_HAL_Driver/Src/stm32f4xx_hal_pcd.c ****     }
 340:Drivers/STM32F4xx_HAL_Driver/Src/stm32f4xx_hal_pcd.c ****     
 341:Drivers/STM32F4xx_HAL_Driver/Src/stm32f4xx_hal_pcd.c ****     if(__HAL_PCD_GET_FLAG(hpcd, USB_OTG_GINTSTS_MMIS))
 342:Drivers/STM32F4xx_HAL_Driver/Src/stm32f4xx_hal_pcd.c ****     {
 343:Drivers/STM32F4xx_HAL_Driver/Src/stm32f4xx_hal_pcd.c ****      /* incorrect mode, acknowledge the interrupt */
 344:Drivers/STM32F4xx_HAL_Driver/Src/stm32f4xx_hal_pcd.c ****       __HAL_PCD_CLEAR_FLAG(hpcd, USB_OTG_GINTSTS_MMIS);
 345:Drivers/STM32F4xx_HAL_Driver/Src/stm32f4xx_hal_pcd.c ****     }
 346:Drivers/STM32F4xx_HAL_Driver/Src/stm32f4xx_hal_pcd.c ****     
 347:Drivers/STM32F4xx_HAL_Driver/Src/stm32f4xx_hal_pcd.c ****     if(__HAL_PCD_GET_FLAG(hpcd, USB_OTG_GINTSTS_OEPINT))
 348:Drivers/STM32F4xx_HAL_Driver/Src/stm32f4xx_hal_pcd.c ****     {
 349:Drivers/STM32F4xx_HAL_Driver/Src/stm32f4xx_hal_pcd.c ****       epnum = 0U;
 350:Drivers/STM32F4xx_HAL_Driver/Src/stm32f4xx_hal_pcd.c ****       
 351:Drivers/STM32F4xx_HAL_Driver/Src/stm32f4xx_hal_pcd.c ****       /* Read in the device interrupt bits */
 352:Drivers/STM32F4xx_HAL_Driver/Src/stm32f4xx_hal_pcd.c ****       ep_intr = USB_ReadDevAllOutEpInterrupt(hpcd->Instance);
 353:Drivers/STM32F4xx_HAL_Driver/Src/stm32f4xx_hal_pcd.c ****       
 354:Drivers/STM32F4xx_HAL_Driver/Src/stm32f4xx_hal_pcd.c ****       while ( ep_intr )
 355:Drivers/STM32F4xx_HAL_Driver/Src/stm32f4xx_hal_pcd.c ****       {
 356:Drivers/STM32F4xx_HAL_Driver/Src/stm32f4xx_hal_pcd.c ****         if (ep_intr & 0x1U)
 357:Drivers/STM32F4xx_HAL_Driver/Src/stm32f4xx_hal_pcd.c ****         {
 358:Drivers/STM32F4xx_HAL_Driver/Src/stm32f4xx_hal_pcd.c ****           epint = USB_ReadDevOutEPInterrupt(hpcd->Instance, epnum);
 359:Drivers/STM32F4xx_HAL_Driver/Src/stm32f4xx_hal_pcd.c ****           
 360:Drivers/STM32F4xx_HAL_Driver/Src/stm32f4xx_hal_pcd.c ****           if(( epint & USB_OTG_DOEPINT_XFRC) == USB_OTG_DOEPINT_XFRC)
 361:Drivers/STM32F4xx_HAL_Driver/Src/stm32f4xx_hal_pcd.c ****           {
 362:Drivers/STM32F4xx_HAL_Driver/Src/stm32f4xx_hal_pcd.c ****             CLEAR_OUT_EP_INTR(epnum, USB_OTG_DOEPINT_XFRC);
 363:Drivers/STM32F4xx_HAL_Driver/Src/stm32f4xx_hal_pcd.c ****             
 364:Drivers/STM32F4xx_HAL_Driver/Src/stm32f4xx_hal_pcd.c ****             if(hpcd->Init.dma_enable == 1U)
 365:Drivers/STM32F4xx_HAL_Driver/Src/stm32f4xx_hal_pcd.c ****             {
 366:Drivers/STM32F4xx_HAL_Driver/Src/stm32f4xx_hal_pcd.c ****               hpcd->OUT_ep[epnum].xfer_count = hpcd->OUT_ep[epnum].maxpacket- (USBx_OUTEP(epnum)->D
 367:Drivers/STM32F4xx_HAL_Driver/Src/stm32f4xx_hal_pcd.c ****               hpcd->OUT_ep[epnum].xfer_buff += hpcd->OUT_ep[epnum].maxpacket;            
 368:Drivers/STM32F4xx_HAL_Driver/Src/stm32f4xx_hal_pcd.c ****             }
 369:Drivers/STM32F4xx_HAL_Driver/Src/stm32f4xx_hal_pcd.c ****             
 370:Drivers/STM32F4xx_HAL_Driver/Src/stm32f4xx_hal_pcd.c ****             HAL_PCD_DataOutStageCallback(hpcd, epnum);
 371:Drivers/STM32F4xx_HAL_Driver/Src/stm32f4xx_hal_pcd.c ****             if(hpcd->Init.dma_enable == 1U)
 372:Drivers/STM32F4xx_HAL_Driver/Src/stm32f4xx_hal_pcd.c ****             {
 373:Drivers/STM32F4xx_HAL_Driver/Src/stm32f4xx_hal_pcd.c ****               if((epnum == 0U) && (hpcd->OUT_ep[epnum].xfer_len == 0U))
 374:Drivers/STM32F4xx_HAL_Driver/Src/stm32f4xx_hal_pcd.c ****               {
ARM GAS  x:\temp2\ccqe4sF7.s 			page 8


 375:Drivers/STM32F4xx_HAL_Driver/Src/stm32f4xx_hal_pcd.c ****                  /* this is ZLP, so prepare EP0 for next setup */
 376:Drivers/STM32F4xx_HAL_Driver/Src/stm32f4xx_hal_pcd.c ****                 USB_EP0_OutStart(hpcd->Instance, 1U, (uint8_t *)hpcd->Setup);
 377:Drivers/STM32F4xx_HAL_Driver/Src/stm32f4xx_hal_pcd.c ****               }              
 378:Drivers/STM32F4xx_HAL_Driver/Src/stm32f4xx_hal_pcd.c ****             }
 379:Drivers/STM32F4xx_HAL_Driver/Src/stm32f4xx_hal_pcd.c ****           }
 380:Drivers/STM32F4xx_HAL_Driver/Src/stm32f4xx_hal_pcd.c ****           
 381:Drivers/STM32F4xx_HAL_Driver/Src/stm32f4xx_hal_pcd.c ****           if(( epint & USB_OTG_DOEPINT_STUP) == USB_OTG_DOEPINT_STUP)
 382:Drivers/STM32F4xx_HAL_Driver/Src/stm32f4xx_hal_pcd.c ****           {
 383:Drivers/STM32F4xx_HAL_Driver/Src/stm32f4xx_hal_pcd.c ****             /* Inform the upper layer that a setup packet is available */
 384:Drivers/STM32F4xx_HAL_Driver/Src/stm32f4xx_hal_pcd.c ****             HAL_PCD_SetupStageCallback(hpcd);
 385:Drivers/STM32F4xx_HAL_Driver/Src/stm32f4xx_hal_pcd.c ****             CLEAR_OUT_EP_INTR(epnum, USB_OTG_DOEPINT_STUP);
 386:Drivers/STM32F4xx_HAL_Driver/Src/stm32f4xx_hal_pcd.c ****           }
 387:Drivers/STM32F4xx_HAL_Driver/Src/stm32f4xx_hal_pcd.c ****           
 388:Drivers/STM32F4xx_HAL_Driver/Src/stm32f4xx_hal_pcd.c ****           if(( epint & USB_OTG_DOEPINT_OTEPDIS) == USB_OTG_DOEPINT_OTEPDIS)
 389:Drivers/STM32F4xx_HAL_Driver/Src/stm32f4xx_hal_pcd.c ****           {
 390:Drivers/STM32F4xx_HAL_Driver/Src/stm32f4xx_hal_pcd.c ****             CLEAR_OUT_EP_INTR(epnum, USB_OTG_DOEPINT_OTEPDIS);
 391:Drivers/STM32F4xx_HAL_Driver/Src/stm32f4xx_hal_pcd.c ****           }
 392:Drivers/STM32F4xx_HAL_Driver/Src/stm32f4xx_hal_pcd.c **** 
 393:Drivers/STM32F4xx_HAL_Driver/Src/stm32f4xx_hal_pcd.c **** #ifdef USB_OTG_DOEPINT_OTEPSPR 
 394:Drivers/STM32F4xx_HAL_Driver/Src/stm32f4xx_hal_pcd.c ****           /* Clear Status Phase Received interrupt */
 395:Drivers/STM32F4xx_HAL_Driver/Src/stm32f4xx_hal_pcd.c ****           if(( epint & USB_OTG_DOEPINT_OTEPSPR) == USB_OTG_DOEPINT_OTEPSPR)
 396:Drivers/STM32F4xx_HAL_Driver/Src/stm32f4xx_hal_pcd.c ****           {
 397:Drivers/STM32F4xx_HAL_Driver/Src/stm32f4xx_hal_pcd.c ****             CLEAR_OUT_EP_INTR(epnum, USB_OTG_DOEPINT_OTEPSPR);
 398:Drivers/STM32F4xx_HAL_Driver/Src/stm32f4xx_hal_pcd.c ****           }
 399:Drivers/STM32F4xx_HAL_Driver/Src/stm32f4xx_hal_pcd.c **** #endif /* USB_OTG_DOEPINT_OTEPSPR */
 400:Drivers/STM32F4xx_HAL_Driver/Src/stm32f4xx_hal_pcd.c ****         }
 401:Drivers/STM32F4xx_HAL_Driver/Src/stm32f4xx_hal_pcd.c ****         epnum++;
 402:Drivers/STM32F4xx_HAL_Driver/Src/stm32f4xx_hal_pcd.c ****         ep_intr >>= 1U;
 403:Drivers/STM32F4xx_HAL_Driver/Src/stm32f4xx_hal_pcd.c ****       }
 404:Drivers/STM32F4xx_HAL_Driver/Src/stm32f4xx_hal_pcd.c ****     }
 405:Drivers/STM32F4xx_HAL_Driver/Src/stm32f4xx_hal_pcd.c ****     
 406:Drivers/STM32F4xx_HAL_Driver/Src/stm32f4xx_hal_pcd.c ****     if(__HAL_PCD_GET_FLAG(hpcd, USB_OTG_GINTSTS_IEPINT))
 407:Drivers/STM32F4xx_HAL_Driver/Src/stm32f4xx_hal_pcd.c ****     {
 408:Drivers/STM32F4xx_HAL_Driver/Src/stm32f4xx_hal_pcd.c ****       /* Read in the device interrupt bits */
 409:Drivers/STM32F4xx_HAL_Driver/Src/stm32f4xx_hal_pcd.c ****       ep_intr = USB_ReadDevAllInEpInterrupt(hpcd->Instance);
 410:Drivers/STM32F4xx_HAL_Driver/Src/stm32f4xx_hal_pcd.c ****       
 411:Drivers/STM32F4xx_HAL_Driver/Src/stm32f4xx_hal_pcd.c ****       epnum = 0U;
 412:Drivers/STM32F4xx_HAL_Driver/Src/stm32f4xx_hal_pcd.c ****       
 413:Drivers/STM32F4xx_HAL_Driver/Src/stm32f4xx_hal_pcd.c ****       while ( ep_intr )
 414:Drivers/STM32F4xx_HAL_Driver/Src/stm32f4xx_hal_pcd.c ****       {
 415:Drivers/STM32F4xx_HAL_Driver/Src/stm32f4xx_hal_pcd.c ****         if (ep_intr & 0x1U) /* In ITR */
 416:Drivers/STM32F4xx_HAL_Driver/Src/stm32f4xx_hal_pcd.c ****         {
 417:Drivers/STM32F4xx_HAL_Driver/Src/stm32f4xx_hal_pcd.c ****           epint = USB_ReadDevInEPInterrupt(hpcd->Instance, epnum);
 418:Drivers/STM32F4xx_HAL_Driver/Src/stm32f4xx_hal_pcd.c **** 
 419:Drivers/STM32F4xx_HAL_Driver/Src/stm32f4xx_hal_pcd.c ****            if(( epint & USB_OTG_DIEPINT_XFRC) == USB_OTG_DIEPINT_XFRC)
 420:Drivers/STM32F4xx_HAL_Driver/Src/stm32f4xx_hal_pcd.c ****           {
 421:Drivers/STM32F4xx_HAL_Driver/Src/stm32f4xx_hal_pcd.c ****             fifoemptymsk = 0x1U << epnum;
 422:Drivers/STM32F4xx_HAL_Driver/Src/stm32f4xx_hal_pcd.c ****             USBx_DEVICE->DIEPEMPMSK &= ~fifoemptymsk;
 423:Drivers/STM32F4xx_HAL_Driver/Src/stm32f4xx_hal_pcd.c ****             
 424:Drivers/STM32F4xx_HAL_Driver/Src/stm32f4xx_hal_pcd.c ****             CLEAR_IN_EP_INTR(epnum, USB_OTG_DIEPINT_XFRC);
 425:Drivers/STM32F4xx_HAL_Driver/Src/stm32f4xx_hal_pcd.c ****             
 426:Drivers/STM32F4xx_HAL_Driver/Src/stm32f4xx_hal_pcd.c ****             if (hpcd->Init.dma_enable == 1U)
 427:Drivers/STM32F4xx_HAL_Driver/Src/stm32f4xx_hal_pcd.c ****             {
 428:Drivers/STM32F4xx_HAL_Driver/Src/stm32f4xx_hal_pcd.c ****               hpcd->IN_ep[epnum].xfer_buff += hpcd->IN_ep[epnum].maxpacket; 
 429:Drivers/STM32F4xx_HAL_Driver/Src/stm32f4xx_hal_pcd.c ****             }
 430:Drivers/STM32F4xx_HAL_Driver/Src/stm32f4xx_hal_pcd.c ****                                       
 431:Drivers/STM32F4xx_HAL_Driver/Src/stm32f4xx_hal_pcd.c ****             HAL_PCD_DataInStageCallback(hpcd, epnum);
ARM GAS  x:\temp2\ccqe4sF7.s 			page 9


 432:Drivers/STM32F4xx_HAL_Driver/Src/stm32f4xx_hal_pcd.c **** 
 433:Drivers/STM32F4xx_HAL_Driver/Src/stm32f4xx_hal_pcd.c ****             if (hpcd->Init.dma_enable == 1U)
 434:Drivers/STM32F4xx_HAL_Driver/Src/stm32f4xx_hal_pcd.c ****             {
 435:Drivers/STM32F4xx_HAL_Driver/Src/stm32f4xx_hal_pcd.c ****               /* this is ZLP, so prepare EP0 for next setup */
 436:Drivers/STM32F4xx_HAL_Driver/Src/stm32f4xx_hal_pcd.c ****               if((epnum == 0U) && (hpcd->IN_ep[epnum].xfer_len == 0U))
 437:Drivers/STM32F4xx_HAL_Driver/Src/stm32f4xx_hal_pcd.c ****               {
 438:Drivers/STM32F4xx_HAL_Driver/Src/stm32f4xx_hal_pcd.c ****                 /* prepare to rx more setup packets */
 439:Drivers/STM32F4xx_HAL_Driver/Src/stm32f4xx_hal_pcd.c ****                 USB_EP0_OutStart(hpcd->Instance, 1U, (uint8_t *)hpcd->Setup);
 440:Drivers/STM32F4xx_HAL_Driver/Src/stm32f4xx_hal_pcd.c ****               }
 441:Drivers/STM32F4xx_HAL_Driver/Src/stm32f4xx_hal_pcd.c ****             }           
 442:Drivers/STM32F4xx_HAL_Driver/Src/stm32f4xx_hal_pcd.c ****           }
 443:Drivers/STM32F4xx_HAL_Driver/Src/stm32f4xx_hal_pcd.c ****            if(( epint & USB_OTG_DIEPINT_TOC) == USB_OTG_DIEPINT_TOC)
 444:Drivers/STM32F4xx_HAL_Driver/Src/stm32f4xx_hal_pcd.c ****           {
 445:Drivers/STM32F4xx_HAL_Driver/Src/stm32f4xx_hal_pcd.c ****             CLEAR_IN_EP_INTR(epnum, USB_OTG_DIEPINT_TOC);
 446:Drivers/STM32F4xx_HAL_Driver/Src/stm32f4xx_hal_pcd.c ****           }
 447:Drivers/STM32F4xx_HAL_Driver/Src/stm32f4xx_hal_pcd.c ****           if(( epint & USB_OTG_DIEPINT_ITTXFE) == USB_OTG_DIEPINT_ITTXFE)
 448:Drivers/STM32F4xx_HAL_Driver/Src/stm32f4xx_hal_pcd.c ****           {
 449:Drivers/STM32F4xx_HAL_Driver/Src/stm32f4xx_hal_pcd.c ****             CLEAR_IN_EP_INTR(epnum, USB_OTG_DIEPINT_ITTXFE);
 450:Drivers/STM32F4xx_HAL_Driver/Src/stm32f4xx_hal_pcd.c ****           }
 451:Drivers/STM32F4xx_HAL_Driver/Src/stm32f4xx_hal_pcd.c ****           if(( epint & USB_OTG_DIEPINT_INEPNE) == USB_OTG_DIEPINT_INEPNE)
 452:Drivers/STM32F4xx_HAL_Driver/Src/stm32f4xx_hal_pcd.c ****           {
 453:Drivers/STM32F4xx_HAL_Driver/Src/stm32f4xx_hal_pcd.c ****             CLEAR_IN_EP_INTR(epnum, USB_OTG_DIEPINT_INEPNE);
 454:Drivers/STM32F4xx_HAL_Driver/Src/stm32f4xx_hal_pcd.c ****           }
 455:Drivers/STM32F4xx_HAL_Driver/Src/stm32f4xx_hal_pcd.c ****           if(( epint & USB_OTG_DIEPINT_EPDISD) == USB_OTG_DIEPINT_EPDISD)
 456:Drivers/STM32F4xx_HAL_Driver/Src/stm32f4xx_hal_pcd.c ****           {
 457:Drivers/STM32F4xx_HAL_Driver/Src/stm32f4xx_hal_pcd.c ****             CLEAR_IN_EP_INTR(epnum, USB_OTG_DIEPINT_EPDISD);
 458:Drivers/STM32F4xx_HAL_Driver/Src/stm32f4xx_hal_pcd.c ****           }       
 459:Drivers/STM32F4xx_HAL_Driver/Src/stm32f4xx_hal_pcd.c ****           if(( epint & USB_OTG_DIEPINT_TXFE) == USB_OTG_DIEPINT_TXFE)
 460:Drivers/STM32F4xx_HAL_Driver/Src/stm32f4xx_hal_pcd.c ****           {
 461:Drivers/STM32F4xx_HAL_Driver/Src/stm32f4xx_hal_pcd.c ****             PCD_WriteEmptyTxFifo(hpcd , epnum);
 462:Drivers/STM32F4xx_HAL_Driver/Src/stm32f4xx_hal_pcd.c ****           }
 463:Drivers/STM32F4xx_HAL_Driver/Src/stm32f4xx_hal_pcd.c ****         }
 464:Drivers/STM32F4xx_HAL_Driver/Src/stm32f4xx_hal_pcd.c ****         epnum++;
 465:Drivers/STM32F4xx_HAL_Driver/Src/stm32f4xx_hal_pcd.c ****         ep_intr >>= 1U;
 466:Drivers/STM32F4xx_HAL_Driver/Src/stm32f4xx_hal_pcd.c ****       }
 467:Drivers/STM32F4xx_HAL_Driver/Src/stm32f4xx_hal_pcd.c ****     }
 468:Drivers/STM32F4xx_HAL_Driver/Src/stm32f4xx_hal_pcd.c ****     
 469:Drivers/STM32F4xx_HAL_Driver/Src/stm32f4xx_hal_pcd.c ****     /* Handle Resume Interrupt */
 470:Drivers/STM32F4xx_HAL_Driver/Src/stm32f4xx_hal_pcd.c ****     if(__HAL_PCD_GET_FLAG(hpcd, USB_OTG_GINTSTS_WKUINT))
 471:Drivers/STM32F4xx_HAL_Driver/Src/stm32f4xx_hal_pcd.c ****     {    
 472:Drivers/STM32F4xx_HAL_Driver/Src/stm32f4xx_hal_pcd.c ****       /* Clear the Remote Wake-up Signaling */
 473:Drivers/STM32F4xx_HAL_Driver/Src/stm32f4xx_hal_pcd.c ****       USBx_DEVICE->DCTL &= ~USB_OTG_DCTL_RWUSIG;
 474:Drivers/STM32F4xx_HAL_Driver/Src/stm32f4xx_hal_pcd.c **** 
 475:Drivers/STM32F4xx_HAL_Driver/Src/stm32f4xx_hal_pcd.c **** #ifdef USB_OTG_GLPMCFG_LPMEN
 476:Drivers/STM32F4xx_HAL_Driver/Src/stm32f4xx_hal_pcd.c ****       if(hpcd->LPM_State == LPM_L1)
 477:Drivers/STM32F4xx_HAL_Driver/Src/stm32f4xx_hal_pcd.c ****       {
 478:Drivers/STM32F4xx_HAL_Driver/Src/stm32f4xx_hal_pcd.c ****         hpcd->LPM_State = LPM_L0;
 479:Drivers/STM32F4xx_HAL_Driver/Src/stm32f4xx_hal_pcd.c ****         HAL_PCDEx_LPM_Callback(hpcd, PCD_LPM_L0_ACTIVE);
 480:Drivers/STM32F4xx_HAL_Driver/Src/stm32f4xx_hal_pcd.c ****       }
 481:Drivers/STM32F4xx_HAL_Driver/Src/stm32f4xx_hal_pcd.c ****       else
 482:Drivers/STM32F4xx_HAL_Driver/Src/stm32f4xx_hal_pcd.c **** #endif /* USB_OTG_GLPMCFG_LPMEN */
 483:Drivers/STM32F4xx_HAL_Driver/Src/stm32f4xx_hal_pcd.c ****       {
 484:Drivers/STM32F4xx_HAL_Driver/Src/stm32f4xx_hal_pcd.c ****         HAL_PCD_ResumeCallback(hpcd);
 485:Drivers/STM32F4xx_HAL_Driver/Src/stm32f4xx_hal_pcd.c ****       }
 486:Drivers/STM32F4xx_HAL_Driver/Src/stm32f4xx_hal_pcd.c ****       
 487:Drivers/STM32F4xx_HAL_Driver/Src/stm32f4xx_hal_pcd.c ****       __HAL_PCD_CLEAR_FLAG(hpcd, USB_OTG_GINTSTS_WKUINT);
 488:Drivers/STM32F4xx_HAL_Driver/Src/stm32f4xx_hal_pcd.c ****     }
ARM GAS  x:\temp2\ccqe4sF7.s 			page 10


 489:Drivers/STM32F4xx_HAL_Driver/Src/stm32f4xx_hal_pcd.c ****     
 490:Drivers/STM32F4xx_HAL_Driver/Src/stm32f4xx_hal_pcd.c ****     /* Handle Suspend Interrupt */
 491:Drivers/STM32F4xx_HAL_Driver/Src/stm32f4xx_hal_pcd.c ****     if(__HAL_PCD_GET_FLAG(hpcd, USB_OTG_GINTSTS_USBSUSP))
 492:Drivers/STM32F4xx_HAL_Driver/Src/stm32f4xx_hal_pcd.c ****     {
 493:Drivers/STM32F4xx_HAL_Driver/Src/stm32f4xx_hal_pcd.c ****       if((USBx_DEVICE->DSTS & USB_OTG_DSTS_SUSPSTS) == USB_OTG_DSTS_SUSPSTS)
 494:Drivers/STM32F4xx_HAL_Driver/Src/stm32f4xx_hal_pcd.c ****       {
 495:Drivers/STM32F4xx_HAL_Driver/Src/stm32f4xx_hal_pcd.c ****         
 496:Drivers/STM32F4xx_HAL_Driver/Src/stm32f4xx_hal_pcd.c ****         HAL_PCD_SuspendCallback(hpcd);
 497:Drivers/STM32F4xx_HAL_Driver/Src/stm32f4xx_hal_pcd.c ****       }
 498:Drivers/STM32F4xx_HAL_Driver/Src/stm32f4xx_hal_pcd.c ****       __HAL_PCD_CLEAR_FLAG(hpcd, USB_OTG_GINTSTS_USBSUSP);
 499:Drivers/STM32F4xx_HAL_Driver/Src/stm32f4xx_hal_pcd.c ****     }
 500:Drivers/STM32F4xx_HAL_Driver/Src/stm32f4xx_hal_pcd.c **** 
 501:Drivers/STM32F4xx_HAL_Driver/Src/stm32f4xx_hal_pcd.c **** #ifdef USB_OTG_GLPMCFG_LPMEN
 502:Drivers/STM32F4xx_HAL_Driver/Src/stm32f4xx_hal_pcd.c ****     /* Handle LPM Interrupt */ 
 503:Drivers/STM32F4xx_HAL_Driver/Src/stm32f4xx_hal_pcd.c ****     if(__HAL_PCD_GET_FLAG(hpcd, USB_OTG_GINTSTS_LPMINT))
 504:Drivers/STM32F4xx_HAL_Driver/Src/stm32f4xx_hal_pcd.c ****     {
 505:Drivers/STM32F4xx_HAL_Driver/Src/stm32f4xx_hal_pcd.c ****       __HAL_PCD_CLEAR_FLAG(hpcd, USB_OTG_GINTSTS_LPMINT);      
 506:Drivers/STM32F4xx_HAL_Driver/Src/stm32f4xx_hal_pcd.c ****       if( hpcd->LPM_State == LPM_L0)
 507:Drivers/STM32F4xx_HAL_Driver/Src/stm32f4xx_hal_pcd.c ****       {
 508:Drivers/STM32F4xx_HAL_Driver/Src/stm32f4xx_hal_pcd.c ****         hpcd->LPM_State = LPM_L1;
 509:Drivers/STM32F4xx_HAL_Driver/Src/stm32f4xx_hal_pcd.c ****         hpcd->BESL = (hpcd->Instance->GLPMCFG & USB_OTG_GLPMCFG_BESL) >> 2U;
 510:Drivers/STM32F4xx_HAL_Driver/Src/stm32f4xx_hal_pcd.c ****         HAL_PCDEx_LPM_Callback(hpcd, PCD_LPM_L1_ACTIVE);
 511:Drivers/STM32F4xx_HAL_Driver/Src/stm32f4xx_hal_pcd.c ****       }
 512:Drivers/STM32F4xx_HAL_Driver/Src/stm32f4xx_hal_pcd.c ****       else
 513:Drivers/STM32F4xx_HAL_Driver/Src/stm32f4xx_hal_pcd.c ****       {
 514:Drivers/STM32F4xx_HAL_Driver/Src/stm32f4xx_hal_pcd.c ****         HAL_PCD_SuspendCallback(hpcd);
 515:Drivers/STM32F4xx_HAL_Driver/Src/stm32f4xx_hal_pcd.c ****       }
 516:Drivers/STM32F4xx_HAL_Driver/Src/stm32f4xx_hal_pcd.c ****     }
 517:Drivers/STM32F4xx_HAL_Driver/Src/stm32f4xx_hal_pcd.c **** #endif /* USB_OTG_GLPMCFG_LPMEN */
 518:Drivers/STM32F4xx_HAL_Driver/Src/stm32f4xx_hal_pcd.c **** 
 519:Drivers/STM32F4xx_HAL_Driver/Src/stm32f4xx_hal_pcd.c ****     /* Handle Reset Interrupt */
 520:Drivers/STM32F4xx_HAL_Driver/Src/stm32f4xx_hal_pcd.c ****     if(__HAL_PCD_GET_FLAG(hpcd, USB_OTG_GINTSTS_USBRST))
 521:Drivers/STM32F4xx_HAL_Driver/Src/stm32f4xx_hal_pcd.c ****     {
 522:Drivers/STM32F4xx_HAL_Driver/Src/stm32f4xx_hal_pcd.c ****       USBx_DEVICE->DCTL &= ~USB_OTG_DCTL_RWUSIG; 
 523:Drivers/STM32F4xx_HAL_Driver/Src/stm32f4xx_hal_pcd.c ****       USB_FlushTxFifo(hpcd->Instance , 0x10U);
 524:Drivers/STM32F4xx_HAL_Driver/Src/stm32f4xx_hal_pcd.c ****       
 525:Drivers/STM32F4xx_HAL_Driver/Src/stm32f4xx_hal_pcd.c ****       for (i = 0U; i < hpcd->Init.dev_endpoints; i++)
 526:Drivers/STM32F4xx_HAL_Driver/Src/stm32f4xx_hal_pcd.c ****       {
 527:Drivers/STM32F4xx_HAL_Driver/Src/stm32f4xx_hal_pcd.c ****         USBx_INEP(i)->DIEPINT = 0xFFU;
 528:Drivers/STM32F4xx_HAL_Driver/Src/stm32f4xx_hal_pcd.c ****         USBx_OUTEP(i)->DOEPINT = 0xFFU;
 529:Drivers/STM32F4xx_HAL_Driver/Src/stm32f4xx_hal_pcd.c ****       }
 530:Drivers/STM32F4xx_HAL_Driver/Src/stm32f4xx_hal_pcd.c ****       USBx_DEVICE->DAINT = 0xFFFFFFFFU;
 531:Drivers/STM32F4xx_HAL_Driver/Src/stm32f4xx_hal_pcd.c ****       USBx_DEVICE->DAINTMSK |= 0x10001U;
 532:Drivers/STM32F4xx_HAL_Driver/Src/stm32f4xx_hal_pcd.c ****       
 533:Drivers/STM32F4xx_HAL_Driver/Src/stm32f4xx_hal_pcd.c ****       if(hpcd->Init.use_dedicated_ep1)
 534:Drivers/STM32F4xx_HAL_Driver/Src/stm32f4xx_hal_pcd.c ****       {
 535:Drivers/STM32F4xx_HAL_Driver/Src/stm32f4xx_hal_pcd.c ****         USBx_DEVICE->DOUTEP1MSK |= (USB_OTG_DOEPMSK_STUPM | USB_OTG_DOEPMSK_XFRCM | USB_OTG_DOEPMSK
 536:Drivers/STM32F4xx_HAL_Driver/Src/stm32f4xx_hal_pcd.c ****         USBx_DEVICE->DINEP1MSK |= (USB_OTG_DIEPMSK_TOM | USB_OTG_DIEPMSK_XFRCM | USB_OTG_DIEPMSK_EP
 537:Drivers/STM32F4xx_HAL_Driver/Src/stm32f4xx_hal_pcd.c ****       }
 538:Drivers/STM32F4xx_HAL_Driver/Src/stm32f4xx_hal_pcd.c ****       else
 539:Drivers/STM32F4xx_HAL_Driver/Src/stm32f4xx_hal_pcd.c ****       {
 540:Drivers/STM32F4xx_HAL_Driver/Src/stm32f4xx_hal_pcd.c **** #ifdef USB_OTG_DOEPINT_OTEPSPR
 541:Drivers/STM32F4xx_HAL_Driver/Src/stm32f4xx_hal_pcd.c ****         USBx_DEVICE->DOEPMSK |= (USB_OTG_DOEPMSK_STUPM | USB_OTG_DOEPMSK_XFRCM | USB_OTG_DOEPMSK_EP
 542:Drivers/STM32F4xx_HAL_Driver/Src/stm32f4xx_hal_pcd.c **** #else
 543:Drivers/STM32F4xx_HAL_Driver/Src/stm32f4xx_hal_pcd.c ****         USBx_DEVICE->DOEPMSK |= (USB_OTG_DOEPMSK_STUPM | USB_OTG_DOEPMSK_XFRCM | USB_OTG_DOEPMSK_EP
 544:Drivers/STM32F4xx_HAL_Driver/Src/stm32f4xx_hal_pcd.c **** #endif /* USB_OTG_DOEPINT_OTEPSPR */
 545:Drivers/STM32F4xx_HAL_Driver/Src/stm32f4xx_hal_pcd.c ****         USBx_DEVICE->DIEPMSK |= (USB_OTG_DIEPMSK_TOM | USB_OTG_DIEPMSK_XFRCM | USB_OTG_DIEPMSK_EPDM
ARM GAS  x:\temp2\ccqe4sF7.s 			page 11


 546:Drivers/STM32F4xx_HAL_Driver/Src/stm32f4xx_hal_pcd.c ****       }
 547:Drivers/STM32F4xx_HAL_Driver/Src/stm32f4xx_hal_pcd.c ****       
 548:Drivers/STM32F4xx_HAL_Driver/Src/stm32f4xx_hal_pcd.c ****       /* Set Default Address to 0 */
 549:Drivers/STM32F4xx_HAL_Driver/Src/stm32f4xx_hal_pcd.c ****       USBx_DEVICE->DCFG &= ~USB_OTG_DCFG_DAD;
 550:Drivers/STM32F4xx_HAL_Driver/Src/stm32f4xx_hal_pcd.c ****       
 551:Drivers/STM32F4xx_HAL_Driver/Src/stm32f4xx_hal_pcd.c ****       /* setup EP0 to receive SETUP packets */
 552:Drivers/STM32F4xx_HAL_Driver/Src/stm32f4xx_hal_pcd.c ****       USB_EP0_OutStart(hpcd->Instance, hpcd->Init.dma_enable, (uint8_t *)hpcd->Setup);
 553:Drivers/STM32F4xx_HAL_Driver/Src/stm32f4xx_hal_pcd.c ****         
 554:Drivers/STM32F4xx_HAL_Driver/Src/stm32f4xx_hal_pcd.c ****       __HAL_PCD_CLEAR_FLAG(hpcd, USB_OTG_GINTSTS_USBRST);
 555:Drivers/STM32F4xx_HAL_Driver/Src/stm32f4xx_hal_pcd.c ****     }
 556:Drivers/STM32F4xx_HAL_Driver/Src/stm32f4xx_hal_pcd.c ****     
 557:Drivers/STM32F4xx_HAL_Driver/Src/stm32f4xx_hal_pcd.c ****     /* Handle Enumeration done Interrupt */
 558:Drivers/STM32F4xx_HAL_Driver/Src/stm32f4xx_hal_pcd.c ****     if(__HAL_PCD_GET_FLAG(hpcd, USB_OTG_GINTSTS_ENUMDNE))
 559:Drivers/STM32F4xx_HAL_Driver/Src/stm32f4xx_hal_pcd.c ****     {
 560:Drivers/STM32F4xx_HAL_Driver/Src/stm32f4xx_hal_pcd.c ****       USB_ActivateSetup(hpcd->Instance);
 561:Drivers/STM32F4xx_HAL_Driver/Src/stm32f4xx_hal_pcd.c ****       hpcd->Instance->GUSBCFG &= ~USB_OTG_GUSBCFG_TRDT;
 562:Drivers/STM32F4xx_HAL_Driver/Src/stm32f4xx_hal_pcd.c ****       
 563:Drivers/STM32F4xx_HAL_Driver/Src/stm32f4xx_hal_pcd.c ****       if ( USB_GetDevSpeed(hpcd->Instance) == USB_OTG_SPEED_HIGH)
 564:Drivers/STM32F4xx_HAL_Driver/Src/stm32f4xx_hal_pcd.c ****       {
 565:Drivers/STM32F4xx_HAL_Driver/Src/stm32f4xx_hal_pcd.c ****         hpcd->Init.speed            = USB_OTG_SPEED_HIGH;
 566:Drivers/STM32F4xx_HAL_Driver/Src/stm32f4xx_hal_pcd.c ****         hpcd->Init.ep0_mps          = USB_OTG_HS_MAX_PACKET_SIZE ;    
 567:Drivers/STM32F4xx_HAL_Driver/Src/stm32f4xx_hal_pcd.c ****         hpcd->Instance->GUSBCFG |= (uint32_t)((USBD_HS_TRDT_VALUE << 10U) & USB_OTG_GUSBCFG_TRDT);
 568:Drivers/STM32F4xx_HAL_Driver/Src/stm32f4xx_hal_pcd.c ****       }
 569:Drivers/STM32F4xx_HAL_Driver/Src/stm32f4xx_hal_pcd.c ****       else
 570:Drivers/STM32F4xx_HAL_Driver/Src/stm32f4xx_hal_pcd.c ****       {
 571:Drivers/STM32F4xx_HAL_Driver/Src/stm32f4xx_hal_pcd.c ****         hpcd->Init.speed            = USB_OTG_SPEED_FULL;
 572:Drivers/STM32F4xx_HAL_Driver/Src/stm32f4xx_hal_pcd.c ****         hpcd->Init.ep0_mps          = USB_OTG_FS_MAX_PACKET_SIZE ;  
 573:Drivers/STM32F4xx_HAL_Driver/Src/stm32f4xx_hal_pcd.c ****         
 574:Drivers/STM32F4xx_HAL_Driver/Src/stm32f4xx_hal_pcd.c ****         /* The USBTRD is configured according to the tables below, depending on AHB frequency 
 575:Drivers/STM32F4xx_HAL_Driver/Src/stm32f4xx_hal_pcd.c ****         used by application. In the low AHB frequency range it is used to stretch enough the USB re
 576:Drivers/STM32F4xx_HAL_Driver/Src/stm32f4xx_hal_pcd.c ****         time to IN tokens, the USB turnaround time, so to compensate for the longer AHB read access
 577:Drivers/STM32F4xx_HAL_Driver/Src/stm32f4xx_hal_pcd.c ****         latency to the Data FIFO */
 578:Drivers/STM32F4xx_HAL_Driver/Src/stm32f4xx_hal_pcd.c ****         
 579:Drivers/STM32F4xx_HAL_Driver/Src/stm32f4xx_hal_pcd.c ****         /* Get hclk frequency value */
 580:Drivers/STM32F4xx_HAL_Driver/Src/stm32f4xx_hal_pcd.c ****         hclk = HAL_RCC_GetHCLKFreq();
 581:Drivers/STM32F4xx_HAL_Driver/Src/stm32f4xx_hal_pcd.c ****         
 582:Drivers/STM32F4xx_HAL_Driver/Src/stm32f4xx_hal_pcd.c ****         if((hclk >= 14200000U)&&(hclk < 15000000U))
 583:Drivers/STM32F4xx_HAL_Driver/Src/stm32f4xx_hal_pcd.c ****         {
 584:Drivers/STM32F4xx_HAL_Driver/Src/stm32f4xx_hal_pcd.c ****           /* hclk Clock Range between 14.2-15 MHz */
 585:Drivers/STM32F4xx_HAL_Driver/Src/stm32f4xx_hal_pcd.c ****           hpcd->Instance->GUSBCFG |= (uint32_t)((0xFU << 10U) & USB_OTG_GUSBCFG_TRDT);
 586:Drivers/STM32F4xx_HAL_Driver/Src/stm32f4xx_hal_pcd.c ****         }
 587:Drivers/STM32F4xx_HAL_Driver/Src/stm32f4xx_hal_pcd.c ****         
 588:Drivers/STM32F4xx_HAL_Driver/Src/stm32f4xx_hal_pcd.c ****         else if((hclk >= 15000000U)&&(hclk < 16000000U))
 589:Drivers/STM32F4xx_HAL_Driver/Src/stm32f4xx_hal_pcd.c ****         {
 590:Drivers/STM32F4xx_HAL_Driver/Src/stm32f4xx_hal_pcd.c ****           /* hclk Clock Range between 15-16 MHz */
 591:Drivers/STM32F4xx_HAL_Driver/Src/stm32f4xx_hal_pcd.c ****           hpcd->Instance->GUSBCFG |= (uint32_t)((0xEU << 10U) & USB_OTG_GUSBCFG_TRDT);
 592:Drivers/STM32F4xx_HAL_Driver/Src/stm32f4xx_hal_pcd.c ****         }
 593:Drivers/STM32F4xx_HAL_Driver/Src/stm32f4xx_hal_pcd.c ****         
 594:Drivers/STM32F4xx_HAL_Driver/Src/stm32f4xx_hal_pcd.c ****         else if((hclk >= 16000000U)&&(hclk < 17200000U))
 595:Drivers/STM32F4xx_HAL_Driver/Src/stm32f4xx_hal_pcd.c ****         {
 596:Drivers/STM32F4xx_HAL_Driver/Src/stm32f4xx_hal_pcd.c ****           /* hclk Clock Range between 16-17.2 MHz */
 597:Drivers/STM32F4xx_HAL_Driver/Src/stm32f4xx_hal_pcd.c ****           hpcd->Instance->GUSBCFG |= (uint32_t)((0xDU << 10U) & USB_OTG_GUSBCFG_TRDT);
 598:Drivers/STM32F4xx_HAL_Driver/Src/stm32f4xx_hal_pcd.c ****         }
 599:Drivers/STM32F4xx_HAL_Driver/Src/stm32f4xx_hal_pcd.c ****         
 600:Drivers/STM32F4xx_HAL_Driver/Src/stm32f4xx_hal_pcd.c ****         else if((hclk >= 17200000U)&&(hclk < 18500000U))
 601:Drivers/STM32F4xx_HAL_Driver/Src/stm32f4xx_hal_pcd.c ****         {
 602:Drivers/STM32F4xx_HAL_Driver/Src/stm32f4xx_hal_pcd.c ****           /* hclk Clock Range between 17.2-18.5 MHz */
ARM GAS  x:\temp2\ccqe4sF7.s 			page 12


 603:Drivers/STM32F4xx_HAL_Driver/Src/stm32f4xx_hal_pcd.c ****           hpcd->Instance->GUSBCFG |= (uint32_t)((0xCU << 10U) & USB_OTG_GUSBCFG_TRDT);
 604:Drivers/STM32F4xx_HAL_Driver/Src/stm32f4xx_hal_pcd.c ****         }
 605:Drivers/STM32F4xx_HAL_Driver/Src/stm32f4xx_hal_pcd.c ****         
 606:Drivers/STM32F4xx_HAL_Driver/Src/stm32f4xx_hal_pcd.c ****         else if((hclk >= 18500000U)&&(hclk < 20000000U))
 607:Drivers/STM32F4xx_HAL_Driver/Src/stm32f4xx_hal_pcd.c ****         {
 608:Drivers/STM32F4xx_HAL_Driver/Src/stm32f4xx_hal_pcd.c ****           /* hclk Clock Range between 18.5-20 MHz */
 609:Drivers/STM32F4xx_HAL_Driver/Src/stm32f4xx_hal_pcd.c ****           hpcd->Instance->GUSBCFG |= (uint32_t)((0xBU << 10U) & USB_OTG_GUSBCFG_TRDT);
 610:Drivers/STM32F4xx_HAL_Driver/Src/stm32f4xx_hal_pcd.c ****         }
 611:Drivers/STM32F4xx_HAL_Driver/Src/stm32f4xx_hal_pcd.c ****         
 612:Drivers/STM32F4xx_HAL_Driver/Src/stm32f4xx_hal_pcd.c ****         else if((hclk >= 20000000U)&&(hclk < 21800000U))
 613:Drivers/STM32F4xx_HAL_Driver/Src/stm32f4xx_hal_pcd.c ****         {
 614:Drivers/STM32F4xx_HAL_Driver/Src/stm32f4xx_hal_pcd.c ****           /* hclk Clock Range between 20-21.8 MHz */
 615:Drivers/STM32F4xx_HAL_Driver/Src/stm32f4xx_hal_pcd.c ****           hpcd->Instance->GUSBCFG |= (uint32_t)((0xAU << 10U) & USB_OTG_GUSBCFG_TRDT);
 616:Drivers/STM32F4xx_HAL_Driver/Src/stm32f4xx_hal_pcd.c ****         }
 617:Drivers/STM32F4xx_HAL_Driver/Src/stm32f4xx_hal_pcd.c ****         
 618:Drivers/STM32F4xx_HAL_Driver/Src/stm32f4xx_hal_pcd.c ****         else if((hclk >= 21800000U)&&(hclk < 24000000U))
 619:Drivers/STM32F4xx_HAL_Driver/Src/stm32f4xx_hal_pcd.c ****         {
 620:Drivers/STM32F4xx_HAL_Driver/Src/stm32f4xx_hal_pcd.c ****           /* hclk Clock Range between 21.8-24 MHz */
 621:Drivers/STM32F4xx_HAL_Driver/Src/stm32f4xx_hal_pcd.c ****           hpcd->Instance->GUSBCFG |= (uint32_t)((0x9U << 10U) & USB_OTG_GUSBCFG_TRDT);
 622:Drivers/STM32F4xx_HAL_Driver/Src/stm32f4xx_hal_pcd.c ****         }
 623:Drivers/STM32F4xx_HAL_Driver/Src/stm32f4xx_hal_pcd.c ****         
 624:Drivers/STM32F4xx_HAL_Driver/Src/stm32f4xx_hal_pcd.c ****         else if((hclk >= 24000000U)&&(hclk < 27700000U))
 625:Drivers/STM32F4xx_HAL_Driver/Src/stm32f4xx_hal_pcd.c ****         {
 626:Drivers/STM32F4xx_HAL_Driver/Src/stm32f4xx_hal_pcd.c ****           /* hclk Clock Range between 24-27.7 MHz */
 627:Drivers/STM32F4xx_HAL_Driver/Src/stm32f4xx_hal_pcd.c ****           hpcd->Instance->GUSBCFG |= (uint32_t)((0x8U << 10U) & USB_OTG_GUSBCFG_TRDT);
 628:Drivers/STM32F4xx_HAL_Driver/Src/stm32f4xx_hal_pcd.c ****         }
 629:Drivers/STM32F4xx_HAL_Driver/Src/stm32f4xx_hal_pcd.c ****         
 630:Drivers/STM32F4xx_HAL_Driver/Src/stm32f4xx_hal_pcd.c ****         else if((hclk >= 27700000U)&&(hclk < 32000000U))
 631:Drivers/STM32F4xx_HAL_Driver/Src/stm32f4xx_hal_pcd.c ****         {
 632:Drivers/STM32F4xx_HAL_Driver/Src/stm32f4xx_hal_pcd.c ****           /* hclk Clock Range between 27.7-32 MHz */
 633:Drivers/STM32F4xx_HAL_Driver/Src/stm32f4xx_hal_pcd.c ****           hpcd->Instance->GUSBCFG |= (uint32_t)((0x7U << 10U) & USB_OTG_GUSBCFG_TRDT);
 634:Drivers/STM32F4xx_HAL_Driver/Src/stm32f4xx_hal_pcd.c ****         }
 635:Drivers/STM32F4xx_HAL_Driver/Src/stm32f4xx_hal_pcd.c ****         
 636:Drivers/STM32F4xx_HAL_Driver/Src/stm32f4xx_hal_pcd.c ****         else /* if(hclk >= 32000000) */
 637:Drivers/STM32F4xx_HAL_Driver/Src/stm32f4xx_hal_pcd.c ****         {
 638:Drivers/STM32F4xx_HAL_Driver/Src/stm32f4xx_hal_pcd.c ****           /* hclk Clock Range between 32-180 MHz */
 639:Drivers/STM32F4xx_HAL_Driver/Src/stm32f4xx_hal_pcd.c ****           hpcd->Instance->GUSBCFG |= (uint32_t)((0x6U << 10U) & USB_OTG_GUSBCFG_TRDT);
 640:Drivers/STM32F4xx_HAL_Driver/Src/stm32f4xx_hal_pcd.c ****         }  
 641:Drivers/STM32F4xx_HAL_Driver/Src/stm32f4xx_hal_pcd.c ****       }
 642:Drivers/STM32F4xx_HAL_Driver/Src/stm32f4xx_hal_pcd.c ****       
 643:Drivers/STM32F4xx_HAL_Driver/Src/stm32f4xx_hal_pcd.c ****       HAL_PCD_ResetCallback(hpcd);
 644:Drivers/STM32F4xx_HAL_Driver/Src/stm32f4xx_hal_pcd.c ****       
 645:Drivers/STM32F4xx_HAL_Driver/Src/stm32f4xx_hal_pcd.c ****       __HAL_PCD_CLEAR_FLAG(hpcd, USB_OTG_GINTSTS_ENUMDNE);
 646:Drivers/STM32F4xx_HAL_Driver/Src/stm32f4xx_hal_pcd.c ****     }
 647:Drivers/STM32F4xx_HAL_Driver/Src/stm32f4xx_hal_pcd.c **** 
 648:Drivers/STM32F4xx_HAL_Driver/Src/stm32f4xx_hal_pcd.c ****     /* Handle RxQLevel Interrupt */
 649:Drivers/STM32F4xx_HAL_Driver/Src/stm32f4xx_hal_pcd.c ****     if(__HAL_PCD_GET_FLAG(hpcd, USB_OTG_GINTSTS_RXFLVL))
 650:Drivers/STM32F4xx_HAL_Driver/Src/stm32f4xx_hal_pcd.c ****     {
 651:Drivers/STM32F4xx_HAL_Driver/Src/stm32f4xx_hal_pcd.c ****       USB_MASK_INTERRUPT(hpcd->Instance, USB_OTG_GINTSTS_RXFLVL);
 652:Drivers/STM32F4xx_HAL_Driver/Src/stm32f4xx_hal_pcd.c ****       
 653:Drivers/STM32F4xx_HAL_Driver/Src/stm32f4xx_hal_pcd.c ****       temp = USBx->GRXSTSP;
 654:Drivers/STM32F4xx_HAL_Driver/Src/stm32f4xx_hal_pcd.c ****       
 655:Drivers/STM32F4xx_HAL_Driver/Src/stm32f4xx_hal_pcd.c ****       ep = &hpcd->OUT_ep[temp & USB_OTG_GRXSTSP_EPNUM];
 656:Drivers/STM32F4xx_HAL_Driver/Src/stm32f4xx_hal_pcd.c ****       
 657:Drivers/STM32F4xx_HAL_Driver/Src/stm32f4xx_hal_pcd.c ****       if(((temp & USB_OTG_GRXSTSP_PKTSTS) >> 17U) ==  STS_DATA_UPDT)
 658:Drivers/STM32F4xx_HAL_Driver/Src/stm32f4xx_hal_pcd.c ****       {
 659:Drivers/STM32F4xx_HAL_Driver/Src/stm32f4xx_hal_pcd.c ****         if((temp & USB_OTG_GRXSTSP_BCNT) != 0U)
ARM GAS  x:\temp2\ccqe4sF7.s 			page 13


 660:Drivers/STM32F4xx_HAL_Driver/Src/stm32f4xx_hal_pcd.c ****         {
 661:Drivers/STM32F4xx_HAL_Driver/Src/stm32f4xx_hal_pcd.c ****           USB_ReadPacket(USBx, ep->xfer_buff, (temp & USB_OTG_GRXSTSP_BCNT) >> 4U);
 662:Drivers/STM32F4xx_HAL_Driver/Src/stm32f4xx_hal_pcd.c ****           ep->xfer_buff += (temp & USB_OTG_GRXSTSP_BCNT) >> 4U;
 663:Drivers/STM32F4xx_HAL_Driver/Src/stm32f4xx_hal_pcd.c ****           ep->xfer_count += (temp & USB_OTG_GRXSTSP_BCNT) >> 4U;
 664:Drivers/STM32F4xx_HAL_Driver/Src/stm32f4xx_hal_pcd.c ****         }
 665:Drivers/STM32F4xx_HAL_Driver/Src/stm32f4xx_hal_pcd.c ****       }
 666:Drivers/STM32F4xx_HAL_Driver/Src/stm32f4xx_hal_pcd.c ****       else if (((temp & USB_OTG_GRXSTSP_PKTSTS) >> 17U) ==  STS_SETUP_UPDT)
 667:Drivers/STM32F4xx_HAL_Driver/Src/stm32f4xx_hal_pcd.c ****       {
 668:Drivers/STM32F4xx_HAL_Driver/Src/stm32f4xx_hal_pcd.c ****         USB_ReadPacket(USBx, (uint8_t *)hpcd->Setup, 8U);
 669:Drivers/STM32F4xx_HAL_Driver/Src/stm32f4xx_hal_pcd.c ****         ep->xfer_count += (temp & USB_OTG_GRXSTSP_BCNT) >> 4U;
 670:Drivers/STM32F4xx_HAL_Driver/Src/stm32f4xx_hal_pcd.c ****       }
 671:Drivers/STM32F4xx_HAL_Driver/Src/stm32f4xx_hal_pcd.c ****       USB_UNMASK_INTERRUPT(hpcd->Instance, USB_OTG_GINTSTS_RXFLVL);
 672:Drivers/STM32F4xx_HAL_Driver/Src/stm32f4xx_hal_pcd.c ****     }
 673:Drivers/STM32F4xx_HAL_Driver/Src/stm32f4xx_hal_pcd.c ****     
 674:Drivers/STM32F4xx_HAL_Driver/Src/stm32f4xx_hal_pcd.c ****     /* Handle SOF Interrupt */
 675:Drivers/STM32F4xx_HAL_Driver/Src/stm32f4xx_hal_pcd.c ****     if(__HAL_PCD_GET_FLAG(hpcd, USB_OTG_GINTSTS_SOF))
 676:Drivers/STM32F4xx_HAL_Driver/Src/stm32f4xx_hal_pcd.c ****     {
 677:Drivers/STM32F4xx_HAL_Driver/Src/stm32f4xx_hal_pcd.c ****       HAL_PCD_SOFCallback(hpcd);
 678:Drivers/STM32F4xx_HAL_Driver/Src/stm32f4xx_hal_pcd.c ****       __HAL_PCD_CLEAR_FLAG(hpcd, USB_OTG_GINTSTS_SOF);
 679:Drivers/STM32F4xx_HAL_Driver/Src/stm32f4xx_hal_pcd.c ****     }
 680:Drivers/STM32F4xx_HAL_Driver/Src/stm32f4xx_hal_pcd.c ****     
 681:Drivers/STM32F4xx_HAL_Driver/Src/stm32f4xx_hal_pcd.c ****     /* Handle Incomplete ISO IN Interrupt */
 682:Drivers/STM32F4xx_HAL_Driver/Src/stm32f4xx_hal_pcd.c ****     if(__HAL_PCD_GET_FLAG(hpcd, USB_OTG_GINTSTS_IISOIXFR))
 683:Drivers/STM32F4xx_HAL_Driver/Src/stm32f4xx_hal_pcd.c ****     {
 684:Drivers/STM32F4xx_HAL_Driver/Src/stm32f4xx_hal_pcd.c ****       HAL_PCD_ISOINIncompleteCallback(hpcd, epnum);
 685:Drivers/STM32F4xx_HAL_Driver/Src/stm32f4xx_hal_pcd.c ****       __HAL_PCD_CLEAR_FLAG(hpcd, USB_OTG_GINTSTS_IISOIXFR);
 686:Drivers/STM32F4xx_HAL_Driver/Src/stm32f4xx_hal_pcd.c ****     } 
 687:Drivers/STM32F4xx_HAL_Driver/Src/stm32f4xx_hal_pcd.c ****     
 688:Drivers/STM32F4xx_HAL_Driver/Src/stm32f4xx_hal_pcd.c ****     /* Handle Incomplete ISO OUT Interrupt */
 689:Drivers/STM32F4xx_HAL_Driver/Src/stm32f4xx_hal_pcd.c ****     if(__HAL_PCD_GET_FLAG(hpcd, USB_OTG_GINTSTS_PXFR_INCOMPISOOUT))
 690:Drivers/STM32F4xx_HAL_Driver/Src/stm32f4xx_hal_pcd.c ****     {
 691:Drivers/STM32F4xx_HAL_Driver/Src/stm32f4xx_hal_pcd.c ****       HAL_PCD_ISOOUTIncompleteCallback(hpcd, epnum);
 692:Drivers/STM32F4xx_HAL_Driver/Src/stm32f4xx_hal_pcd.c ****       __HAL_PCD_CLEAR_FLAG(hpcd, USB_OTG_GINTSTS_PXFR_INCOMPISOOUT);
 693:Drivers/STM32F4xx_HAL_Driver/Src/stm32f4xx_hal_pcd.c ****     } 
 694:Drivers/STM32F4xx_HAL_Driver/Src/stm32f4xx_hal_pcd.c ****     
 695:Drivers/STM32F4xx_HAL_Driver/Src/stm32f4xx_hal_pcd.c ****     /* Handle Connection event Interrupt */
 696:Drivers/STM32F4xx_HAL_Driver/Src/stm32f4xx_hal_pcd.c ****     if(__HAL_PCD_GET_FLAG(hpcd, USB_OTG_GINTSTS_SRQINT))
 697:Drivers/STM32F4xx_HAL_Driver/Src/stm32f4xx_hal_pcd.c ****     {
 698:Drivers/STM32F4xx_HAL_Driver/Src/stm32f4xx_hal_pcd.c ****       HAL_PCD_ConnectCallback(hpcd);
 699:Drivers/STM32F4xx_HAL_Driver/Src/stm32f4xx_hal_pcd.c ****       __HAL_PCD_CLEAR_FLAG(hpcd, USB_OTG_GINTSTS_SRQINT);
 700:Drivers/STM32F4xx_HAL_Driver/Src/stm32f4xx_hal_pcd.c ****     } 
 701:Drivers/STM32F4xx_HAL_Driver/Src/stm32f4xx_hal_pcd.c ****     
 702:Drivers/STM32F4xx_HAL_Driver/Src/stm32f4xx_hal_pcd.c ****     /* Handle Disconnection event Interrupt */
 703:Drivers/STM32F4xx_HAL_Driver/Src/stm32f4xx_hal_pcd.c ****     if(__HAL_PCD_GET_FLAG(hpcd, USB_OTG_GINTSTS_OTGINT))
 704:Drivers/STM32F4xx_HAL_Driver/Src/stm32f4xx_hal_pcd.c ****     {
 705:Drivers/STM32F4xx_HAL_Driver/Src/stm32f4xx_hal_pcd.c ****       temp = hpcd->Instance->GOTGINT;
 706:Drivers/STM32F4xx_HAL_Driver/Src/stm32f4xx_hal_pcd.c ****       
 707:Drivers/STM32F4xx_HAL_Driver/Src/stm32f4xx_hal_pcd.c ****       if((temp & USB_OTG_GOTGINT_SEDET) == USB_OTG_GOTGINT_SEDET)
 708:Drivers/STM32F4xx_HAL_Driver/Src/stm32f4xx_hal_pcd.c ****       {
 709:Drivers/STM32F4xx_HAL_Driver/Src/stm32f4xx_hal_pcd.c ****         HAL_PCD_DisconnectCallback(hpcd);
 710:Drivers/STM32F4xx_HAL_Driver/Src/stm32f4xx_hal_pcd.c ****       }
 711:Drivers/STM32F4xx_HAL_Driver/Src/stm32f4xx_hal_pcd.c ****       hpcd->Instance->GOTGINT |= temp;
 712:Drivers/STM32F4xx_HAL_Driver/Src/stm32f4xx_hal_pcd.c ****     }
 713:Drivers/STM32F4xx_HAL_Driver/Src/stm32f4xx_hal_pcd.c ****   }
 714:Drivers/STM32F4xx_HAL_Driver/Src/stm32f4xx_hal_pcd.c **** }
 715:Drivers/STM32F4xx_HAL_Driver/Src/stm32f4xx_hal_pcd.c **** 
 716:Drivers/STM32F4xx_HAL_Driver/Src/stm32f4xx_hal_pcd.c **** /**
ARM GAS  x:\temp2\ccqe4sF7.s 			page 14


 717:Drivers/STM32F4xx_HAL_Driver/Src/stm32f4xx_hal_pcd.c ****   * @brief  Data OUT stage callback.
 718:Drivers/STM32F4xx_HAL_Driver/Src/stm32f4xx_hal_pcd.c ****   * @param  hpcd PCD handle
 719:Drivers/STM32F4xx_HAL_Driver/Src/stm32f4xx_hal_pcd.c ****   * @param  epnum endpoint number  
 720:Drivers/STM32F4xx_HAL_Driver/Src/stm32f4xx_hal_pcd.c ****   * @retval None
 721:Drivers/STM32F4xx_HAL_Driver/Src/stm32f4xx_hal_pcd.c ****   */
 722:Drivers/STM32F4xx_HAL_Driver/Src/stm32f4xx_hal_pcd.c ****  __weak void HAL_PCD_DataOutStageCallback(PCD_HandleTypeDef *hpcd, uint8_t epnum)
 723:Drivers/STM32F4xx_HAL_Driver/Src/stm32f4xx_hal_pcd.c **** {
 724:Drivers/STM32F4xx_HAL_Driver/Src/stm32f4xx_hal_pcd.c ****   /* Prevent unused argument(s) compilation warning */
 725:Drivers/STM32F4xx_HAL_Driver/Src/stm32f4xx_hal_pcd.c ****   UNUSED(hpcd);
 726:Drivers/STM32F4xx_HAL_Driver/Src/stm32f4xx_hal_pcd.c ****   UNUSED(epnum);
 727:Drivers/STM32F4xx_HAL_Driver/Src/stm32f4xx_hal_pcd.c ****   /* NOTE : This function Should not be modified, when the callback is needed,
 728:Drivers/STM32F4xx_HAL_Driver/Src/stm32f4xx_hal_pcd.c ****             the HAL_PCD_DataOutStageCallback could be implemented in the user file
 729:Drivers/STM32F4xx_HAL_Driver/Src/stm32f4xx_hal_pcd.c ****    */ 
 730:Drivers/STM32F4xx_HAL_Driver/Src/stm32f4xx_hal_pcd.c **** }
 731:Drivers/STM32F4xx_HAL_Driver/Src/stm32f4xx_hal_pcd.c **** 
 732:Drivers/STM32F4xx_HAL_Driver/Src/stm32f4xx_hal_pcd.c **** /**
 733:Drivers/STM32F4xx_HAL_Driver/Src/stm32f4xx_hal_pcd.c ****   * @brief  Data IN stage callback.
 734:Drivers/STM32F4xx_HAL_Driver/Src/stm32f4xx_hal_pcd.c ****   * @param  hpcd PCD handle
 735:Drivers/STM32F4xx_HAL_Driver/Src/stm32f4xx_hal_pcd.c ****   * @param  epnum endpoint number
 736:Drivers/STM32F4xx_HAL_Driver/Src/stm32f4xx_hal_pcd.c ****   * @retval None
 737:Drivers/STM32F4xx_HAL_Driver/Src/stm32f4xx_hal_pcd.c ****   */
 738:Drivers/STM32F4xx_HAL_Driver/Src/stm32f4xx_hal_pcd.c ****  __weak void HAL_PCD_DataInStageCallback(PCD_HandleTypeDef *hpcd, uint8_t epnum)
 739:Drivers/STM32F4xx_HAL_Driver/Src/stm32f4xx_hal_pcd.c **** {
 740:Drivers/STM32F4xx_HAL_Driver/Src/stm32f4xx_hal_pcd.c ****   /* Prevent unused argument(s) compilation warning */
 741:Drivers/STM32F4xx_HAL_Driver/Src/stm32f4xx_hal_pcd.c ****   UNUSED(hpcd);
 742:Drivers/STM32F4xx_HAL_Driver/Src/stm32f4xx_hal_pcd.c ****   UNUSED(epnum);
 743:Drivers/STM32F4xx_HAL_Driver/Src/stm32f4xx_hal_pcd.c ****   /* NOTE : This function Should not be modified, when the callback is needed,
 744:Drivers/STM32F4xx_HAL_Driver/Src/stm32f4xx_hal_pcd.c ****             the HAL_PCD_DataInStageCallback could be implemented in the user file
 745:Drivers/STM32F4xx_HAL_Driver/Src/stm32f4xx_hal_pcd.c ****    */ 
 746:Drivers/STM32F4xx_HAL_Driver/Src/stm32f4xx_hal_pcd.c **** }
 747:Drivers/STM32F4xx_HAL_Driver/Src/stm32f4xx_hal_pcd.c **** /**
 748:Drivers/STM32F4xx_HAL_Driver/Src/stm32f4xx_hal_pcd.c ****   * @brief  Setup stage callback.
 749:Drivers/STM32F4xx_HAL_Driver/Src/stm32f4xx_hal_pcd.c ****   * @param  hpcd PCD handle
 750:Drivers/STM32F4xx_HAL_Driver/Src/stm32f4xx_hal_pcd.c ****   * @retval None
 751:Drivers/STM32F4xx_HAL_Driver/Src/stm32f4xx_hal_pcd.c ****   */
 752:Drivers/STM32F4xx_HAL_Driver/Src/stm32f4xx_hal_pcd.c ****  __weak void HAL_PCD_SetupStageCallback(PCD_HandleTypeDef *hpcd)
 753:Drivers/STM32F4xx_HAL_Driver/Src/stm32f4xx_hal_pcd.c **** {
 754:Drivers/STM32F4xx_HAL_Driver/Src/stm32f4xx_hal_pcd.c ****   /* Prevent unused argument(s) compilation warning */
 755:Drivers/STM32F4xx_HAL_Driver/Src/stm32f4xx_hal_pcd.c ****   UNUSED(hpcd);
 756:Drivers/STM32F4xx_HAL_Driver/Src/stm32f4xx_hal_pcd.c ****   /* NOTE : This function Should not be modified, when the callback is needed,
 757:Drivers/STM32F4xx_HAL_Driver/Src/stm32f4xx_hal_pcd.c ****             the HAL_PCD_SetupStageCallback could be implemented in the user file
 758:Drivers/STM32F4xx_HAL_Driver/Src/stm32f4xx_hal_pcd.c ****    */ 
 759:Drivers/STM32F4xx_HAL_Driver/Src/stm32f4xx_hal_pcd.c **** }
 760:Drivers/STM32F4xx_HAL_Driver/Src/stm32f4xx_hal_pcd.c **** 
 761:Drivers/STM32F4xx_HAL_Driver/Src/stm32f4xx_hal_pcd.c **** /**
 762:Drivers/STM32F4xx_HAL_Driver/Src/stm32f4xx_hal_pcd.c ****   * @brief  USB Start Of Frame callback.
 763:Drivers/STM32F4xx_HAL_Driver/Src/stm32f4xx_hal_pcd.c ****   * @param  hpcd PCD handle
 764:Drivers/STM32F4xx_HAL_Driver/Src/stm32f4xx_hal_pcd.c ****   * @retval None
 765:Drivers/STM32F4xx_HAL_Driver/Src/stm32f4xx_hal_pcd.c ****   */
 766:Drivers/STM32F4xx_HAL_Driver/Src/stm32f4xx_hal_pcd.c ****  __weak void HAL_PCD_SOFCallback(PCD_HandleTypeDef *hpcd)
 767:Drivers/STM32F4xx_HAL_Driver/Src/stm32f4xx_hal_pcd.c **** {
 768:Drivers/STM32F4xx_HAL_Driver/Src/stm32f4xx_hal_pcd.c ****   /* Prevent unused argument(s) compilation warning */
 769:Drivers/STM32F4xx_HAL_Driver/Src/stm32f4xx_hal_pcd.c ****   UNUSED(hpcd);
 770:Drivers/STM32F4xx_HAL_Driver/Src/stm32f4xx_hal_pcd.c ****   /* NOTE : This function Should not be modified, when the callback is needed,
 771:Drivers/STM32F4xx_HAL_Driver/Src/stm32f4xx_hal_pcd.c ****             the HAL_PCD_SOFCallback could be implemented in the user file
 772:Drivers/STM32F4xx_HAL_Driver/Src/stm32f4xx_hal_pcd.c ****    */ 
 773:Drivers/STM32F4xx_HAL_Driver/Src/stm32f4xx_hal_pcd.c **** }
ARM GAS  x:\temp2\ccqe4sF7.s 			page 15


 774:Drivers/STM32F4xx_HAL_Driver/Src/stm32f4xx_hal_pcd.c **** 
 775:Drivers/STM32F4xx_HAL_Driver/Src/stm32f4xx_hal_pcd.c **** /**
 776:Drivers/STM32F4xx_HAL_Driver/Src/stm32f4xx_hal_pcd.c ****   * @brief  USB Reset callback.
 777:Drivers/STM32F4xx_HAL_Driver/Src/stm32f4xx_hal_pcd.c ****   * @param  hpcd PCD handle
 778:Drivers/STM32F4xx_HAL_Driver/Src/stm32f4xx_hal_pcd.c ****   * @retval None
 779:Drivers/STM32F4xx_HAL_Driver/Src/stm32f4xx_hal_pcd.c ****   */
 780:Drivers/STM32F4xx_HAL_Driver/Src/stm32f4xx_hal_pcd.c ****  __weak void HAL_PCD_ResetCallback(PCD_HandleTypeDef *hpcd)
 781:Drivers/STM32F4xx_HAL_Driver/Src/stm32f4xx_hal_pcd.c **** {
 782:Drivers/STM32F4xx_HAL_Driver/Src/stm32f4xx_hal_pcd.c ****   /* Prevent unused argument(s) compilation warning */
 783:Drivers/STM32F4xx_HAL_Driver/Src/stm32f4xx_hal_pcd.c ****   UNUSED(hpcd);
 784:Drivers/STM32F4xx_HAL_Driver/Src/stm32f4xx_hal_pcd.c ****   /* NOTE : This function Should not be modified, when the callback is needed,
 785:Drivers/STM32F4xx_HAL_Driver/Src/stm32f4xx_hal_pcd.c ****             the HAL_PCD_ResetCallback could be implemented in the user file
 786:Drivers/STM32F4xx_HAL_Driver/Src/stm32f4xx_hal_pcd.c ****    */ 
 787:Drivers/STM32F4xx_HAL_Driver/Src/stm32f4xx_hal_pcd.c **** }
 788:Drivers/STM32F4xx_HAL_Driver/Src/stm32f4xx_hal_pcd.c **** 
 789:Drivers/STM32F4xx_HAL_Driver/Src/stm32f4xx_hal_pcd.c **** /**
 790:Drivers/STM32F4xx_HAL_Driver/Src/stm32f4xx_hal_pcd.c ****   * @brief  Suspend event callback.
 791:Drivers/STM32F4xx_HAL_Driver/Src/stm32f4xx_hal_pcd.c ****   * @param  hpcd PCD handle
 792:Drivers/STM32F4xx_HAL_Driver/Src/stm32f4xx_hal_pcd.c ****   * @retval None
 793:Drivers/STM32F4xx_HAL_Driver/Src/stm32f4xx_hal_pcd.c ****   */
 794:Drivers/STM32F4xx_HAL_Driver/Src/stm32f4xx_hal_pcd.c ****  __weak void HAL_PCD_SuspendCallback(PCD_HandleTypeDef *hpcd)
 795:Drivers/STM32F4xx_HAL_Driver/Src/stm32f4xx_hal_pcd.c **** {
 796:Drivers/STM32F4xx_HAL_Driver/Src/stm32f4xx_hal_pcd.c ****   /* Prevent unused argument(s) compilation warning */
 797:Drivers/STM32F4xx_HAL_Driver/Src/stm32f4xx_hal_pcd.c ****   UNUSED(hpcd);
 798:Drivers/STM32F4xx_HAL_Driver/Src/stm32f4xx_hal_pcd.c ****   /* NOTE : This function Should not be modified, when the callback is needed,
 799:Drivers/STM32F4xx_HAL_Driver/Src/stm32f4xx_hal_pcd.c ****             the HAL_PCD_SuspendCallback could be implemented in the user file
 800:Drivers/STM32F4xx_HAL_Driver/Src/stm32f4xx_hal_pcd.c ****    */ 
 801:Drivers/STM32F4xx_HAL_Driver/Src/stm32f4xx_hal_pcd.c **** }
 802:Drivers/STM32F4xx_HAL_Driver/Src/stm32f4xx_hal_pcd.c **** 
 803:Drivers/STM32F4xx_HAL_Driver/Src/stm32f4xx_hal_pcd.c **** /**
 804:Drivers/STM32F4xx_HAL_Driver/Src/stm32f4xx_hal_pcd.c ****   * @brief  Resume event callback.
 805:Drivers/STM32F4xx_HAL_Driver/Src/stm32f4xx_hal_pcd.c ****   * @param  hpcd PCD handle
 806:Drivers/STM32F4xx_HAL_Driver/Src/stm32f4xx_hal_pcd.c ****   * @retval None
 807:Drivers/STM32F4xx_HAL_Driver/Src/stm32f4xx_hal_pcd.c ****   */
 808:Drivers/STM32F4xx_HAL_Driver/Src/stm32f4xx_hal_pcd.c ****  __weak void HAL_PCD_ResumeCallback(PCD_HandleTypeDef *hpcd)
 809:Drivers/STM32F4xx_HAL_Driver/Src/stm32f4xx_hal_pcd.c **** {
 810:Drivers/STM32F4xx_HAL_Driver/Src/stm32f4xx_hal_pcd.c ****   /* Prevent unused argument(s) compilation warning */
 811:Drivers/STM32F4xx_HAL_Driver/Src/stm32f4xx_hal_pcd.c ****   UNUSED(hpcd);
 812:Drivers/STM32F4xx_HAL_Driver/Src/stm32f4xx_hal_pcd.c ****   /* NOTE : This function Should not be modified, when the callback is needed,
 813:Drivers/STM32F4xx_HAL_Driver/Src/stm32f4xx_hal_pcd.c ****             the HAL_PCD_ResumeCallback could be implemented in the user file
 814:Drivers/STM32F4xx_HAL_Driver/Src/stm32f4xx_hal_pcd.c ****    */ 
 815:Drivers/STM32F4xx_HAL_Driver/Src/stm32f4xx_hal_pcd.c **** }
 816:Drivers/STM32F4xx_HAL_Driver/Src/stm32f4xx_hal_pcd.c **** 
 817:Drivers/STM32F4xx_HAL_Driver/Src/stm32f4xx_hal_pcd.c **** /**
 818:Drivers/STM32F4xx_HAL_Driver/Src/stm32f4xx_hal_pcd.c ****   * @brief  Incomplete ISO OUT callback.
 819:Drivers/STM32F4xx_HAL_Driver/Src/stm32f4xx_hal_pcd.c ****   * @param  hpcd PCD handle
 820:Drivers/STM32F4xx_HAL_Driver/Src/stm32f4xx_hal_pcd.c ****   * @param  epnum endpoint number
 821:Drivers/STM32F4xx_HAL_Driver/Src/stm32f4xx_hal_pcd.c ****   * @retval None
 822:Drivers/STM32F4xx_HAL_Driver/Src/stm32f4xx_hal_pcd.c ****   */
 823:Drivers/STM32F4xx_HAL_Driver/Src/stm32f4xx_hal_pcd.c ****  __weak void HAL_PCD_ISOOUTIncompleteCallback(PCD_HandleTypeDef *hpcd, uint8_t epnum)
 824:Drivers/STM32F4xx_HAL_Driver/Src/stm32f4xx_hal_pcd.c **** {
 825:Drivers/STM32F4xx_HAL_Driver/Src/stm32f4xx_hal_pcd.c ****   /* Prevent unused argument(s) compilation warning */
 826:Drivers/STM32F4xx_HAL_Driver/Src/stm32f4xx_hal_pcd.c ****   UNUSED(hpcd);
 827:Drivers/STM32F4xx_HAL_Driver/Src/stm32f4xx_hal_pcd.c ****   UNUSED(epnum);
 828:Drivers/STM32F4xx_HAL_Driver/Src/stm32f4xx_hal_pcd.c ****   /* NOTE : This function Should not be modified, when the callback is needed,
 829:Drivers/STM32F4xx_HAL_Driver/Src/stm32f4xx_hal_pcd.c ****             the HAL_PCD_ISOOUTIncompleteCallback could be implemented in the user file
 830:Drivers/STM32F4xx_HAL_Driver/Src/stm32f4xx_hal_pcd.c ****    */ 
ARM GAS  x:\temp2\ccqe4sF7.s 			page 16


 831:Drivers/STM32F4xx_HAL_Driver/Src/stm32f4xx_hal_pcd.c **** }
 832:Drivers/STM32F4xx_HAL_Driver/Src/stm32f4xx_hal_pcd.c **** 
 833:Drivers/STM32F4xx_HAL_Driver/Src/stm32f4xx_hal_pcd.c **** /**
 834:Drivers/STM32F4xx_HAL_Driver/Src/stm32f4xx_hal_pcd.c ****   * @brief  Incomplete ISO IN callback.
 835:Drivers/STM32F4xx_HAL_Driver/Src/stm32f4xx_hal_pcd.c ****   * @param  hpcd PCD handle
 836:Drivers/STM32F4xx_HAL_Driver/Src/stm32f4xx_hal_pcd.c ****   * @param  epnum endpoint number  
 837:Drivers/STM32F4xx_HAL_Driver/Src/stm32f4xx_hal_pcd.c ****   * @retval None
 838:Drivers/STM32F4xx_HAL_Driver/Src/stm32f4xx_hal_pcd.c ****   */
 839:Drivers/STM32F4xx_HAL_Driver/Src/stm32f4xx_hal_pcd.c ****  __weak void HAL_PCD_ISOINIncompleteCallback(PCD_HandleTypeDef *hpcd, uint8_t epnum)
 840:Drivers/STM32F4xx_HAL_Driver/Src/stm32f4xx_hal_pcd.c **** {
 841:Drivers/STM32F4xx_HAL_Driver/Src/stm32f4xx_hal_pcd.c ****   /* Prevent unused argument(s) compilation warning */
 842:Drivers/STM32F4xx_HAL_Driver/Src/stm32f4xx_hal_pcd.c ****   UNUSED(hpcd);
 843:Drivers/STM32F4xx_HAL_Driver/Src/stm32f4xx_hal_pcd.c ****   UNUSED(epnum);
 844:Drivers/STM32F4xx_HAL_Driver/Src/stm32f4xx_hal_pcd.c ****   /* NOTE : This function Should not be modified, when the callback is needed,
 845:Drivers/STM32F4xx_HAL_Driver/Src/stm32f4xx_hal_pcd.c ****             the HAL_PCD_ISOINIncompleteCallback could be implemented in the user file
 846:Drivers/STM32F4xx_HAL_Driver/Src/stm32f4xx_hal_pcd.c ****    */ 
 847:Drivers/STM32F4xx_HAL_Driver/Src/stm32f4xx_hal_pcd.c **** }
 848:Drivers/STM32F4xx_HAL_Driver/Src/stm32f4xx_hal_pcd.c **** 
 849:Drivers/STM32F4xx_HAL_Driver/Src/stm32f4xx_hal_pcd.c **** /**
 850:Drivers/STM32F4xx_HAL_Driver/Src/stm32f4xx_hal_pcd.c ****   * @brief  Connection event callback.
 851:Drivers/STM32F4xx_HAL_Driver/Src/stm32f4xx_hal_pcd.c ****   * @param  hpcd PCD handle
 852:Drivers/STM32F4xx_HAL_Driver/Src/stm32f4xx_hal_pcd.c ****   * @retval None
 853:Drivers/STM32F4xx_HAL_Driver/Src/stm32f4xx_hal_pcd.c ****   */
 854:Drivers/STM32F4xx_HAL_Driver/Src/stm32f4xx_hal_pcd.c ****  __weak void HAL_PCD_ConnectCallback(PCD_HandleTypeDef *hpcd)
 855:Drivers/STM32F4xx_HAL_Driver/Src/stm32f4xx_hal_pcd.c **** {
 856:Drivers/STM32F4xx_HAL_Driver/Src/stm32f4xx_hal_pcd.c ****   /* Prevent unused argument(s) compilation warning */
 857:Drivers/STM32F4xx_HAL_Driver/Src/stm32f4xx_hal_pcd.c ****   UNUSED(hpcd);
 858:Drivers/STM32F4xx_HAL_Driver/Src/stm32f4xx_hal_pcd.c ****   /* NOTE : This function Should not be modified, when the callback is needed,
 859:Drivers/STM32F4xx_HAL_Driver/Src/stm32f4xx_hal_pcd.c ****             the HAL_PCD_ConnectCallback could be implemented in the user file
 860:Drivers/STM32F4xx_HAL_Driver/Src/stm32f4xx_hal_pcd.c ****    */ 
 861:Drivers/STM32F4xx_HAL_Driver/Src/stm32f4xx_hal_pcd.c **** }
 862:Drivers/STM32F4xx_HAL_Driver/Src/stm32f4xx_hal_pcd.c **** 
 863:Drivers/STM32F4xx_HAL_Driver/Src/stm32f4xx_hal_pcd.c **** /**
 864:Drivers/STM32F4xx_HAL_Driver/Src/stm32f4xx_hal_pcd.c ****   * @brief  Disconnection event callback.
 865:Drivers/STM32F4xx_HAL_Driver/Src/stm32f4xx_hal_pcd.c ****   * @param  hpcd PCD handle
 866:Drivers/STM32F4xx_HAL_Driver/Src/stm32f4xx_hal_pcd.c ****   * @retval None
 867:Drivers/STM32F4xx_HAL_Driver/Src/stm32f4xx_hal_pcd.c ****   */
 868:Drivers/STM32F4xx_HAL_Driver/Src/stm32f4xx_hal_pcd.c ****  __weak void HAL_PCD_DisconnectCallback(PCD_HandleTypeDef *hpcd)
 869:Drivers/STM32F4xx_HAL_Driver/Src/stm32f4xx_hal_pcd.c **** {
 870:Drivers/STM32F4xx_HAL_Driver/Src/stm32f4xx_hal_pcd.c ****   /* Prevent unused argument(s) compilation warning */
 871:Drivers/STM32F4xx_HAL_Driver/Src/stm32f4xx_hal_pcd.c ****   UNUSED(hpcd);
 872:Drivers/STM32F4xx_HAL_Driver/Src/stm32f4xx_hal_pcd.c ****   /* NOTE : This function Should not be modified, when the callback is needed,
 873:Drivers/STM32F4xx_HAL_Driver/Src/stm32f4xx_hal_pcd.c ****             the HAL_PCD_DisconnectCallback could be implemented in the user file
 874:Drivers/STM32F4xx_HAL_Driver/Src/stm32f4xx_hal_pcd.c ****    */ 
 875:Drivers/STM32F4xx_HAL_Driver/Src/stm32f4xx_hal_pcd.c **** }
 876:Drivers/STM32F4xx_HAL_Driver/Src/stm32f4xx_hal_pcd.c **** 
 877:Drivers/STM32F4xx_HAL_Driver/Src/stm32f4xx_hal_pcd.c **** /**
 878:Drivers/STM32F4xx_HAL_Driver/Src/stm32f4xx_hal_pcd.c ****   * @}
 879:Drivers/STM32F4xx_HAL_Driver/Src/stm32f4xx_hal_pcd.c ****   */
 880:Drivers/STM32F4xx_HAL_Driver/Src/stm32f4xx_hal_pcd.c **** 
 881:Drivers/STM32F4xx_HAL_Driver/Src/stm32f4xx_hal_pcd.c **** /** @defgroup PCD_Exported_Functions_Group3 Peripheral Control functions
 882:Drivers/STM32F4xx_HAL_Driver/Src/stm32f4xx_hal_pcd.c ****  *  @brief   management functions
 883:Drivers/STM32F4xx_HAL_Driver/Src/stm32f4xx_hal_pcd.c ****  *
 884:Drivers/STM32F4xx_HAL_Driver/Src/stm32f4xx_hal_pcd.c **** @verbatim 
 885:Drivers/STM32F4xx_HAL_Driver/Src/stm32f4xx_hal_pcd.c ****  ===============================================================================
 886:Drivers/STM32F4xx_HAL_Driver/Src/stm32f4xx_hal_pcd.c ****                       ##### Peripheral Control functions #####
 887:Drivers/STM32F4xx_HAL_Driver/Src/stm32f4xx_hal_pcd.c ****  ===============================================================================  
ARM GAS  x:\temp2\ccqe4sF7.s 			page 17


 888:Drivers/STM32F4xx_HAL_Driver/Src/stm32f4xx_hal_pcd.c ****     [..]
 889:Drivers/STM32F4xx_HAL_Driver/Src/stm32f4xx_hal_pcd.c ****     This subsection provides a set of functions allowing to control the PCD data 
 890:Drivers/STM32F4xx_HAL_Driver/Src/stm32f4xx_hal_pcd.c ****     transfers.
 891:Drivers/STM32F4xx_HAL_Driver/Src/stm32f4xx_hal_pcd.c **** 
 892:Drivers/STM32F4xx_HAL_Driver/Src/stm32f4xx_hal_pcd.c **** @endverbatim
 893:Drivers/STM32F4xx_HAL_Driver/Src/stm32f4xx_hal_pcd.c ****   * @{
 894:Drivers/STM32F4xx_HAL_Driver/Src/stm32f4xx_hal_pcd.c ****   */
 895:Drivers/STM32F4xx_HAL_Driver/Src/stm32f4xx_hal_pcd.c **** 
 896:Drivers/STM32F4xx_HAL_Driver/Src/stm32f4xx_hal_pcd.c **** /**
 897:Drivers/STM32F4xx_HAL_Driver/Src/stm32f4xx_hal_pcd.c ****   * @brief  Connect the USB device.
 898:Drivers/STM32F4xx_HAL_Driver/Src/stm32f4xx_hal_pcd.c ****   * @param  hpcd PCD handle
 899:Drivers/STM32F4xx_HAL_Driver/Src/stm32f4xx_hal_pcd.c ****   * @retval HAL status
 900:Drivers/STM32F4xx_HAL_Driver/Src/stm32f4xx_hal_pcd.c ****   */
 901:Drivers/STM32F4xx_HAL_Driver/Src/stm32f4xx_hal_pcd.c **** HAL_StatusTypeDef HAL_PCD_DevConnect(PCD_HandleTypeDef *hpcd)
 902:Drivers/STM32F4xx_HAL_Driver/Src/stm32f4xx_hal_pcd.c **** {
 903:Drivers/STM32F4xx_HAL_Driver/Src/stm32f4xx_hal_pcd.c ****   __HAL_LOCK(hpcd); 
 904:Drivers/STM32F4xx_HAL_Driver/Src/stm32f4xx_hal_pcd.c ****   USB_DevConnect(hpcd->Instance);
 905:Drivers/STM32F4xx_HAL_Driver/Src/stm32f4xx_hal_pcd.c ****   __HAL_UNLOCK(hpcd); 
 906:Drivers/STM32F4xx_HAL_Driver/Src/stm32f4xx_hal_pcd.c ****   return HAL_OK;
 907:Drivers/STM32F4xx_HAL_Driver/Src/stm32f4xx_hal_pcd.c **** }
 908:Drivers/STM32F4xx_HAL_Driver/Src/stm32f4xx_hal_pcd.c **** 
 909:Drivers/STM32F4xx_HAL_Driver/Src/stm32f4xx_hal_pcd.c **** /**
 910:Drivers/STM32F4xx_HAL_Driver/Src/stm32f4xx_hal_pcd.c ****   * @brief  Disconnect the USB device.
 911:Drivers/STM32F4xx_HAL_Driver/Src/stm32f4xx_hal_pcd.c ****   * @param  hpcd PCD handle
 912:Drivers/STM32F4xx_HAL_Driver/Src/stm32f4xx_hal_pcd.c ****   * @retval HAL status
 913:Drivers/STM32F4xx_HAL_Driver/Src/stm32f4xx_hal_pcd.c ****   */
 914:Drivers/STM32F4xx_HAL_Driver/Src/stm32f4xx_hal_pcd.c **** HAL_StatusTypeDef HAL_PCD_DevDisconnect(PCD_HandleTypeDef *hpcd)
 915:Drivers/STM32F4xx_HAL_Driver/Src/stm32f4xx_hal_pcd.c **** {
 916:Drivers/STM32F4xx_HAL_Driver/Src/stm32f4xx_hal_pcd.c ****   __HAL_LOCK(hpcd); 
 917:Drivers/STM32F4xx_HAL_Driver/Src/stm32f4xx_hal_pcd.c ****   USB_DevDisconnect(hpcd->Instance);
 918:Drivers/STM32F4xx_HAL_Driver/Src/stm32f4xx_hal_pcd.c ****   __HAL_UNLOCK(hpcd); 
 919:Drivers/STM32F4xx_HAL_Driver/Src/stm32f4xx_hal_pcd.c ****   return HAL_OK;
 920:Drivers/STM32F4xx_HAL_Driver/Src/stm32f4xx_hal_pcd.c **** }
 921:Drivers/STM32F4xx_HAL_Driver/Src/stm32f4xx_hal_pcd.c **** 
 922:Drivers/STM32F4xx_HAL_Driver/Src/stm32f4xx_hal_pcd.c **** /**
 923:Drivers/STM32F4xx_HAL_Driver/Src/stm32f4xx_hal_pcd.c ****   * @brief  Set the USB Device address. 
 924:Drivers/STM32F4xx_HAL_Driver/Src/stm32f4xx_hal_pcd.c ****   * @param  hpcd PCD handle
 925:Drivers/STM32F4xx_HAL_Driver/Src/stm32f4xx_hal_pcd.c ****   * @param  address new device address
 926:Drivers/STM32F4xx_HAL_Driver/Src/stm32f4xx_hal_pcd.c ****   * @retval HAL status
 927:Drivers/STM32F4xx_HAL_Driver/Src/stm32f4xx_hal_pcd.c ****   */
 928:Drivers/STM32F4xx_HAL_Driver/Src/stm32f4xx_hal_pcd.c **** HAL_StatusTypeDef HAL_PCD_SetAddress(PCD_HandleTypeDef *hpcd, uint8_t address)
 929:Drivers/STM32F4xx_HAL_Driver/Src/stm32f4xx_hal_pcd.c **** {
 930:Drivers/STM32F4xx_HAL_Driver/Src/stm32f4xx_hal_pcd.c ****   __HAL_LOCK(hpcd); 
 931:Drivers/STM32F4xx_HAL_Driver/Src/stm32f4xx_hal_pcd.c ****   USB_SetDevAddress(hpcd->Instance, address);
 932:Drivers/STM32F4xx_HAL_Driver/Src/stm32f4xx_hal_pcd.c ****   __HAL_UNLOCK(hpcd);   
 933:Drivers/STM32F4xx_HAL_Driver/Src/stm32f4xx_hal_pcd.c ****   return HAL_OK;
 934:Drivers/STM32F4xx_HAL_Driver/Src/stm32f4xx_hal_pcd.c **** }
 935:Drivers/STM32F4xx_HAL_Driver/Src/stm32f4xx_hal_pcd.c **** /**
 936:Drivers/STM32F4xx_HAL_Driver/Src/stm32f4xx_hal_pcd.c ****   * @brief  Open and configure an endpoint.
 937:Drivers/STM32F4xx_HAL_Driver/Src/stm32f4xx_hal_pcd.c ****   * @param  hpcd PCD handle
 938:Drivers/STM32F4xx_HAL_Driver/Src/stm32f4xx_hal_pcd.c ****   * @param  ep_addr endpoint address
 939:Drivers/STM32F4xx_HAL_Driver/Src/stm32f4xx_hal_pcd.c ****   * @param  ep_mps endpoint max packet size
 940:Drivers/STM32F4xx_HAL_Driver/Src/stm32f4xx_hal_pcd.c ****   * @param  ep_type endpoint type   
 941:Drivers/STM32F4xx_HAL_Driver/Src/stm32f4xx_hal_pcd.c ****   * @retval HAL status
 942:Drivers/STM32F4xx_HAL_Driver/Src/stm32f4xx_hal_pcd.c ****   */
 943:Drivers/STM32F4xx_HAL_Driver/Src/stm32f4xx_hal_pcd.c **** HAL_StatusTypeDef HAL_PCD_EP_Open(PCD_HandleTypeDef *hpcd, uint8_t ep_addr, uint16_t ep_mps, uint8_
 944:Drivers/STM32F4xx_HAL_Driver/Src/stm32f4xx_hal_pcd.c **** {
ARM GAS  x:\temp2\ccqe4sF7.s 			page 18


 945:Drivers/STM32F4xx_HAL_Driver/Src/stm32f4xx_hal_pcd.c ****   HAL_StatusTypeDef  ret = HAL_OK;
 946:Drivers/STM32F4xx_HAL_Driver/Src/stm32f4xx_hal_pcd.c ****   USB_OTG_EPTypeDef *ep;
 947:Drivers/STM32F4xx_HAL_Driver/Src/stm32f4xx_hal_pcd.c ****   
 948:Drivers/STM32F4xx_HAL_Driver/Src/stm32f4xx_hal_pcd.c ****   if ((ep_addr & 0x80) == 0x80)
 949:Drivers/STM32F4xx_HAL_Driver/Src/stm32f4xx_hal_pcd.c ****   {
 950:Drivers/STM32F4xx_HAL_Driver/Src/stm32f4xx_hal_pcd.c ****     ep = &hpcd->IN_ep[ep_addr & 0x7F];
 951:Drivers/STM32F4xx_HAL_Driver/Src/stm32f4xx_hal_pcd.c ****   }
 952:Drivers/STM32F4xx_HAL_Driver/Src/stm32f4xx_hal_pcd.c ****   else
 953:Drivers/STM32F4xx_HAL_Driver/Src/stm32f4xx_hal_pcd.c ****   {
 954:Drivers/STM32F4xx_HAL_Driver/Src/stm32f4xx_hal_pcd.c ****     ep = &hpcd->OUT_ep[ep_addr & 0x7F];
 955:Drivers/STM32F4xx_HAL_Driver/Src/stm32f4xx_hal_pcd.c ****   }
 956:Drivers/STM32F4xx_HAL_Driver/Src/stm32f4xx_hal_pcd.c ****   ep->num   = ep_addr & 0x7F;
 957:Drivers/STM32F4xx_HAL_Driver/Src/stm32f4xx_hal_pcd.c ****   
 958:Drivers/STM32F4xx_HAL_Driver/Src/stm32f4xx_hal_pcd.c ****   ep->is_in = (0x80 & ep_addr) != 0;
 959:Drivers/STM32F4xx_HAL_Driver/Src/stm32f4xx_hal_pcd.c ****   ep->maxpacket = ep_mps;
 960:Drivers/STM32F4xx_HAL_Driver/Src/stm32f4xx_hal_pcd.c ****   ep->type = ep_type;
 961:Drivers/STM32F4xx_HAL_Driver/Src/stm32f4xx_hal_pcd.c ****   if (ep->is_in)
 962:Drivers/STM32F4xx_HAL_Driver/Src/stm32f4xx_hal_pcd.c ****   {
 963:Drivers/STM32F4xx_HAL_Driver/Src/stm32f4xx_hal_pcd.c ****     /* Assign a Tx FIFO */
 964:Drivers/STM32F4xx_HAL_Driver/Src/stm32f4xx_hal_pcd.c ****     ep->tx_fifo_num = ep->num;
 965:Drivers/STM32F4xx_HAL_Driver/Src/stm32f4xx_hal_pcd.c ****   }
 966:Drivers/STM32F4xx_HAL_Driver/Src/stm32f4xx_hal_pcd.c ****   /* Set initial data PID. */
 967:Drivers/STM32F4xx_HAL_Driver/Src/stm32f4xx_hal_pcd.c ****   if (ep_type == EP_TYPE_BULK )
 968:Drivers/STM32F4xx_HAL_Driver/Src/stm32f4xx_hal_pcd.c ****   {
 969:Drivers/STM32F4xx_HAL_Driver/Src/stm32f4xx_hal_pcd.c ****     ep->data_pid_start = 0U;
 970:Drivers/STM32F4xx_HAL_Driver/Src/stm32f4xx_hal_pcd.c ****   }
 971:Drivers/STM32F4xx_HAL_Driver/Src/stm32f4xx_hal_pcd.c ****   
 972:Drivers/STM32F4xx_HAL_Driver/Src/stm32f4xx_hal_pcd.c ****   __HAL_LOCK(hpcd); 
 973:Drivers/STM32F4xx_HAL_Driver/Src/stm32f4xx_hal_pcd.c ****   USB_ActivateEndpoint(hpcd->Instance , ep);
 974:Drivers/STM32F4xx_HAL_Driver/Src/stm32f4xx_hal_pcd.c ****   __HAL_UNLOCK(hpcd);   
 975:Drivers/STM32F4xx_HAL_Driver/Src/stm32f4xx_hal_pcd.c ****   return ret;
 976:Drivers/STM32F4xx_HAL_Driver/Src/stm32f4xx_hal_pcd.c **** }
 977:Drivers/STM32F4xx_HAL_Driver/Src/stm32f4xx_hal_pcd.c **** 
 978:Drivers/STM32F4xx_HAL_Driver/Src/stm32f4xx_hal_pcd.c **** 
 979:Drivers/STM32F4xx_HAL_Driver/Src/stm32f4xx_hal_pcd.c **** /**
 980:Drivers/STM32F4xx_HAL_Driver/Src/stm32f4xx_hal_pcd.c ****   * @brief  Deactivate an endpoint.
 981:Drivers/STM32F4xx_HAL_Driver/Src/stm32f4xx_hal_pcd.c ****   * @param  hpcd PCD handle
 982:Drivers/STM32F4xx_HAL_Driver/Src/stm32f4xx_hal_pcd.c ****   * @param  ep_addr endpoint address
 983:Drivers/STM32F4xx_HAL_Driver/Src/stm32f4xx_hal_pcd.c ****   * @retval HAL status
 984:Drivers/STM32F4xx_HAL_Driver/Src/stm32f4xx_hal_pcd.c ****   */
 985:Drivers/STM32F4xx_HAL_Driver/Src/stm32f4xx_hal_pcd.c **** HAL_StatusTypeDef HAL_PCD_EP_Close(PCD_HandleTypeDef *hpcd, uint8_t ep_addr)
 986:Drivers/STM32F4xx_HAL_Driver/Src/stm32f4xx_hal_pcd.c **** {  
 987:Drivers/STM32F4xx_HAL_Driver/Src/stm32f4xx_hal_pcd.c ****   USB_OTG_EPTypeDef *ep;
 988:Drivers/STM32F4xx_HAL_Driver/Src/stm32f4xx_hal_pcd.c ****   
 989:Drivers/STM32F4xx_HAL_Driver/Src/stm32f4xx_hal_pcd.c ****   if ((ep_addr & 0x80) == 0x80)
 990:Drivers/STM32F4xx_HAL_Driver/Src/stm32f4xx_hal_pcd.c ****   {
 991:Drivers/STM32F4xx_HAL_Driver/Src/stm32f4xx_hal_pcd.c ****     ep = &hpcd->IN_ep[ep_addr & 0x7F];
 992:Drivers/STM32F4xx_HAL_Driver/Src/stm32f4xx_hal_pcd.c ****   }
 993:Drivers/STM32F4xx_HAL_Driver/Src/stm32f4xx_hal_pcd.c ****   else
 994:Drivers/STM32F4xx_HAL_Driver/Src/stm32f4xx_hal_pcd.c ****   {
 995:Drivers/STM32F4xx_HAL_Driver/Src/stm32f4xx_hal_pcd.c ****     ep = &hpcd->OUT_ep[ep_addr & 0x7F];
 996:Drivers/STM32F4xx_HAL_Driver/Src/stm32f4xx_hal_pcd.c ****   }
 997:Drivers/STM32F4xx_HAL_Driver/Src/stm32f4xx_hal_pcd.c ****   ep->num   = ep_addr & 0x7F;
 998:Drivers/STM32F4xx_HAL_Driver/Src/stm32f4xx_hal_pcd.c ****   
 999:Drivers/STM32F4xx_HAL_Driver/Src/stm32f4xx_hal_pcd.c ****   ep->is_in = (0x80 & ep_addr) != 0;
1000:Drivers/STM32F4xx_HAL_Driver/Src/stm32f4xx_hal_pcd.c ****   
1001:Drivers/STM32F4xx_HAL_Driver/Src/stm32f4xx_hal_pcd.c ****   __HAL_LOCK(hpcd); 
ARM GAS  x:\temp2\ccqe4sF7.s 			page 19


1002:Drivers/STM32F4xx_HAL_Driver/Src/stm32f4xx_hal_pcd.c ****   USB_DeactivateEndpoint(hpcd->Instance , ep);
1003:Drivers/STM32F4xx_HAL_Driver/Src/stm32f4xx_hal_pcd.c ****   __HAL_UNLOCK(hpcd);   
1004:Drivers/STM32F4xx_HAL_Driver/Src/stm32f4xx_hal_pcd.c ****   return HAL_OK;
1005:Drivers/STM32F4xx_HAL_Driver/Src/stm32f4xx_hal_pcd.c **** }
1006:Drivers/STM32F4xx_HAL_Driver/Src/stm32f4xx_hal_pcd.c **** 
1007:Drivers/STM32F4xx_HAL_Driver/Src/stm32f4xx_hal_pcd.c **** 
1008:Drivers/STM32F4xx_HAL_Driver/Src/stm32f4xx_hal_pcd.c **** /**
1009:Drivers/STM32F4xx_HAL_Driver/Src/stm32f4xx_hal_pcd.c ****   * @brief  Receive an amount of data.  
1010:Drivers/STM32F4xx_HAL_Driver/Src/stm32f4xx_hal_pcd.c ****   * @param  hpcd PCD handle
1011:Drivers/STM32F4xx_HAL_Driver/Src/stm32f4xx_hal_pcd.c ****   * @param  ep_addr endpoint address
1012:Drivers/STM32F4xx_HAL_Driver/Src/stm32f4xx_hal_pcd.c ****   * @param  pBuf pointer to the reception buffer   
1013:Drivers/STM32F4xx_HAL_Driver/Src/stm32f4xx_hal_pcd.c ****   * @param  len amount of data to be received
1014:Drivers/STM32F4xx_HAL_Driver/Src/stm32f4xx_hal_pcd.c ****   * @retval HAL status
1015:Drivers/STM32F4xx_HAL_Driver/Src/stm32f4xx_hal_pcd.c ****   */
1016:Drivers/STM32F4xx_HAL_Driver/Src/stm32f4xx_hal_pcd.c **** HAL_StatusTypeDef HAL_PCD_EP_Receive(PCD_HandleTypeDef *hpcd, uint8_t ep_addr, uint8_t *pBuf, uint3
1017:Drivers/STM32F4xx_HAL_Driver/Src/stm32f4xx_hal_pcd.c **** {
1018:Drivers/STM32F4xx_HAL_Driver/Src/stm32f4xx_hal_pcd.c ****   USB_OTG_EPTypeDef *ep;
1019:Drivers/STM32F4xx_HAL_Driver/Src/stm32f4xx_hal_pcd.c ****   
1020:Drivers/STM32F4xx_HAL_Driver/Src/stm32f4xx_hal_pcd.c ****   ep = &hpcd->OUT_ep[ep_addr & 0x7F];
1021:Drivers/STM32F4xx_HAL_Driver/Src/stm32f4xx_hal_pcd.c ****   
1022:Drivers/STM32F4xx_HAL_Driver/Src/stm32f4xx_hal_pcd.c ****   /*setup and start the Xfer */
1023:Drivers/STM32F4xx_HAL_Driver/Src/stm32f4xx_hal_pcd.c ****   ep->xfer_buff = pBuf;  
1024:Drivers/STM32F4xx_HAL_Driver/Src/stm32f4xx_hal_pcd.c ****   ep->xfer_len = len;
1025:Drivers/STM32F4xx_HAL_Driver/Src/stm32f4xx_hal_pcd.c ****   ep->xfer_count = 0U;
1026:Drivers/STM32F4xx_HAL_Driver/Src/stm32f4xx_hal_pcd.c ****   ep->is_in = 0U;
1027:Drivers/STM32F4xx_HAL_Driver/Src/stm32f4xx_hal_pcd.c ****   ep->num = ep_addr & 0x7F;
1028:Drivers/STM32F4xx_HAL_Driver/Src/stm32f4xx_hal_pcd.c ****   
1029:Drivers/STM32F4xx_HAL_Driver/Src/stm32f4xx_hal_pcd.c ****   if (hpcd->Init.dma_enable == 1U)
1030:Drivers/STM32F4xx_HAL_Driver/Src/stm32f4xx_hal_pcd.c ****   {
1031:Drivers/STM32F4xx_HAL_Driver/Src/stm32f4xx_hal_pcd.c ****     ep->dma_addr = (uint32_t)pBuf;  
1032:Drivers/STM32F4xx_HAL_Driver/Src/stm32f4xx_hal_pcd.c ****   }
1033:Drivers/STM32F4xx_HAL_Driver/Src/stm32f4xx_hal_pcd.c ****   
1034:Drivers/STM32F4xx_HAL_Driver/Src/stm32f4xx_hal_pcd.c ****   if ((ep_addr & 0x7F) == 0)
1035:Drivers/STM32F4xx_HAL_Driver/Src/stm32f4xx_hal_pcd.c ****   {
1036:Drivers/STM32F4xx_HAL_Driver/Src/stm32f4xx_hal_pcd.c ****     USB_EP0StartXfer(hpcd->Instance , ep, hpcd->Init.dma_enable);
1037:Drivers/STM32F4xx_HAL_Driver/Src/stm32f4xx_hal_pcd.c ****   }
1038:Drivers/STM32F4xx_HAL_Driver/Src/stm32f4xx_hal_pcd.c ****   else
1039:Drivers/STM32F4xx_HAL_Driver/Src/stm32f4xx_hal_pcd.c ****   {
1040:Drivers/STM32F4xx_HAL_Driver/Src/stm32f4xx_hal_pcd.c ****     USB_EPStartXfer(hpcd->Instance , ep, hpcd->Init.dma_enable);
1041:Drivers/STM32F4xx_HAL_Driver/Src/stm32f4xx_hal_pcd.c ****   }
1042:Drivers/STM32F4xx_HAL_Driver/Src/stm32f4xx_hal_pcd.c ****   
1043:Drivers/STM32F4xx_HAL_Driver/Src/stm32f4xx_hal_pcd.c ****   return HAL_OK;
1044:Drivers/STM32F4xx_HAL_Driver/Src/stm32f4xx_hal_pcd.c **** }
1045:Drivers/STM32F4xx_HAL_Driver/Src/stm32f4xx_hal_pcd.c **** 
1046:Drivers/STM32F4xx_HAL_Driver/Src/stm32f4xx_hal_pcd.c **** /**
1047:Drivers/STM32F4xx_HAL_Driver/Src/stm32f4xx_hal_pcd.c ****   * @brief  Get Received Data Size.
1048:Drivers/STM32F4xx_HAL_Driver/Src/stm32f4xx_hal_pcd.c ****   * @param  hpcd PCD handle
1049:Drivers/STM32F4xx_HAL_Driver/Src/stm32f4xx_hal_pcd.c ****   * @param  ep_addr endpoint address
1050:Drivers/STM32F4xx_HAL_Driver/Src/stm32f4xx_hal_pcd.c ****   * @retval Data Size
1051:Drivers/STM32F4xx_HAL_Driver/Src/stm32f4xx_hal_pcd.c ****   */
1052:Drivers/STM32F4xx_HAL_Driver/Src/stm32f4xx_hal_pcd.c **** uint16_t HAL_PCD_EP_GetRxCount(PCD_HandleTypeDef *hpcd, uint8_t ep_addr)
1053:Drivers/STM32F4xx_HAL_Driver/Src/stm32f4xx_hal_pcd.c **** {
1054:Drivers/STM32F4xx_HAL_Driver/Src/stm32f4xx_hal_pcd.c ****   return hpcd->OUT_ep[ep_addr & 0xF].xfer_count;
1055:Drivers/STM32F4xx_HAL_Driver/Src/stm32f4xx_hal_pcd.c **** }
1056:Drivers/STM32F4xx_HAL_Driver/Src/stm32f4xx_hal_pcd.c **** /**
1057:Drivers/STM32F4xx_HAL_Driver/Src/stm32f4xx_hal_pcd.c ****   * @brief  Send an amount of data.  
1058:Drivers/STM32F4xx_HAL_Driver/Src/stm32f4xx_hal_pcd.c ****   * @param  hpcd PCD handle
ARM GAS  x:\temp2\ccqe4sF7.s 			page 20


1059:Drivers/STM32F4xx_HAL_Driver/Src/stm32f4xx_hal_pcd.c ****   * @param  ep_addr endpoint address
1060:Drivers/STM32F4xx_HAL_Driver/Src/stm32f4xx_hal_pcd.c ****   * @param  pBuf pointer to the transmission buffer   
1061:Drivers/STM32F4xx_HAL_Driver/Src/stm32f4xx_hal_pcd.c ****   * @param  len amount of data to be sent
1062:Drivers/STM32F4xx_HAL_Driver/Src/stm32f4xx_hal_pcd.c ****   * @retval HAL status
1063:Drivers/STM32F4xx_HAL_Driver/Src/stm32f4xx_hal_pcd.c ****   */
1064:Drivers/STM32F4xx_HAL_Driver/Src/stm32f4xx_hal_pcd.c **** HAL_StatusTypeDef HAL_PCD_EP_Transmit(PCD_HandleTypeDef *hpcd, uint8_t ep_addr, uint8_t *pBuf, uint
1065:Drivers/STM32F4xx_HAL_Driver/Src/stm32f4xx_hal_pcd.c **** {
1066:Drivers/STM32F4xx_HAL_Driver/Src/stm32f4xx_hal_pcd.c ****   USB_OTG_EPTypeDef *ep;
1067:Drivers/STM32F4xx_HAL_Driver/Src/stm32f4xx_hal_pcd.c ****   
1068:Drivers/STM32F4xx_HAL_Driver/Src/stm32f4xx_hal_pcd.c ****   ep = &hpcd->IN_ep[ep_addr & 0x7F];
1069:Drivers/STM32F4xx_HAL_Driver/Src/stm32f4xx_hal_pcd.c ****   
1070:Drivers/STM32F4xx_HAL_Driver/Src/stm32f4xx_hal_pcd.c ****   /*setup and start the Xfer */
1071:Drivers/STM32F4xx_HAL_Driver/Src/stm32f4xx_hal_pcd.c ****   ep->xfer_buff = pBuf;  
1072:Drivers/STM32F4xx_HAL_Driver/Src/stm32f4xx_hal_pcd.c ****   ep->xfer_len = len;
1073:Drivers/STM32F4xx_HAL_Driver/Src/stm32f4xx_hal_pcd.c ****   ep->xfer_count = 0U;
1074:Drivers/STM32F4xx_HAL_Driver/Src/stm32f4xx_hal_pcd.c ****   ep->is_in = 1U;
1075:Drivers/STM32F4xx_HAL_Driver/Src/stm32f4xx_hal_pcd.c ****   ep->num = ep_addr & 0x7F;
1076:Drivers/STM32F4xx_HAL_Driver/Src/stm32f4xx_hal_pcd.c ****   
1077:Drivers/STM32F4xx_HAL_Driver/Src/stm32f4xx_hal_pcd.c ****   if (hpcd->Init.dma_enable == 1U)
1078:Drivers/STM32F4xx_HAL_Driver/Src/stm32f4xx_hal_pcd.c ****   {
1079:Drivers/STM32F4xx_HAL_Driver/Src/stm32f4xx_hal_pcd.c ****     ep->dma_addr = (uint32_t)pBuf;  
1080:Drivers/STM32F4xx_HAL_Driver/Src/stm32f4xx_hal_pcd.c ****   }
1081:Drivers/STM32F4xx_HAL_Driver/Src/stm32f4xx_hal_pcd.c ****   
1082:Drivers/STM32F4xx_HAL_Driver/Src/stm32f4xx_hal_pcd.c ****   if ((ep_addr & 0x7F) == 0)
1083:Drivers/STM32F4xx_HAL_Driver/Src/stm32f4xx_hal_pcd.c ****   {
1084:Drivers/STM32F4xx_HAL_Driver/Src/stm32f4xx_hal_pcd.c ****     USB_EP0StartXfer(hpcd->Instance , ep, hpcd->Init.dma_enable);
1085:Drivers/STM32F4xx_HAL_Driver/Src/stm32f4xx_hal_pcd.c ****   }
1086:Drivers/STM32F4xx_HAL_Driver/Src/stm32f4xx_hal_pcd.c ****   else
1087:Drivers/STM32F4xx_HAL_Driver/Src/stm32f4xx_hal_pcd.c ****   {
1088:Drivers/STM32F4xx_HAL_Driver/Src/stm32f4xx_hal_pcd.c ****     USB_EPStartXfer(hpcd->Instance , ep, hpcd->Init.dma_enable);
1089:Drivers/STM32F4xx_HAL_Driver/Src/stm32f4xx_hal_pcd.c ****   }
1090:Drivers/STM32F4xx_HAL_Driver/Src/stm32f4xx_hal_pcd.c ****   
1091:Drivers/STM32F4xx_HAL_Driver/Src/stm32f4xx_hal_pcd.c ****   return HAL_OK;
1092:Drivers/STM32F4xx_HAL_Driver/Src/stm32f4xx_hal_pcd.c **** }
1093:Drivers/STM32F4xx_HAL_Driver/Src/stm32f4xx_hal_pcd.c **** 
1094:Drivers/STM32F4xx_HAL_Driver/Src/stm32f4xx_hal_pcd.c **** /**
1095:Drivers/STM32F4xx_HAL_Driver/Src/stm32f4xx_hal_pcd.c ****   * @brief  Set a STALL condition over an endpoint.
1096:Drivers/STM32F4xx_HAL_Driver/Src/stm32f4xx_hal_pcd.c ****   * @param  hpcd PCD handle
1097:Drivers/STM32F4xx_HAL_Driver/Src/stm32f4xx_hal_pcd.c ****   * @param  ep_addr endpoint address
1098:Drivers/STM32F4xx_HAL_Driver/Src/stm32f4xx_hal_pcd.c ****   * @retval HAL status
1099:Drivers/STM32F4xx_HAL_Driver/Src/stm32f4xx_hal_pcd.c ****   */
1100:Drivers/STM32F4xx_HAL_Driver/Src/stm32f4xx_hal_pcd.c **** HAL_StatusTypeDef HAL_PCD_EP_SetStall(PCD_HandleTypeDef *hpcd, uint8_t ep_addr)
1101:Drivers/STM32F4xx_HAL_Driver/Src/stm32f4xx_hal_pcd.c **** {
1102:Drivers/STM32F4xx_HAL_Driver/Src/stm32f4xx_hal_pcd.c ****   USB_OTG_EPTypeDef *ep;
1103:Drivers/STM32F4xx_HAL_Driver/Src/stm32f4xx_hal_pcd.c ****   
1104:Drivers/STM32F4xx_HAL_Driver/Src/stm32f4xx_hal_pcd.c ****   if ((0x80 & ep_addr) == 0x80)
1105:Drivers/STM32F4xx_HAL_Driver/Src/stm32f4xx_hal_pcd.c ****   {
1106:Drivers/STM32F4xx_HAL_Driver/Src/stm32f4xx_hal_pcd.c ****     ep = &hpcd->IN_ep[ep_addr & 0x7F];
1107:Drivers/STM32F4xx_HAL_Driver/Src/stm32f4xx_hal_pcd.c ****   }
1108:Drivers/STM32F4xx_HAL_Driver/Src/stm32f4xx_hal_pcd.c ****   else
1109:Drivers/STM32F4xx_HAL_Driver/Src/stm32f4xx_hal_pcd.c ****   {
1110:Drivers/STM32F4xx_HAL_Driver/Src/stm32f4xx_hal_pcd.c ****     ep = &hpcd->OUT_ep[ep_addr];
1111:Drivers/STM32F4xx_HAL_Driver/Src/stm32f4xx_hal_pcd.c ****   }
1112:Drivers/STM32F4xx_HAL_Driver/Src/stm32f4xx_hal_pcd.c ****   
1113:Drivers/STM32F4xx_HAL_Driver/Src/stm32f4xx_hal_pcd.c ****   ep->is_stall = 1U;
1114:Drivers/STM32F4xx_HAL_Driver/Src/stm32f4xx_hal_pcd.c ****   ep->num   = ep_addr & 0x7F;
1115:Drivers/STM32F4xx_HAL_Driver/Src/stm32f4xx_hal_pcd.c ****   ep->is_in = ((ep_addr & 0x80) == 0x80);
ARM GAS  x:\temp2\ccqe4sF7.s 			page 21


1116:Drivers/STM32F4xx_HAL_Driver/Src/stm32f4xx_hal_pcd.c ****   
1117:Drivers/STM32F4xx_HAL_Driver/Src/stm32f4xx_hal_pcd.c ****   
1118:Drivers/STM32F4xx_HAL_Driver/Src/stm32f4xx_hal_pcd.c ****   __HAL_LOCK(hpcd); 
1119:Drivers/STM32F4xx_HAL_Driver/Src/stm32f4xx_hal_pcd.c ****   USB_EPSetStall(hpcd->Instance , ep);
1120:Drivers/STM32F4xx_HAL_Driver/Src/stm32f4xx_hal_pcd.c ****   if((ep_addr & 0x7F) == 0)
1121:Drivers/STM32F4xx_HAL_Driver/Src/stm32f4xx_hal_pcd.c ****   {
1122:Drivers/STM32F4xx_HAL_Driver/Src/stm32f4xx_hal_pcd.c ****     USB_EP0_OutStart(hpcd->Instance, hpcd->Init.dma_enable, (uint8_t *)hpcd->Setup);
1123:Drivers/STM32F4xx_HAL_Driver/Src/stm32f4xx_hal_pcd.c ****   }
1124:Drivers/STM32F4xx_HAL_Driver/Src/stm32f4xx_hal_pcd.c ****   __HAL_UNLOCK(hpcd); 
1125:Drivers/STM32F4xx_HAL_Driver/Src/stm32f4xx_hal_pcd.c ****   
1126:Drivers/STM32F4xx_HAL_Driver/Src/stm32f4xx_hal_pcd.c ****   return HAL_OK;
1127:Drivers/STM32F4xx_HAL_Driver/Src/stm32f4xx_hal_pcd.c **** }
1128:Drivers/STM32F4xx_HAL_Driver/Src/stm32f4xx_hal_pcd.c **** 
1129:Drivers/STM32F4xx_HAL_Driver/Src/stm32f4xx_hal_pcd.c **** /**
1130:Drivers/STM32F4xx_HAL_Driver/Src/stm32f4xx_hal_pcd.c ****   * @brief  Clear a STALL condition over in an endpoint.
1131:Drivers/STM32F4xx_HAL_Driver/Src/stm32f4xx_hal_pcd.c ****   * @param  hpcd PCD handle
1132:Drivers/STM32F4xx_HAL_Driver/Src/stm32f4xx_hal_pcd.c ****   * @param  ep_addr endpoint address
1133:Drivers/STM32F4xx_HAL_Driver/Src/stm32f4xx_hal_pcd.c ****   * @retval HAL status
1134:Drivers/STM32F4xx_HAL_Driver/Src/stm32f4xx_hal_pcd.c ****   */
1135:Drivers/STM32F4xx_HAL_Driver/Src/stm32f4xx_hal_pcd.c **** HAL_StatusTypeDef HAL_PCD_EP_ClrStall(PCD_HandleTypeDef *hpcd, uint8_t ep_addr)
1136:Drivers/STM32F4xx_HAL_Driver/Src/stm32f4xx_hal_pcd.c **** {
1137:Drivers/STM32F4xx_HAL_Driver/Src/stm32f4xx_hal_pcd.c ****   USB_OTG_EPTypeDef *ep;
1138:Drivers/STM32F4xx_HAL_Driver/Src/stm32f4xx_hal_pcd.c ****   
1139:Drivers/STM32F4xx_HAL_Driver/Src/stm32f4xx_hal_pcd.c ****   if ((0x80 & ep_addr) == 0x80)
1140:Drivers/STM32F4xx_HAL_Driver/Src/stm32f4xx_hal_pcd.c ****   {
1141:Drivers/STM32F4xx_HAL_Driver/Src/stm32f4xx_hal_pcd.c ****     ep = &hpcd->IN_ep[ep_addr & 0x7F];
1142:Drivers/STM32F4xx_HAL_Driver/Src/stm32f4xx_hal_pcd.c ****   }
1143:Drivers/STM32F4xx_HAL_Driver/Src/stm32f4xx_hal_pcd.c ****   else
1144:Drivers/STM32F4xx_HAL_Driver/Src/stm32f4xx_hal_pcd.c ****   {
1145:Drivers/STM32F4xx_HAL_Driver/Src/stm32f4xx_hal_pcd.c ****     ep = &hpcd->OUT_ep[ep_addr];
1146:Drivers/STM32F4xx_HAL_Driver/Src/stm32f4xx_hal_pcd.c ****   }
1147:Drivers/STM32F4xx_HAL_Driver/Src/stm32f4xx_hal_pcd.c ****   
1148:Drivers/STM32F4xx_HAL_Driver/Src/stm32f4xx_hal_pcd.c ****   ep->is_stall = 0U;
1149:Drivers/STM32F4xx_HAL_Driver/Src/stm32f4xx_hal_pcd.c ****   ep->num   = ep_addr & 0x7F;
1150:Drivers/STM32F4xx_HAL_Driver/Src/stm32f4xx_hal_pcd.c ****   ep->is_in = ((ep_addr & 0x80) == 0x80);
1151:Drivers/STM32F4xx_HAL_Driver/Src/stm32f4xx_hal_pcd.c ****   
1152:Drivers/STM32F4xx_HAL_Driver/Src/stm32f4xx_hal_pcd.c ****   __HAL_LOCK(hpcd); 
1153:Drivers/STM32F4xx_HAL_Driver/Src/stm32f4xx_hal_pcd.c ****   USB_EPClearStall(hpcd->Instance , ep);
1154:Drivers/STM32F4xx_HAL_Driver/Src/stm32f4xx_hal_pcd.c ****   __HAL_UNLOCK(hpcd); 
1155:Drivers/STM32F4xx_HAL_Driver/Src/stm32f4xx_hal_pcd.c ****     
1156:Drivers/STM32F4xx_HAL_Driver/Src/stm32f4xx_hal_pcd.c ****   return HAL_OK;
1157:Drivers/STM32F4xx_HAL_Driver/Src/stm32f4xx_hal_pcd.c **** }
1158:Drivers/STM32F4xx_HAL_Driver/Src/stm32f4xx_hal_pcd.c **** 
1159:Drivers/STM32F4xx_HAL_Driver/Src/stm32f4xx_hal_pcd.c **** /**
1160:Drivers/STM32F4xx_HAL_Driver/Src/stm32f4xx_hal_pcd.c ****   * @brief  Flush an endpoint.
1161:Drivers/STM32F4xx_HAL_Driver/Src/stm32f4xx_hal_pcd.c ****   * @param  hpcd PCD handle
1162:Drivers/STM32F4xx_HAL_Driver/Src/stm32f4xx_hal_pcd.c ****   * @param  ep_addr endpoint address
1163:Drivers/STM32F4xx_HAL_Driver/Src/stm32f4xx_hal_pcd.c ****   * @retval HAL status
1164:Drivers/STM32F4xx_HAL_Driver/Src/stm32f4xx_hal_pcd.c ****   */
1165:Drivers/STM32F4xx_HAL_Driver/Src/stm32f4xx_hal_pcd.c **** HAL_StatusTypeDef HAL_PCD_EP_Flush(PCD_HandleTypeDef *hpcd, uint8_t ep_addr)
1166:Drivers/STM32F4xx_HAL_Driver/Src/stm32f4xx_hal_pcd.c **** {
1167:Drivers/STM32F4xx_HAL_Driver/Src/stm32f4xx_hal_pcd.c ****   __HAL_LOCK(hpcd); 
1168:Drivers/STM32F4xx_HAL_Driver/Src/stm32f4xx_hal_pcd.c ****   
1169:Drivers/STM32F4xx_HAL_Driver/Src/stm32f4xx_hal_pcd.c ****   if ((ep_addr & 0x80) == 0x80)
1170:Drivers/STM32F4xx_HAL_Driver/Src/stm32f4xx_hal_pcd.c ****   {
1171:Drivers/STM32F4xx_HAL_Driver/Src/stm32f4xx_hal_pcd.c ****     USB_FlushTxFifo(hpcd->Instance, ep_addr & 0x7F);
1172:Drivers/STM32F4xx_HAL_Driver/Src/stm32f4xx_hal_pcd.c ****   }
ARM GAS  x:\temp2\ccqe4sF7.s 			page 22


1173:Drivers/STM32F4xx_HAL_Driver/Src/stm32f4xx_hal_pcd.c ****   else
1174:Drivers/STM32F4xx_HAL_Driver/Src/stm32f4xx_hal_pcd.c ****   {
1175:Drivers/STM32F4xx_HAL_Driver/Src/stm32f4xx_hal_pcd.c ****     USB_FlushRxFifo(hpcd->Instance);
1176:Drivers/STM32F4xx_HAL_Driver/Src/stm32f4xx_hal_pcd.c ****   }
1177:Drivers/STM32F4xx_HAL_Driver/Src/stm32f4xx_hal_pcd.c ****   
1178:Drivers/STM32F4xx_HAL_Driver/Src/stm32f4xx_hal_pcd.c ****   __HAL_UNLOCK(hpcd); 
1179:Drivers/STM32F4xx_HAL_Driver/Src/stm32f4xx_hal_pcd.c ****     
1180:Drivers/STM32F4xx_HAL_Driver/Src/stm32f4xx_hal_pcd.c ****   return HAL_OK;
1181:Drivers/STM32F4xx_HAL_Driver/Src/stm32f4xx_hal_pcd.c **** }
1182:Drivers/STM32F4xx_HAL_Driver/Src/stm32f4xx_hal_pcd.c **** 
1183:Drivers/STM32F4xx_HAL_Driver/Src/stm32f4xx_hal_pcd.c **** /**
1184:Drivers/STM32F4xx_HAL_Driver/Src/stm32f4xx_hal_pcd.c ****   * @brief  Activate remote wakeup signalling.
1185:Drivers/STM32F4xx_HAL_Driver/Src/stm32f4xx_hal_pcd.c ****   * @param  hpcd PCD handle
1186:Drivers/STM32F4xx_HAL_Driver/Src/stm32f4xx_hal_pcd.c ****   * @retval HAL status
1187:Drivers/STM32F4xx_HAL_Driver/Src/stm32f4xx_hal_pcd.c ****   */
1188:Drivers/STM32F4xx_HAL_Driver/Src/stm32f4xx_hal_pcd.c **** HAL_StatusTypeDef HAL_PCD_ActivateRemoteWakeup(PCD_HandleTypeDef *hpcd)
1189:Drivers/STM32F4xx_HAL_Driver/Src/stm32f4xx_hal_pcd.c **** {
1190:Drivers/STM32F4xx_HAL_Driver/Src/stm32f4xx_hal_pcd.c ****   USB_OTG_GlobalTypeDef *USBx = hpcd->Instance;  
1191:Drivers/STM32F4xx_HAL_Driver/Src/stm32f4xx_hal_pcd.c ****     
1192:Drivers/STM32F4xx_HAL_Driver/Src/stm32f4xx_hal_pcd.c ****   if((USBx_DEVICE->DSTS & USB_OTG_DSTS_SUSPSTS) == USB_OTG_DSTS_SUSPSTS)
1193:Drivers/STM32F4xx_HAL_Driver/Src/stm32f4xx_hal_pcd.c ****   {
1194:Drivers/STM32F4xx_HAL_Driver/Src/stm32f4xx_hal_pcd.c ****     /* Activate Remote wakeup signaling */
1195:Drivers/STM32F4xx_HAL_Driver/Src/stm32f4xx_hal_pcd.c ****     USBx_DEVICE->DCTL |= USB_OTG_DCTL_RWUSIG;
1196:Drivers/STM32F4xx_HAL_Driver/Src/stm32f4xx_hal_pcd.c ****   }
1197:Drivers/STM32F4xx_HAL_Driver/Src/stm32f4xx_hal_pcd.c ****   return HAL_OK;  
1198:Drivers/STM32F4xx_HAL_Driver/Src/stm32f4xx_hal_pcd.c **** }
1199:Drivers/STM32F4xx_HAL_Driver/Src/stm32f4xx_hal_pcd.c **** 
1200:Drivers/STM32F4xx_HAL_Driver/Src/stm32f4xx_hal_pcd.c **** /**
1201:Drivers/STM32F4xx_HAL_Driver/Src/stm32f4xx_hal_pcd.c ****   * @brief  De-activate remote wakeup signalling.
1202:Drivers/STM32F4xx_HAL_Driver/Src/stm32f4xx_hal_pcd.c ****   * @param  hpcd PCD handle
1203:Drivers/STM32F4xx_HAL_Driver/Src/stm32f4xx_hal_pcd.c ****   * @retval HAL status
1204:Drivers/STM32F4xx_HAL_Driver/Src/stm32f4xx_hal_pcd.c ****   */
1205:Drivers/STM32F4xx_HAL_Driver/Src/stm32f4xx_hal_pcd.c **** HAL_StatusTypeDef HAL_PCD_DeActivateRemoteWakeup(PCD_HandleTypeDef *hpcd)
1206:Drivers/STM32F4xx_HAL_Driver/Src/stm32f4xx_hal_pcd.c **** {
1207:Drivers/STM32F4xx_HAL_Driver/Src/stm32f4xx_hal_pcd.c ****   USB_OTG_GlobalTypeDef *USBx = hpcd->Instance;  
1208:Drivers/STM32F4xx_HAL_Driver/Src/stm32f4xx_hal_pcd.c ****   
1209:Drivers/STM32F4xx_HAL_Driver/Src/stm32f4xx_hal_pcd.c ****   /* De-activate Remote wakeup signaling */
1210:Drivers/STM32F4xx_HAL_Driver/Src/stm32f4xx_hal_pcd.c ****   USBx_DEVICE->DCTL &= ~(USB_OTG_DCTL_RWUSIG);
1211:Drivers/STM32F4xx_HAL_Driver/Src/stm32f4xx_hal_pcd.c ****   return HAL_OK;  
1212:Drivers/STM32F4xx_HAL_Driver/Src/stm32f4xx_hal_pcd.c **** }
1213:Drivers/STM32F4xx_HAL_Driver/Src/stm32f4xx_hal_pcd.c **** /**
1214:Drivers/STM32F4xx_HAL_Driver/Src/stm32f4xx_hal_pcd.c ****   * @}
1215:Drivers/STM32F4xx_HAL_Driver/Src/stm32f4xx_hal_pcd.c ****   */
1216:Drivers/STM32F4xx_HAL_Driver/Src/stm32f4xx_hal_pcd.c ****   
1217:Drivers/STM32F4xx_HAL_Driver/Src/stm32f4xx_hal_pcd.c **** /** @defgroup PCD_Exported_Functions_Group4 Peripheral State functions 
1218:Drivers/STM32F4xx_HAL_Driver/Src/stm32f4xx_hal_pcd.c ****  *  @brief   Peripheral State functions
1219:Drivers/STM32F4xx_HAL_Driver/Src/stm32f4xx_hal_pcd.c ****  *
1220:Drivers/STM32F4xx_HAL_Driver/Src/stm32f4xx_hal_pcd.c **** @verbatim  
1221:Drivers/STM32F4xx_HAL_Driver/Src/stm32f4xx_hal_pcd.c ****  ===============================================================================
1222:Drivers/STM32F4xx_HAL_Driver/Src/stm32f4xx_hal_pcd.c ****                       ##### Peripheral State functions #####
1223:Drivers/STM32F4xx_HAL_Driver/Src/stm32f4xx_hal_pcd.c ****  ===============================================================================  
1224:Drivers/STM32F4xx_HAL_Driver/Src/stm32f4xx_hal_pcd.c ****     [..]
1225:Drivers/STM32F4xx_HAL_Driver/Src/stm32f4xx_hal_pcd.c ****     This subsection permits to get in run-time the status of the peripheral 
1226:Drivers/STM32F4xx_HAL_Driver/Src/stm32f4xx_hal_pcd.c ****     and the data flow.
1227:Drivers/STM32F4xx_HAL_Driver/Src/stm32f4xx_hal_pcd.c **** 
1228:Drivers/STM32F4xx_HAL_Driver/Src/stm32f4xx_hal_pcd.c **** @endverbatim
1229:Drivers/STM32F4xx_HAL_Driver/Src/stm32f4xx_hal_pcd.c ****   * @{
ARM GAS  x:\temp2\ccqe4sF7.s 			page 23


1230:Drivers/STM32F4xx_HAL_Driver/Src/stm32f4xx_hal_pcd.c ****   */
1231:Drivers/STM32F4xx_HAL_Driver/Src/stm32f4xx_hal_pcd.c **** 
1232:Drivers/STM32F4xx_HAL_Driver/Src/stm32f4xx_hal_pcd.c **** /**
1233:Drivers/STM32F4xx_HAL_Driver/Src/stm32f4xx_hal_pcd.c ****   * @brief  Return the PCD handle state.
1234:Drivers/STM32F4xx_HAL_Driver/Src/stm32f4xx_hal_pcd.c ****   * @param  hpcd PCD handle
1235:Drivers/STM32F4xx_HAL_Driver/Src/stm32f4xx_hal_pcd.c ****   * @retval HAL state
1236:Drivers/STM32F4xx_HAL_Driver/Src/stm32f4xx_hal_pcd.c ****   */
1237:Drivers/STM32F4xx_HAL_Driver/Src/stm32f4xx_hal_pcd.c **** PCD_StateTypeDef HAL_PCD_GetState(PCD_HandleTypeDef *hpcd)
1238:Drivers/STM32F4xx_HAL_Driver/Src/stm32f4xx_hal_pcd.c **** {
1239:Drivers/STM32F4xx_HAL_Driver/Src/stm32f4xx_hal_pcd.c ****   return hpcd->State;
1240:Drivers/STM32F4xx_HAL_Driver/Src/stm32f4xx_hal_pcd.c **** }
1241:Drivers/STM32F4xx_HAL_Driver/Src/stm32f4xx_hal_pcd.c **** /**
1242:Drivers/STM32F4xx_HAL_Driver/Src/stm32f4xx_hal_pcd.c ****   * @}
1243:Drivers/STM32F4xx_HAL_Driver/Src/stm32f4xx_hal_pcd.c ****   */
1244:Drivers/STM32F4xx_HAL_Driver/Src/stm32f4xx_hal_pcd.c **** 
1245:Drivers/STM32F4xx_HAL_Driver/Src/stm32f4xx_hal_pcd.c **** /**
1246:Drivers/STM32F4xx_HAL_Driver/Src/stm32f4xx_hal_pcd.c ****   * @}
1247:Drivers/STM32F4xx_HAL_Driver/Src/stm32f4xx_hal_pcd.c ****   */
1248:Drivers/STM32F4xx_HAL_Driver/Src/stm32f4xx_hal_pcd.c **** 
1249:Drivers/STM32F4xx_HAL_Driver/Src/stm32f4xx_hal_pcd.c **** /* Private functions ---------------------------------------------------------*/
1250:Drivers/STM32F4xx_HAL_Driver/Src/stm32f4xx_hal_pcd.c **** /** @addtogroup PCD_Private_Functions
1251:Drivers/STM32F4xx_HAL_Driver/Src/stm32f4xx_hal_pcd.c ****   * @{
1252:Drivers/STM32F4xx_HAL_Driver/Src/stm32f4xx_hal_pcd.c ****   */
1253:Drivers/STM32F4xx_HAL_Driver/Src/stm32f4xx_hal_pcd.c **** 
1254:Drivers/STM32F4xx_HAL_Driver/Src/stm32f4xx_hal_pcd.c **** /**
1255:Drivers/STM32F4xx_HAL_Driver/Src/stm32f4xx_hal_pcd.c ****   * @brief  Check FIFO for the next packet to be loaded.
1256:Drivers/STM32F4xx_HAL_Driver/Src/stm32f4xx_hal_pcd.c ****   * @param  hpcd PCD handle
1257:Drivers/STM32F4xx_HAL_Driver/Src/stm32f4xx_hal_pcd.c ****   * @param  epnum  endpoint number   
1258:Drivers/STM32F4xx_HAL_Driver/Src/stm32f4xx_hal_pcd.c ****   * @retval HAL status
1259:Drivers/STM32F4xx_HAL_Driver/Src/stm32f4xx_hal_pcd.c ****   */
1260:Drivers/STM32F4xx_HAL_Driver/Src/stm32f4xx_hal_pcd.c **** static HAL_StatusTypeDef PCD_WriteEmptyTxFifo(PCD_HandleTypeDef *hpcd, uint32_t epnum)
1261:Drivers/STM32F4xx_HAL_Driver/Src/stm32f4xx_hal_pcd.c **** {
  27              		.loc 1 1261 0
  28              		.cfi_startproc
  29              		@ args = 0, pretend = 0, frame = 0
  30              		@ frame_needed = 0, uses_anonymous_args = 0
  31              	.LVL0:
  32 0000 2DE9F043 		push	{r4, r5, r6, r7, r8, r9, lr}
  33              	.LCFI0:
  34              		.cfi_def_cfa_offset 28
  35              		.cfi_offset 4, -28
  36              		.cfi_offset 5, -24
  37              		.cfi_offset 6, -20
  38              		.cfi_offset 7, -16
  39              		.cfi_offset 8, -12
  40              		.cfi_offset 9, -8
  41              		.cfi_offset 14, -4
  42 0004 83B0     		sub	sp, sp, #12
  43              	.LCFI1:
  44              		.cfi_def_cfa_offset 40
  45 0006 0746     		mov	r7, r0
  46 0008 0D46     		mov	r5, r1
1262:Drivers/STM32F4xx_HAL_Driver/Src/stm32f4xx_hal_pcd.c ****   USB_OTG_GlobalTypeDef *USBx = hpcd->Instance;  
  47              		.loc 1 1262 0
  48 000a D0F80080 		ldr	r8, [r0]
  49              	.LVL1:
1263:Drivers/STM32F4xx_HAL_Driver/Src/stm32f4xx_hal_pcd.c ****   USB_OTG_EPTypeDef *ep;
ARM GAS  x:\temp2\ccqe4sF7.s 			page 24


1264:Drivers/STM32F4xx_HAL_Driver/Src/stm32f4xx_hal_pcd.c ****   int32_t len = 0U;
1265:Drivers/STM32F4xx_HAL_Driver/Src/stm32f4xx_hal_pcd.c ****   uint32_t len32b;
1266:Drivers/STM32F4xx_HAL_Driver/Src/stm32f4xx_hal_pcd.c ****   uint32_t fifoemptymsk = 0U;
1267:Drivers/STM32F4xx_HAL_Driver/Src/stm32f4xx_hal_pcd.c **** 
1268:Drivers/STM32F4xx_HAL_Driver/Src/stm32f4xx_hal_pcd.c ****   ep = &hpcd->IN_ep[epnum];
1269:Drivers/STM32F4xx_HAL_Driver/Src/stm32f4xx_hal_pcd.c ****   len = ep->xfer_len - ep->xfer_count;
  50              		.loc 1 1269 0
  51 000e CA00     		lsls	r2, r1, #3
  52 0010 521A     		subs	r2, r2, r1
  53 0012 9300     		lsls	r3, r2, #2
  54 0014 0344     		add	r3, r3, r0
  55 0016 DE6C     		ldr	r6, [r3, #76]
  56 0018 1A6D     		ldr	r2, [r3, #80]
  57 001a B61A     		subs	r6, r6, r2
  58              	.LVL2:
1270:Drivers/STM32F4xx_HAL_Driver/Src/stm32f4xx_hal_pcd.c ****   
1271:Drivers/STM32F4xx_HAL_Driver/Src/stm32f4xx_hal_pcd.c ****   if (len > ep->maxpacket)
  59              		.loc 1 1271 0
  60 001c 1B6C     		ldr	r3, [r3, #64]
  61 001e 9E42     		cmp	r6, r3
  62 0020 00D9     		bls	.L2
1272:Drivers/STM32F4xx_HAL_Driver/Src/stm32f4xx_hal_pcd.c ****   {
1273:Drivers/STM32F4xx_HAL_Driver/Src/stm32f4xx_hal_pcd.c ****     len = ep->maxpacket;
  63              		.loc 1 1273 0
  64 0022 1E46     		mov	r6, r3
  65              	.LVL3:
  66              	.L2:
1274:Drivers/STM32F4xx_HAL_Driver/Src/stm32f4xx_hal_pcd.c ****   }
1275:Drivers/STM32F4xx_HAL_Driver/Src/stm32f4xx_hal_pcd.c ****   
1276:Drivers/STM32F4xx_HAL_Driver/Src/stm32f4xx_hal_pcd.c ****   
1277:Drivers/STM32F4xx_HAL_Driver/Src/stm32f4xx_hal_pcd.c ****   len32b = (len + 3U) / 4U;
  67              		.loc 1 1277 0
  68 0024 06F10309 		add	r9, r6, #3
  69 0028 4FEA9909 		lsr	r9, r9, #2
  70              	.LVL4:
1278:Drivers/STM32F4xx_HAL_Driver/Src/stm32f4xx_hal_pcd.c ****  
1279:Drivers/STM32F4xx_HAL_Driver/Src/stm32f4xx_hal_pcd.c ****   while  (((USBx_INEP(epnum)->DTXFSTS & USB_OTG_DTXFSTS_INEPTFSAV) > len32b) &&
  71              		.loc 1 1279 0
  72 002c 15E0     		b	.L3
  73              	.LVL5:
  74              	.L4:
1280:Drivers/STM32F4xx_HAL_Driver/Src/stm32f4xx_hal_pcd.c ****           (ep->xfer_count < ep->xfer_len) &&
1281:Drivers/STM32F4xx_HAL_Driver/Src/stm32f4xx_hal_pcd.c ****             (ep->xfer_len != 0U))
1282:Drivers/STM32F4xx_HAL_Driver/Src/stm32f4xx_hal_pcd.c ****   {
1283:Drivers/STM32F4xx_HAL_Driver/Src/stm32f4xx_hal_pcd.c ****     /* Write the FIFO */
1284:Drivers/STM32F4xx_HAL_Driver/Src/stm32f4xx_hal_pcd.c ****     len = ep->xfer_len - ep->xfer_count;
1285:Drivers/STM32F4xx_HAL_Driver/Src/stm32f4xx_hal_pcd.c ****     
1286:Drivers/STM32F4xx_HAL_Driver/Src/stm32f4xx_hal_pcd.c ****     if (len > ep->maxpacket)
1287:Drivers/STM32F4xx_HAL_Driver/Src/stm32f4xx_hal_pcd.c ****     {
1288:Drivers/STM32F4xx_HAL_Driver/Src/stm32f4xx_hal_pcd.c ****       len = ep->maxpacket;
1289:Drivers/STM32F4xx_HAL_Driver/Src/stm32f4xx_hal_pcd.c ****     }
1290:Drivers/STM32F4xx_HAL_Driver/Src/stm32f4xx_hal_pcd.c ****     len32b = (len + 3U) / 4U;
  75              		.loc 1 1290 0
  76 002e 06F10309 		add	r9, r6, #3
  77              	.LVL6:
  78 0032 4FEA9909 		lsr	r9, r9, #2
  79              	.LVL7:
ARM GAS  x:\temp2\ccqe4sF7.s 			page 25


1291:Drivers/STM32F4xx_HAL_Driver/Src/stm32f4xx_hal_pcd.c ****     
1292:Drivers/STM32F4xx_HAL_Driver/Src/stm32f4xx_hal_pcd.c ****     USB_WritePacket(USBx, ep->xfer_buff, epnum, len, hpcd->Init.dma_enable); 
  80              		.loc 1 1292 0
  81 0036 EB00     		lsls	r3, r5, #3
  82 0038 5B1B     		subs	r3, r3, r5
  83 003a 9C00     		lsls	r4, r3, #2
  84 003c 3C44     		add	r4, r4, r7
  85 003e 616C     		ldr	r1, [r4, #68]
  86              	.LVL8:
  87 0040 3B7C     		ldrb	r3, [r7, #16]	@ zero_extendqisi2
  88 0042 0093     		str	r3, [sp]
  89 0044 B3B2     		uxth	r3, r6
  90 0046 EAB2     		uxtb	r2, r5
  91 0048 4046     		mov	r0, r8
  92 004a FFF7FEFF 		bl	USB_WritePacket
  93              	.LVL9:
1293:Drivers/STM32F4xx_HAL_Driver/Src/stm32f4xx_hal_pcd.c ****     
1294:Drivers/STM32F4xx_HAL_Driver/Src/stm32f4xx_hal_pcd.c ****     ep->xfer_buff  += len;
  94              		.loc 1 1294 0
  95 004e 636C     		ldr	r3, [r4, #68]
  96 0050 3344     		add	r3, r3, r6
  97 0052 6364     		str	r3, [r4, #68]
1295:Drivers/STM32F4xx_HAL_Driver/Src/stm32f4xx_hal_pcd.c ****     ep->xfer_count += len;
  98              		.loc 1 1295 0
  99 0054 236D     		ldr	r3, [r4, #80]
 100 0056 3344     		add	r3, r3, r6
 101 0058 2365     		str	r3, [r4, #80]
 102              	.L3:
1279:Drivers/STM32F4xx_HAL_Driver/Src/stm32f4xx_hal_pcd.c ****           (ep->xfer_count < ep->xfer_len) &&
 103              		.loc 1 1279 0
 104 005a 4146     		mov	r1, r8
 105 005c 08EB4513 		add	r3, r8, r5, lsl #5
 106 0060 03F51063 		add	r3, r3, #2304
 107 0064 9B69     		ldr	r3, [r3, #24]
 108 0066 9BB2     		uxth	r3, r3
 109 0068 4B45     		cmp	r3, r9
 110 006a 12D9     		bls	.L5
 111              	.LVL10:
1280:Drivers/STM32F4xx_HAL_Driver/Src/stm32f4xx_hal_pcd.c ****             (ep->xfer_len != 0U))
 112              		.loc 1 1280 0 discriminator 1
 113 006c EA00     		lsls	r2, r5, #3
 114 006e 521B     		subs	r2, r2, r5
 115 0070 9300     		lsls	r3, r2, #2
 116 0072 3B44     		add	r3, r3, r7
 117 0074 1A6D     		ldr	r2, [r3, #80]
 118 0076 DB6C     		ldr	r3, [r3, #76]
1279:Drivers/STM32F4xx_HAL_Driver/Src/stm32f4xx_hal_pcd.c ****           (ep->xfer_count < ep->xfer_len) &&
 119              		.loc 1 1279 0 discriminator 1
 120 0078 9A42     		cmp	r2, r3
 121 007a 0AD2     		bcs	.L5
1280:Drivers/STM32F4xx_HAL_Driver/Src/stm32f4xx_hal_pcd.c ****             (ep->xfer_len != 0U))
 122              		.loc 1 1280 0
 123 007c 4BB1     		cbz	r3, .L5
1284:Drivers/STM32F4xx_HAL_Driver/Src/stm32f4xx_hal_pcd.c ****     
 124              		.loc 1 1284 0
 125 007e 9E1A     		subs	r6, r3, r2
 126              	.LVL11:
ARM GAS  x:\temp2\ccqe4sF7.s 			page 26


1286:Drivers/STM32F4xx_HAL_Driver/Src/stm32f4xx_hal_pcd.c ****     {
 127              		.loc 1 1286 0
 128 0080 C5EBC502 		rsb	r2, r5, r5, lsl #3
 129 0084 9300     		lsls	r3, r2, #2
 130 0086 3B44     		add	r3, r3, r7
 131 0088 1B6C     		ldr	r3, [r3, #64]
 132 008a 9E42     		cmp	r6, r3
 133 008c CFD9     		bls	.L4
1288:Drivers/STM32F4xx_HAL_Driver/Src/stm32f4xx_hal_pcd.c ****     }
 134              		.loc 1 1288 0
 135 008e 1E46     		mov	r6, r3
 136              	.LVL12:
 137 0090 CDE7     		b	.L4
 138              	.LVL13:
 139              	.L5:
1296:Drivers/STM32F4xx_HAL_Driver/Src/stm32f4xx_hal_pcd.c ****   }
1297:Drivers/STM32F4xx_HAL_Driver/Src/stm32f4xx_hal_pcd.c ****   
1298:Drivers/STM32F4xx_HAL_Driver/Src/stm32f4xx_hal_pcd.c ****   if(len <= 0U)
 140              		.loc 1 1298 0
 141 0092 3EB9     		cbnz	r6, .L7
1299:Drivers/STM32F4xx_HAL_Driver/Src/stm32f4xx_hal_pcd.c ****   {
1300:Drivers/STM32F4xx_HAL_Driver/Src/stm32f4xx_hal_pcd.c ****     fifoemptymsk = 0x1U << epnum;
 142              		.loc 1 1300 0
 143 0094 0123     		movs	r3, #1
 144 0096 AB40     		lsls	r3, r3, r5
 145              	.LVL14:
1301:Drivers/STM32F4xx_HAL_Driver/Src/stm32f4xx_hal_pcd.c ****     USBx_DEVICE->DIEPEMPMSK &= ~fifoemptymsk;
 146              		.loc 1 1301 0
 147 0098 D1F83458 		ldr	r5, [r1, #2100]
 148              	.LVL15:
 149 009c 25EA0305 		bic	r5, r5, r3
 150 00a0 C1F83458 		str	r5, [r1, #2100]
 151              	.LVL16:
 152              	.L7:
1302:Drivers/STM32F4xx_HAL_Driver/Src/stm32f4xx_hal_pcd.c ****     
1303:Drivers/STM32F4xx_HAL_Driver/Src/stm32f4xx_hal_pcd.c ****   }
1304:Drivers/STM32F4xx_HAL_Driver/Src/stm32f4xx_hal_pcd.c ****   
1305:Drivers/STM32F4xx_HAL_Driver/Src/stm32f4xx_hal_pcd.c ****   return HAL_OK;  
1306:Drivers/STM32F4xx_HAL_Driver/Src/stm32f4xx_hal_pcd.c **** }
 153              		.loc 1 1306 0
 154 00a4 0020     		movs	r0, #0
 155 00a6 03B0     		add	sp, sp, #12
 156              	.LCFI2:
 157              		.cfi_def_cfa_offset 28
 158              		@ sp needed
 159 00a8 BDE8F083 		pop	{r4, r5, r6, r7, r8, r9, pc}
 160              		.cfi_endproc
 161              	.LFE158:
 163              		.section	.text.HAL_PCD_MspInit,"ax",%progbits
 164              		.align	1
 165              		.weak	HAL_PCD_MspInit
 166              		.syntax unified
 167              		.thumb
 168              		.thumb_func
 169              		.fpu fpv4-sp-d16
 171              	HAL_PCD_MspInit:
 172              	.LFB128:
ARM GAS  x:\temp2\ccqe4sF7.s 			page 27


 249:Drivers/STM32F4xx_HAL_Driver/Src/stm32f4xx_hal_pcd.c ****   /* Prevent unused argument(s) compilation warning */
 173              		.loc 1 249 0
 174              		.cfi_startproc
 175              		@ args = 0, pretend = 0, frame = 0
 176              		@ frame_needed = 0, uses_anonymous_args = 0
 177              		@ link register save eliminated.
 178              	.LVL17:
 255:Drivers/STM32F4xx_HAL_Driver/Src/stm32f4xx_hal_pcd.c **** 
 179              		.loc 1 255 0
 180 0000 7047     		bx	lr
 181              		.cfi_endproc
 182              	.LFE128:
 184              		.section	.text.HAL_PCD_Init,"ax",%progbits
 185              		.align	1
 186              		.global	HAL_PCD_Init
 187              		.syntax unified
 188              		.thumb
 189              		.thumb_func
 190              		.fpu fpv4-sp-d16
 192              	HAL_PCD_Init:
 193              	.LFB126:
 138:Drivers/STM32F4xx_HAL_Driver/Src/stm32f4xx_hal_pcd.c ****   uint32_t i = 0U;
 194              		.loc 1 138 0
 195              		.cfi_startproc
 196              		@ args = 0, pretend = 0, frame = 0
 197              		@ frame_needed = 0, uses_anonymous_args = 0
 198              	.LVL18:
 142:Drivers/STM32F4xx_HAL_Driver/Src/stm32f4xx_hal_pcd.c ****   {
 199              		.loc 1 142 0
 200 0000 0028     		cmp	r0, #0
 201 0002 6BD0     		beq	.L16
 138:Drivers/STM32F4xx_HAL_Driver/Src/stm32f4xx_hal_pcd.c ****   uint32_t i = 0U;
 202              		.loc 1 138 0
 203 0004 F0B5     		push	{r4, r5, r6, r7, lr}
 204              	.LCFI3:
 205              		.cfi_def_cfa_offset 20
 206              		.cfi_offset 4, -20
 207              		.cfi_offset 5, -16
 208              		.cfi_offset 6, -12
 209              		.cfi_offset 7, -8
 210              		.cfi_offset 14, -4
 211 0006 8BB0     		sub	sp, sp, #44
 212              	.LCFI4:
 213              		.cfi_def_cfa_offset 64
 214 0008 0446     		mov	r4, r0
 150:Drivers/STM32F4xx_HAL_Driver/Src/stm32f4xx_hal_pcd.c ****   
 215              		.loc 1 150 0
 216 000a 0323     		movs	r3, #3
 217 000c 80F8B933 		strb	r3, [r0, #953]
 153:Drivers/STM32F4xx_HAL_Driver/Src/stm32f4xx_hal_pcd.c **** 
 218              		.loc 1 153 0
 219 0010 FFF7FEFF 		bl	HAL_PCD_MspInit
 220              	.LVL19:
 156:Drivers/STM32F4xx_HAL_Driver/Src/stm32f4xx_hal_pcd.c ****  
 221              		.loc 1 156 0
 222 0014 2068     		ldr	r0, [r4]
 223 0016 FFF7FEFF 		bl	USB_DisableGlobalInt
ARM GAS  x:\temp2\ccqe4sF7.s 			page 28


 224              	.LVL20:
 159:Drivers/STM32F4xx_HAL_Driver/Src/stm32f4xx_hal_pcd.c ****  
 225              		.loc 1 159 0
 226 001a 2546     		mov	r5, r4
 227 001c 55F8107B 		ldr	r7, [r5], #16
 228 0020 6E46     		mov	r6, sp
 229 0022 0FCD     		ldmia	r5!, {r0, r1, r2, r3}
 230 0024 0FC6     		stmia	r6!, {r0, r1, r2, r3}
 231 0026 0FCD     		ldmia	r5!, {r0, r1, r2, r3}
 232 0028 0FC6     		stmia	r6!, {r0, r1, r2, r3}
 233 002a 95E80300 		ldm	r5, {r0, r1}
 234 002e 86E80300 		stm	r6, {r0, r1}
 235 0032 231D     		adds	r3, r4, #4
 236 0034 0ECB     		ldm	r3, {r1, r2, r3}
 237 0036 3846     		mov	r0, r7
 238 0038 FFF7FEFF 		bl	USB_CoreInit
 239              	.LVL21:
 162:Drivers/STM32F4xx_HAL_Driver/Src/stm32f4xx_hal_pcd.c ****  
 240              		.loc 1 162 0
 241 003c 0021     		movs	r1, #0
 242 003e 2068     		ldr	r0, [r4]
 243 0040 FFF7FEFF 		bl	USB_SetCurrentMode
 244              	.LVL22:
 165:Drivers/STM32F4xx_HAL_Driver/Src/stm32f4xx_hal_pcd.c ****  {
 245              		.loc 1 165 0
 246 0044 0022     		movs	r2, #0
 247 0046 10E0     		b	.L12
 248              	.LVL23:
 249              	.L13:
 168:Drivers/STM32F4xx_HAL_Driver/Src/stm32f4xx_hal_pcd.c ****    hpcd->IN_ep[i].num = i;
 250              		.loc 1 168 0 discriminator 3
 251 0048 D100     		lsls	r1, r2, #3
 252 004a 891A     		subs	r1, r1, r2
 253 004c 8B00     		lsls	r3, r1, #2
 254 004e 2344     		add	r3, r3, r4
 255 0050 0121     		movs	r1, #1
 256 0052 83F83910 		strb	r1, [r3, #57]
 169:Drivers/STM32F4xx_HAL_Driver/Src/stm32f4xx_hal_pcd.c ****    hpcd->IN_ep[i].tx_fifo_num = i;
 257              		.loc 1 169 0 discriminator 3
 258 0056 83F83820 		strb	r2, [r3, #56]
 170:Drivers/STM32F4xx_HAL_Driver/Src/stm32f4xx_hal_pcd.c ****    /* Control until ep is activated */
 259              		.loc 1 170 0 discriminator 3
 260 005a DA87     		strh	r2, [r3, #62]	@ movhi
 172:Drivers/STM32F4xx_HAL_Driver/Src/stm32f4xx_hal_pcd.c ****    hpcd->IN_ep[i].maxpacket = 0U;
 261              		.loc 1 172 0 discriminator 3
 262 005c 0021     		movs	r1, #0
 263 005e 83F83B10 		strb	r1, [r3, #59]
 173:Drivers/STM32F4xx_HAL_Driver/Src/stm32f4xx_hal_pcd.c ****    hpcd->IN_ep[i].xfer_buff = 0U;
 264              		.loc 1 173 0 discriminator 3
 265 0062 1964     		str	r1, [r3, #64]
 174:Drivers/STM32F4xx_HAL_Driver/Src/stm32f4xx_hal_pcd.c ****    hpcd->IN_ep[i].xfer_len = 0U;
 266              		.loc 1 174 0 discriminator 3
 267 0064 5964     		str	r1, [r3, #68]
 175:Drivers/STM32F4xx_HAL_Driver/Src/stm32f4xx_hal_pcd.c ****  }
 268              		.loc 1 175 0 discriminator 3
 269 0066 D964     		str	r1, [r3, #76]
 165:Drivers/STM32F4xx_HAL_Driver/Src/stm32f4xx_hal_pcd.c ****  {
ARM GAS  x:\temp2\ccqe4sF7.s 			page 29


 270              		.loc 1 165 0 discriminator 3
 271 0068 0132     		adds	r2, r2, #1
 272              	.LVL24:
 273              	.L12:
 165:Drivers/STM32F4xx_HAL_Driver/Src/stm32f4xx_hal_pcd.c ****  {
 274              		.loc 1 165 0 is_stmt 0 discriminator 1
 275 006a 0E2A     		cmp	r2, #14
 276 006c ECD9     		bls	.L13
 178:Drivers/STM32F4xx_HAL_Driver/Src/stm32f4xx_hal_pcd.c ****  {
 277              		.loc 1 178 0 is_stmt 1
 278 006e 0022     		movs	r2, #0
 279              	.LVL25:
 280 0070 18E0     		b	.L14
 281              	.LVL26:
 282              	.L15:
 180:Drivers/STM32F4xx_HAL_Driver/Src/stm32f4xx_hal_pcd.c ****    hpcd->OUT_ep[i].num = i;
 283              		.loc 1 180 0 discriminator 3
 284 0072 D100     		lsls	r1, r2, #3
 285 0074 891A     		subs	r1, r1, r2
 286 0076 8B00     		lsls	r3, r1, #2
 287 0078 2344     		add	r3, r3, r4
 288 007a 0021     		movs	r1, #0
 289 007c 83F8F911 		strb	r1, [r3, #505]
 181:Drivers/STM32F4xx_HAL_Driver/Src/stm32f4xx_hal_pcd.c ****    hpcd->IN_ep[i].tx_fifo_num = i;
 290              		.loc 1 181 0 discriminator 3
 291 0080 83F8F821 		strb	r2, [r3, #504]
 182:Drivers/STM32F4xx_HAL_Driver/Src/stm32f4xx_hal_pcd.c ****    /* Control until ep is activated */
 292              		.loc 1 182 0 discriminator 3
 293 0084 DA87     		strh	r2, [r3, #62]	@ movhi
 184:Drivers/STM32F4xx_HAL_Driver/Src/stm32f4xx_hal_pcd.c ****    hpcd->OUT_ep[i].maxpacket = 0U;
 294              		.loc 1 184 0 discriminator 3
 295 0086 83F8FB11 		strb	r1, [r3, #507]
 185:Drivers/STM32F4xx_HAL_Driver/Src/stm32f4xx_hal_pcd.c ****    hpcd->OUT_ep[i].xfer_buff = 0U;
 296              		.loc 1 185 0 discriminator 3
 297 008a C3F80012 		str	r1, [r3, #512]
 186:Drivers/STM32F4xx_HAL_Driver/Src/stm32f4xx_hal_pcd.c ****    hpcd->OUT_ep[i].xfer_len = 0U;
 298              		.loc 1 186 0 discriminator 3
 299 008e C3F80412 		str	r1, [r3, #516]
 187:Drivers/STM32F4xx_HAL_Driver/Src/stm32f4xx_hal_pcd.c ****    
 300              		.loc 1 187 0 discriminator 3
 301 0092 C3F80C12 		str	r1, [r3, #524]
 189:Drivers/STM32F4xx_HAL_Driver/Src/stm32f4xx_hal_pcd.c ****  }
 302              		.loc 1 189 0 discriminator 3
 303 0096 2368     		ldr	r3, [r4]
 304 0098 02F14000 		add	r0, r2, #64
 305 009c 03EB8003 		add	r3, r3, r0, lsl #2
 306 00a0 5960     		str	r1, [r3, #4]
 178:Drivers/STM32F4xx_HAL_Driver/Src/stm32f4xx_hal_pcd.c ****  {
 307              		.loc 1 178 0 discriminator 3
 308 00a2 0132     		adds	r2, r2, #1
 309              	.LVL27:
 310              	.L14:
 178:Drivers/STM32F4xx_HAL_Driver/Src/stm32f4xx_hal_pcd.c ****  {
 311              		.loc 1 178 0 is_stmt 0 discriminator 1
 312 00a4 0E2A     		cmp	r2, #14
 313 00a6 E4D9     		bls	.L15
 193:Drivers/STM32F4xx_HAL_Driver/Src/stm32f4xx_hal_pcd.c ****  
ARM GAS  x:\temp2\ccqe4sF7.s 			page 30


 314              		.loc 1 193 0 is_stmt 1
 315 00a8 2546     		mov	r5, r4
 316 00aa 55F8107B 		ldr	r7, [r5], #16
 317 00ae 6E46     		mov	r6, sp
 318 00b0 0FCD     		ldmia	r5!, {r0, r1, r2, r3}
 319              	.LVL28:
 320 00b2 0FC6     		stmia	r6!, {r0, r1, r2, r3}
 321 00b4 0FCD     		ldmia	r5!, {r0, r1, r2, r3}
 322 00b6 0FC6     		stmia	r6!, {r0, r1, r2, r3}
 323 00b8 95E80300 		ldm	r5, {r0, r1}
 324 00bc 86E80300 		stm	r6, {r0, r1}
 325 00c0 231D     		adds	r3, r4, #4
 326 00c2 0ECB     		ldm	r3, {r1, r2, r3}
 327 00c4 3846     		mov	r0, r7
 328 00c6 FFF7FEFF 		bl	USB_DevInit
 329              	.LVL29:
 195:Drivers/STM32F4xx_HAL_Driver/Src/stm32f4xx_hal_pcd.c ****  
 330              		.loc 1 195 0
 331 00ca 0123     		movs	r3, #1
 332 00cc 84F8B933 		strb	r3, [r4, #953]
 213:Drivers/STM32F4xx_HAL_Driver/Src/stm32f4xx_hal_pcd.c ****  return HAL_OK;
 333              		.loc 1 213 0
 334 00d0 2068     		ldr	r0, [r4]
 335 00d2 FFF7FEFF 		bl	USB_DevDisconnect
 336              	.LVL30:
 214:Drivers/STM32F4xx_HAL_Driver/Src/stm32f4xx_hal_pcd.c **** }
 337              		.loc 1 214 0
 338 00d6 0020     		movs	r0, #0
 215:Drivers/STM32F4xx_HAL_Driver/Src/stm32f4xx_hal_pcd.c **** 
 339              		.loc 1 215 0
 340 00d8 0BB0     		add	sp, sp, #44
 341              	.LCFI5:
 342              		.cfi_def_cfa_offset 20
 343              		@ sp needed
 344 00da F0BD     		pop	{r4, r5, r6, r7, pc}
 345              	.LVL31:
 346              	.L16:
 347              	.LCFI6:
 348              		.cfi_def_cfa_offset 0
 349              		.cfi_restore 4
 350              		.cfi_restore 5
 351              		.cfi_restore 6
 352              		.cfi_restore 7
 353              		.cfi_restore 14
 144:Drivers/STM32F4xx_HAL_Driver/Src/stm32f4xx_hal_pcd.c ****   }
 354              		.loc 1 144 0
 355 00dc 0120     		movs	r0, #1
 356              	.LVL32:
 215:Drivers/STM32F4xx_HAL_Driver/Src/stm32f4xx_hal_pcd.c **** 
 357              		.loc 1 215 0
 358 00de 7047     		bx	lr
 359              		.cfi_endproc
 360              	.LFE126:
 362              		.section	.text.HAL_PCD_MspDeInit,"ax",%progbits
 363              		.align	1
 364              		.weak	HAL_PCD_MspDeInit
 365              		.syntax unified
ARM GAS  x:\temp2\ccqe4sF7.s 			page 31


 366              		.thumb
 367              		.thumb_func
 368              		.fpu fpv4-sp-d16
 370              	HAL_PCD_MspDeInit:
 371              	.LFB129:
 263:Drivers/STM32F4xx_HAL_Driver/Src/stm32f4xx_hal_pcd.c ****   /* Prevent unused argument(s) compilation warning */
 372              		.loc 1 263 0
 373              		.cfi_startproc
 374              		@ args = 0, pretend = 0, frame = 0
 375              		@ frame_needed = 0, uses_anonymous_args = 0
 376              		@ link register save eliminated.
 377              	.LVL33:
 269:Drivers/STM32F4xx_HAL_Driver/Src/stm32f4xx_hal_pcd.c **** 
 378              		.loc 1 269 0
 379 0000 7047     		bx	lr
 380              		.cfi_endproc
 381              	.LFE129:
 383              		.section	.text.HAL_PCD_Start,"ax",%progbits
 384              		.align	1
 385              		.global	HAL_PCD_Start
 386              		.syntax unified
 387              		.thumb
 388              		.thumb_func
 389              		.fpu fpv4-sp-d16
 391              	HAL_PCD_Start:
 392              	.LFB130:
 296:Drivers/STM32F4xx_HAL_Driver/Src/stm32f4xx_hal_pcd.c ****   __HAL_LOCK(hpcd); 
 393              		.loc 1 296 0
 394              		.cfi_startproc
 395              		@ args = 0, pretend = 0, frame = 0
 396              		@ frame_needed = 0, uses_anonymous_args = 0
 397              	.LVL34:
 297:Drivers/STM32F4xx_HAL_Driver/Src/stm32f4xx_hal_pcd.c ****   USB_DevConnect (hpcd->Instance);  
 398              		.loc 1 297 0
 399 0000 90F8B833 		ldrb	r3, [r0, #952]	@ zero_extendqisi2
 400 0004 012B     		cmp	r3, #1
 401 0006 0ED0     		beq	.L24
 296:Drivers/STM32F4xx_HAL_Driver/Src/stm32f4xx_hal_pcd.c ****   __HAL_LOCK(hpcd); 
 402              		.loc 1 296 0 discriminator 2
 403 0008 10B5     		push	{r4, lr}
 404              	.LCFI7:
 405              		.cfi_def_cfa_offset 8
 406              		.cfi_offset 4, -8
 407              		.cfi_offset 14, -4
 408 000a 0446     		mov	r4, r0
 297:Drivers/STM32F4xx_HAL_Driver/Src/stm32f4xx_hal_pcd.c ****   USB_DevConnect (hpcd->Instance);  
 409              		.loc 1 297 0 discriminator 2
 410 000c 0123     		movs	r3, #1
 411 000e 80F8B833 		strb	r3, [r0, #952]
 298:Drivers/STM32F4xx_HAL_Driver/Src/stm32f4xx_hal_pcd.c ****   __HAL_PCD_ENABLE(hpcd);
 412              		.loc 1 298 0 discriminator 2
 413 0012 0068     		ldr	r0, [r0]
 414              	.LVL35:
 415 0014 FFF7FEFF 		bl	USB_DevConnect
 416              	.LVL36:
 299:Drivers/STM32F4xx_HAL_Driver/Src/stm32f4xx_hal_pcd.c ****   __HAL_UNLOCK(hpcd); 
 417              		.loc 1 299 0 discriminator 2
ARM GAS  x:\temp2\ccqe4sF7.s 			page 32


 418 0018 2068     		ldr	r0, [r4]
 419 001a FFF7FEFF 		bl	USB_EnableGlobalInt
 420              	.LVL37:
 300:Drivers/STM32F4xx_HAL_Driver/Src/stm32f4xx_hal_pcd.c ****   return HAL_OK;
 421              		.loc 1 300 0 discriminator 2
 422 001e 0020     		movs	r0, #0
 423 0020 84F8B803 		strb	r0, [r4, #952]
 302:Drivers/STM32F4xx_HAL_Driver/Src/stm32f4xx_hal_pcd.c **** 
 424              		.loc 1 302 0 discriminator 2
 425 0024 10BD     		pop	{r4, pc}
 426              	.LVL38:
 427              	.L24:
 428              	.LCFI8:
 429              		.cfi_def_cfa_offset 0
 430              		.cfi_restore 4
 431              		.cfi_restore 14
 297:Drivers/STM32F4xx_HAL_Driver/Src/stm32f4xx_hal_pcd.c ****   USB_DevConnect (hpcd->Instance);  
 432              		.loc 1 297 0
 433 0026 0220     		movs	r0, #2
 434              	.LVL39:
 302:Drivers/STM32F4xx_HAL_Driver/Src/stm32f4xx_hal_pcd.c **** 
 435              		.loc 1 302 0
 436 0028 7047     		bx	lr
 437              		.cfi_endproc
 438              	.LFE130:
 440              		.section	.text.HAL_PCD_Stop,"ax",%progbits
 441              		.align	1
 442              		.global	HAL_PCD_Stop
 443              		.syntax unified
 444              		.thumb
 445              		.thumb_func
 446              		.fpu fpv4-sp-d16
 448              	HAL_PCD_Stop:
 449              	.LFB131:
 310:Drivers/STM32F4xx_HAL_Driver/Src/stm32f4xx_hal_pcd.c ****   __HAL_LOCK(hpcd); 
 450              		.loc 1 310 0
 451              		.cfi_startproc
 452              		@ args = 0, pretend = 0, frame = 0
 453              		@ frame_needed = 0, uses_anonymous_args = 0
 454              	.LVL40:
 311:Drivers/STM32F4xx_HAL_Driver/Src/stm32f4xx_hal_pcd.c ****   __HAL_PCD_DISABLE(hpcd);
 455              		.loc 1 311 0
 456 0000 90F8B833 		ldrb	r3, [r0, #952]	@ zero_extendqisi2
 457 0004 012B     		cmp	r3, #1
 458 0006 11D0     		beq	.L31
 310:Drivers/STM32F4xx_HAL_Driver/Src/stm32f4xx_hal_pcd.c ****   __HAL_LOCK(hpcd); 
 459              		.loc 1 310 0 discriminator 2
 460 0008 10B5     		push	{r4, lr}
 461              	.LCFI9:
 462              		.cfi_def_cfa_offset 8
 463              		.cfi_offset 4, -8
 464              		.cfi_offset 14, -4
 465 000a 0446     		mov	r4, r0
 311:Drivers/STM32F4xx_HAL_Driver/Src/stm32f4xx_hal_pcd.c ****   __HAL_PCD_DISABLE(hpcd);
 466              		.loc 1 311 0 discriminator 2
 467 000c 0123     		movs	r3, #1
 468 000e 80F8B833 		strb	r3, [r0, #952]
ARM GAS  x:\temp2\ccqe4sF7.s 			page 33


 312:Drivers/STM32F4xx_HAL_Driver/Src/stm32f4xx_hal_pcd.c ****   USB_StopDevice(hpcd->Instance);
 469              		.loc 1 312 0 discriminator 2
 470 0012 0068     		ldr	r0, [r0]
 471              	.LVL41:
 472 0014 FFF7FEFF 		bl	USB_DisableGlobalInt
 473              	.LVL42:
 313:Drivers/STM32F4xx_HAL_Driver/Src/stm32f4xx_hal_pcd.c ****   USB_DevDisconnect(hpcd->Instance);
 474              		.loc 1 313 0 discriminator 2
 475 0018 2068     		ldr	r0, [r4]
 476 001a FFF7FEFF 		bl	USB_StopDevice
 477              	.LVL43:
 314:Drivers/STM32F4xx_HAL_Driver/Src/stm32f4xx_hal_pcd.c ****   __HAL_UNLOCK(hpcd); 
 478              		.loc 1 314 0 discriminator 2
 479 001e 2068     		ldr	r0, [r4]
 480 0020 FFF7FEFF 		bl	USB_DevDisconnect
 481              	.LVL44:
 315:Drivers/STM32F4xx_HAL_Driver/Src/stm32f4xx_hal_pcd.c ****   return HAL_OK;
 482              		.loc 1 315 0 discriminator 2
 483 0024 0020     		movs	r0, #0
 484 0026 84F8B803 		strb	r0, [r4, #952]
 317:Drivers/STM32F4xx_HAL_Driver/Src/stm32f4xx_hal_pcd.c **** 
 485              		.loc 1 317 0 discriminator 2
 486 002a 10BD     		pop	{r4, pc}
 487              	.LVL45:
 488              	.L31:
 489              	.LCFI10:
 490              		.cfi_def_cfa_offset 0
 491              		.cfi_restore 4
 492              		.cfi_restore 14
 311:Drivers/STM32F4xx_HAL_Driver/Src/stm32f4xx_hal_pcd.c ****   __HAL_PCD_DISABLE(hpcd);
 493              		.loc 1 311 0
 494 002c 0220     		movs	r0, #2
 495              	.LVL46:
 317:Drivers/STM32F4xx_HAL_Driver/Src/stm32f4xx_hal_pcd.c **** 
 496              		.loc 1 317 0
 497 002e 7047     		bx	lr
 498              		.cfi_endproc
 499              	.LFE131:
 501              		.section	.text.HAL_PCD_DeInit,"ax",%progbits
 502              		.align	1
 503              		.global	HAL_PCD_DeInit
 504              		.syntax unified
 505              		.thumb
 506              		.thumb_func
 507              		.fpu fpv4-sp-d16
 509              	HAL_PCD_DeInit:
 510              	.LFB127:
 223:Drivers/STM32F4xx_HAL_Driver/Src/stm32f4xx_hal_pcd.c ****   /* Check the PCD handle allocation */
 511              		.loc 1 223 0
 512              		.cfi_startproc
 513              		@ args = 0, pretend = 0, frame = 0
 514              		@ frame_needed = 0, uses_anonymous_args = 0
 515              	.LVL47:
 225:Drivers/STM32F4xx_HAL_Driver/Src/stm32f4xx_hal_pcd.c ****   {
 516              		.loc 1 225 0
 517 0000 68B1     		cbz	r0, .L38
 223:Drivers/STM32F4xx_HAL_Driver/Src/stm32f4xx_hal_pcd.c ****   /* Check the PCD handle allocation */
ARM GAS  x:\temp2\ccqe4sF7.s 			page 34


 518              		.loc 1 223 0
 519 0002 10B5     		push	{r4, lr}
 520              	.LCFI11:
 521              		.cfi_def_cfa_offset 8
 522              		.cfi_offset 4, -8
 523              		.cfi_offset 14, -4
 524 0004 0446     		mov	r4, r0
 230:Drivers/STM32F4xx_HAL_Driver/Src/stm32f4xx_hal_pcd.c ****   
 525              		.loc 1 230 0
 526 0006 0323     		movs	r3, #3
 527 0008 80F8B933 		strb	r3, [r0, #953]
 233:Drivers/STM32F4xx_HAL_Driver/Src/stm32f4xx_hal_pcd.c ****     
 528              		.loc 1 233 0
 529 000c FFF7FEFF 		bl	HAL_PCD_Stop
 530              	.LVL48:
 236:Drivers/STM32F4xx_HAL_Driver/Src/stm32f4xx_hal_pcd.c ****   
 531              		.loc 1 236 0
 532 0010 2046     		mov	r0, r4
 533 0012 FFF7FEFF 		bl	HAL_PCD_MspDeInit
 534              	.LVL49:
 238:Drivers/STM32F4xx_HAL_Driver/Src/stm32f4xx_hal_pcd.c ****   
 535              		.loc 1 238 0
 536 0016 0020     		movs	r0, #0
 537 0018 84F8B903 		strb	r0, [r4, #953]
 241:Drivers/STM32F4xx_HAL_Driver/Src/stm32f4xx_hal_pcd.c **** 
 538              		.loc 1 241 0
 539 001c 10BD     		pop	{r4, pc}
 540              	.LVL50:
 541              	.L38:
 542              	.LCFI12:
 543              		.cfi_def_cfa_offset 0
 544              		.cfi_restore 4
 545              		.cfi_restore 14
 227:Drivers/STM32F4xx_HAL_Driver/Src/stm32f4xx_hal_pcd.c ****   }
 546              		.loc 1 227 0
 547 001e 0120     		movs	r0, #1
 548              	.LVL51:
 241:Drivers/STM32F4xx_HAL_Driver/Src/stm32f4xx_hal_pcd.c **** 
 549              		.loc 1 241 0
 550 0020 7047     		bx	lr
 551              		.cfi_endproc
 552              	.LFE127:
 554              		.section	.text.HAL_PCD_DataOutStageCallback,"ax",%progbits
 555              		.align	1
 556              		.weak	HAL_PCD_DataOutStageCallback
 557              		.syntax unified
 558              		.thumb
 559              		.thumb_func
 560              		.fpu fpv4-sp-d16
 562              	HAL_PCD_DataOutStageCallback:
 563              	.LFB133:
 723:Drivers/STM32F4xx_HAL_Driver/Src/stm32f4xx_hal_pcd.c ****   /* Prevent unused argument(s) compilation warning */
 564              		.loc 1 723 0
 565              		.cfi_startproc
 566              		@ args = 0, pretend = 0, frame = 0
 567              		@ frame_needed = 0, uses_anonymous_args = 0
 568              		@ link register save eliminated.
ARM GAS  x:\temp2\ccqe4sF7.s 			page 35


 569              	.LVL52:
 730:Drivers/STM32F4xx_HAL_Driver/Src/stm32f4xx_hal_pcd.c **** 
 570              		.loc 1 730 0
 571 0000 7047     		bx	lr
 572              		.cfi_endproc
 573              	.LFE133:
 575              		.section	.text.HAL_PCD_DataInStageCallback,"ax",%progbits
 576              		.align	1
 577              		.weak	HAL_PCD_DataInStageCallback
 578              		.syntax unified
 579              		.thumb
 580              		.thumb_func
 581              		.fpu fpv4-sp-d16
 583              	HAL_PCD_DataInStageCallback:
 584              	.LFB134:
 739:Drivers/STM32F4xx_HAL_Driver/Src/stm32f4xx_hal_pcd.c ****   /* Prevent unused argument(s) compilation warning */
 585              		.loc 1 739 0
 586              		.cfi_startproc
 587              		@ args = 0, pretend = 0, frame = 0
 588              		@ frame_needed = 0, uses_anonymous_args = 0
 589              		@ link register save eliminated.
 590              	.LVL53:
 746:Drivers/STM32F4xx_HAL_Driver/Src/stm32f4xx_hal_pcd.c **** /**
 591              		.loc 1 746 0
 592 0000 7047     		bx	lr
 593              		.cfi_endproc
 594              	.LFE134:
 596              		.section	.text.HAL_PCD_SetupStageCallback,"ax",%progbits
 597              		.align	1
 598              		.weak	HAL_PCD_SetupStageCallback
 599              		.syntax unified
 600              		.thumb
 601              		.thumb_func
 602              		.fpu fpv4-sp-d16
 604              	HAL_PCD_SetupStageCallback:
 605              	.LFB135:
 753:Drivers/STM32F4xx_HAL_Driver/Src/stm32f4xx_hal_pcd.c ****   /* Prevent unused argument(s) compilation warning */
 606              		.loc 1 753 0
 607              		.cfi_startproc
 608              		@ args = 0, pretend = 0, frame = 0
 609              		@ frame_needed = 0, uses_anonymous_args = 0
 610              		@ link register save eliminated.
 611              	.LVL54:
 759:Drivers/STM32F4xx_HAL_Driver/Src/stm32f4xx_hal_pcd.c **** 
 612              		.loc 1 759 0
 613 0000 7047     		bx	lr
 614              		.cfi_endproc
 615              	.LFE135:
 617              		.section	.text.HAL_PCD_SOFCallback,"ax",%progbits
 618              		.align	1
 619              		.weak	HAL_PCD_SOFCallback
 620              		.syntax unified
 621              		.thumb
 622              		.thumb_func
 623              		.fpu fpv4-sp-d16
 625              	HAL_PCD_SOFCallback:
 626              	.LFB136:
ARM GAS  x:\temp2\ccqe4sF7.s 			page 36


 767:Drivers/STM32F4xx_HAL_Driver/Src/stm32f4xx_hal_pcd.c ****   /* Prevent unused argument(s) compilation warning */
 627              		.loc 1 767 0
 628              		.cfi_startproc
 629              		@ args = 0, pretend = 0, frame = 0
 630              		@ frame_needed = 0, uses_anonymous_args = 0
 631              		@ link register save eliminated.
 632              	.LVL55:
 773:Drivers/STM32F4xx_HAL_Driver/Src/stm32f4xx_hal_pcd.c **** 
 633              		.loc 1 773 0
 634 0000 7047     		bx	lr
 635              		.cfi_endproc
 636              	.LFE136:
 638              		.section	.text.HAL_PCD_ResetCallback,"ax",%progbits
 639              		.align	1
 640              		.weak	HAL_PCD_ResetCallback
 641              		.syntax unified
 642              		.thumb
 643              		.thumb_func
 644              		.fpu fpv4-sp-d16
 646              	HAL_PCD_ResetCallback:
 647              	.LFB137:
 781:Drivers/STM32F4xx_HAL_Driver/Src/stm32f4xx_hal_pcd.c ****   /* Prevent unused argument(s) compilation warning */
 648              		.loc 1 781 0
 649              		.cfi_startproc
 650              		@ args = 0, pretend = 0, frame = 0
 651              		@ frame_needed = 0, uses_anonymous_args = 0
 652              		@ link register save eliminated.
 653              	.LVL56:
 787:Drivers/STM32F4xx_HAL_Driver/Src/stm32f4xx_hal_pcd.c **** 
 654              		.loc 1 787 0
 655 0000 7047     		bx	lr
 656              		.cfi_endproc
 657              	.LFE137:
 659              		.section	.text.HAL_PCD_SuspendCallback,"ax",%progbits
 660              		.align	1
 661              		.weak	HAL_PCD_SuspendCallback
 662              		.syntax unified
 663              		.thumb
 664              		.thumb_func
 665              		.fpu fpv4-sp-d16
 667              	HAL_PCD_SuspendCallback:
 668              	.LFB138:
 795:Drivers/STM32F4xx_HAL_Driver/Src/stm32f4xx_hal_pcd.c ****   /* Prevent unused argument(s) compilation warning */
 669              		.loc 1 795 0
 670              		.cfi_startproc
 671              		@ args = 0, pretend = 0, frame = 0
 672              		@ frame_needed = 0, uses_anonymous_args = 0
 673              		@ link register save eliminated.
 674              	.LVL57:
 801:Drivers/STM32F4xx_HAL_Driver/Src/stm32f4xx_hal_pcd.c **** 
 675              		.loc 1 801 0
 676 0000 7047     		bx	lr
 677              		.cfi_endproc
 678              	.LFE138:
 680              		.section	.text.HAL_PCD_ResumeCallback,"ax",%progbits
 681              		.align	1
 682              		.weak	HAL_PCD_ResumeCallback
ARM GAS  x:\temp2\ccqe4sF7.s 			page 37


 683              		.syntax unified
 684              		.thumb
 685              		.thumb_func
 686              		.fpu fpv4-sp-d16
 688              	HAL_PCD_ResumeCallback:
 689              	.LFB139:
 809:Drivers/STM32F4xx_HAL_Driver/Src/stm32f4xx_hal_pcd.c ****   /* Prevent unused argument(s) compilation warning */
 690              		.loc 1 809 0
 691              		.cfi_startproc
 692              		@ args = 0, pretend = 0, frame = 0
 693              		@ frame_needed = 0, uses_anonymous_args = 0
 694              		@ link register save eliminated.
 695              	.LVL58:
 815:Drivers/STM32F4xx_HAL_Driver/Src/stm32f4xx_hal_pcd.c **** 
 696              		.loc 1 815 0
 697 0000 7047     		bx	lr
 698              		.cfi_endproc
 699              	.LFE139:
 701              		.section	.text.HAL_PCD_ISOOUTIncompleteCallback,"ax",%progbits
 702              		.align	1
 703              		.weak	HAL_PCD_ISOOUTIncompleteCallback
 704              		.syntax unified
 705              		.thumb
 706              		.thumb_func
 707              		.fpu fpv4-sp-d16
 709              	HAL_PCD_ISOOUTIncompleteCallback:
 710              	.LFB140:
 824:Drivers/STM32F4xx_HAL_Driver/Src/stm32f4xx_hal_pcd.c ****   /* Prevent unused argument(s) compilation warning */
 711              		.loc 1 824 0
 712              		.cfi_startproc
 713              		@ args = 0, pretend = 0, frame = 0
 714              		@ frame_needed = 0, uses_anonymous_args = 0
 715              		@ link register save eliminated.
 716              	.LVL59:
 831:Drivers/STM32F4xx_HAL_Driver/Src/stm32f4xx_hal_pcd.c **** 
 717              		.loc 1 831 0
 718 0000 7047     		bx	lr
 719              		.cfi_endproc
 720              	.LFE140:
 722              		.section	.text.HAL_PCD_ISOINIncompleteCallback,"ax",%progbits
 723              		.align	1
 724              		.weak	HAL_PCD_ISOINIncompleteCallback
 725              		.syntax unified
 726              		.thumb
 727              		.thumb_func
 728              		.fpu fpv4-sp-d16
 730              	HAL_PCD_ISOINIncompleteCallback:
 731              	.LFB141:
 840:Drivers/STM32F4xx_HAL_Driver/Src/stm32f4xx_hal_pcd.c ****   /* Prevent unused argument(s) compilation warning */
 732              		.loc 1 840 0
 733              		.cfi_startproc
 734              		@ args = 0, pretend = 0, frame = 0
 735              		@ frame_needed = 0, uses_anonymous_args = 0
 736              		@ link register save eliminated.
 737              	.LVL60:
 847:Drivers/STM32F4xx_HAL_Driver/Src/stm32f4xx_hal_pcd.c **** 
 738              		.loc 1 847 0
ARM GAS  x:\temp2\ccqe4sF7.s 			page 38


 739 0000 7047     		bx	lr
 740              		.cfi_endproc
 741              	.LFE141:
 743              		.section	.text.HAL_PCD_ConnectCallback,"ax",%progbits
 744              		.align	1
 745              		.weak	HAL_PCD_ConnectCallback
 746              		.syntax unified
 747              		.thumb
 748              		.thumb_func
 749              		.fpu fpv4-sp-d16
 751              	HAL_PCD_ConnectCallback:
 752              	.LFB142:
 855:Drivers/STM32F4xx_HAL_Driver/Src/stm32f4xx_hal_pcd.c ****   /* Prevent unused argument(s) compilation warning */
 753              		.loc 1 855 0
 754              		.cfi_startproc
 755              		@ args = 0, pretend = 0, frame = 0
 756              		@ frame_needed = 0, uses_anonymous_args = 0
 757              		@ link register save eliminated.
 758              	.LVL61:
 861:Drivers/STM32F4xx_HAL_Driver/Src/stm32f4xx_hal_pcd.c **** 
 759              		.loc 1 861 0
 760 0000 7047     		bx	lr
 761              		.cfi_endproc
 762              	.LFE142:
 764              		.section	.text.HAL_PCD_DisconnectCallback,"ax",%progbits
 765              		.align	1
 766              		.weak	HAL_PCD_DisconnectCallback
 767              		.syntax unified
 768              		.thumb
 769              		.thumb_func
 770              		.fpu fpv4-sp-d16
 772              	HAL_PCD_DisconnectCallback:
 773              	.LFB143:
 869:Drivers/STM32F4xx_HAL_Driver/Src/stm32f4xx_hal_pcd.c ****   /* Prevent unused argument(s) compilation warning */
 774              		.loc 1 869 0
 775              		.cfi_startproc
 776              		@ args = 0, pretend = 0, frame = 0
 777              		@ frame_needed = 0, uses_anonymous_args = 0
 778              		@ link register save eliminated.
 779              	.LVL62:
 875:Drivers/STM32F4xx_HAL_Driver/Src/stm32f4xx_hal_pcd.c **** 
 780              		.loc 1 875 0
 781 0000 7047     		bx	lr
 782              		.cfi_endproc
 783              	.LFE143:
 785              		.section	.text.HAL_PCD_IRQHandler,"ax",%progbits
 786              		.align	1
 787              		.global	HAL_PCD_IRQHandler
 788              		.syntax unified
 789              		.thumb
 790              		.thumb_func
 791              		.fpu fpv4-sp-d16
 793              	HAL_PCD_IRQHandler:
 794              	.LFB132:
 325:Drivers/STM32F4xx_HAL_Driver/Src/stm32f4xx_hal_pcd.c ****   USB_OTG_GlobalTypeDef *USBx = hpcd->Instance;
 795              		.loc 1 325 0
 796              		.cfi_startproc
ARM GAS  x:\temp2\ccqe4sF7.s 			page 39


 797              		@ args = 0, pretend = 0, frame = 0
 798              		@ frame_needed = 0, uses_anonymous_args = 0
 799              	.LVL63:
 800 0000 2DE9F047 		push	{r4, r5, r6, r7, r8, r9, r10, lr}
 801              	.LCFI13:
 802              		.cfi_def_cfa_offset 32
 803              		.cfi_offset 4, -32
 804              		.cfi_offset 5, -28
 805              		.cfi_offset 6, -24
 806              		.cfi_offset 7, -20
 807              		.cfi_offset 8, -16
 808              		.cfi_offset 9, -12
 809              		.cfi_offset 10, -8
 810              		.cfi_offset 14, -4
 811 0004 0446     		mov	r4, r0
 326:Drivers/STM32F4xx_HAL_Driver/Src/stm32f4xx_hal_pcd.c ****   uint32_t i = 0U, ep_intr = 0U, epint = 0U, epnum = 0U;
 812              		.loc 1 326 0
 813 0006 0568     		ldr	r5, [r0]
 814              	.LVL64:
 333:Drivers/STM32F4xx_HAL_Driver/Src/stm32f4xx_hal_pcd.c ****   {    
 815              		.loc 1 333 0
 816 0008 2846     		mov	r0, r5
 817              	.LVL65:
 818 000a FFF7FEFF 		bl	USB_GetMode
 819              	.LVL66:
 820 000e 08B1     		cbz	r0, .L104
 821              	.LVL67:
 822              	.L54:
 714:Drivers/STM32F4xx_HAL_Driver/Src/stm32f4xx_hal_pcd.c **** 
 823              		.loc 1 714 0
 824 0010 BDE8F087 		pop	{r4, r5, r6, r7, r8, r9, r10, pc}
 825              	.LVL68:
 826              	.L104:
 827 0014 0646     		mov	r6, r0
 336:Drivers/STM32F4xx_HAL_Driver/Src/stm32f4xx_hal_pcd.c ****     {
 828              		.loc 1 336 0
 829 0016 2068     		ldr	r0, [r4]
 830 0018 FFF7FEFF 		bl	USB_ReadInterrupts
 831              	.LVL69:
 832 001c 0028     		cmp	r0, #0
 833 001e F7D0     		beq	.L54
 341:Drivers/STM32F4xx_HAL_Driver/Src/stm32f4xx_hal_pcd.c ****     {
 834              		.loc 1 341 0
 835 0020 2068     		ldr	r0, [r4]
 836 0022 FFF7FEFF 		bl	USB_ReadInterrupts
 837              	.LVL70:
 838 0026 10F0020F 		tst	r0, #2
 839 002a 04D0     		beq	.L56
 344:Drivers/STM32F4xx_HAL_Driver/Src/stm32f4xx_hal_pcd.c ****     }
 840              		.loc 1 344 0
 841 002c 2268     		ldr	r2, [r4]
 842 002e 5369     		ldr	r3, [r2, #20]
 843 0030 03F00203 		and	r3, r3, #2
 844 0034 5361     		str	r3, [r2, #20]
 845              	.L56:
 347:Drivers/STM32F4xx_HAL_Driver/Src/stm32f4xx_hal_pcd.c ****     {
 846              		.loc 1 347 0
ARM GAS  x:\temp2\ccqe4sF7.s 			page 40


 847 0036 2068     		ldr	r0, [r4]
 848 0038 FFF7FEFF 		bl	USB_ReadInterrupts
 849              	.LVL71:
 850 003c 10F4002F 		tst	r0, #524288
 851 0040 75D1     		bne	.L105
 327:Drivers/STM32F4xx_HAL_Driver/Src/stm32f4xx_hal_pcd.c ****   uint32_t fifoemptymsk = 0U, temp = 0U;
 852              		.loc 1 327 0
 853 0042 3746     		mov	r7, r6
 854              	.LVL72:
 855              	.L57:
 406:Drivers/STM32F4xx_HAL_Driver/Src/stm32f4xx_hal_pcd.c ****     {
 856              		.loc 1 406 0
 857 0044 2068     		ldr	r0, [r4]
 858 0046 FFF7FEFF 		bl	USB_ReadInterrupts
 859              	.LVL73:
 860 004a 10F4802F 		tst	r0, #262144
 861 004e 40F0D280 		bne	.L106
 862              	.LVL74:
 863              	.L64:
 470:Drivers/STM32F4xx_HAL_Driver/Src/stm32f4xx_hal_pcd.c ****     {    
 864              		.loc 1 470 0
 865 0052 2068     		ldr	r0, [r4]
 866 0054 FFF7FEFF 		bl	USB_ReadInterrupts
 867              	.LVL75:
 868 0058 0028     		cmp	r0, #0
 869 005a C0F23E81 		blt	.L107
 870              	.L74:
 491:Drivers/STM32F4xx_HAL_Driver/Src/stm32f4xx_hal_pcd.c ****     {
 871              		.loc 1 491 0
 872 005e 2068     		ldr	r0, [r4]
 873 0060 FFF7FEFF 		bl	USB_ReadInterrupts
 874              	.LVL76:
 875 0064 10F4006F 		tst	r0, #2048
 876 0068 0AD0     		beq	.L75
 493:Drivers/STM32F4xx_HAL_Driver/Src/stm32f4xx_hal_pcd.c ****       {
 877              		.loc 1 493 0
 878 006a D5F80838 		ldr	r3, [r5, #2056]
 879 006e 13F0010F 		tst	r3, #1
 880 0072 40F04181 		bne	.L108
 881              	.L76:
 498:Drivers/STM32F4xx_HAL_Driver/Src/stm32f4xx_hal_pcd.c ****     }
 882              		.loc 1 498 0
 883 0076 2268     		ldr	r2, [r4]
 884 0078 5369     		ldr	r3, [r2, #20]
 885 007a 03F40063 		and	r3, r3, #2048
 886 007e 5361     		str	r3, [r2, #20]
 887              	.L75:
 520:Drivers/STM32F4xx_HAL_Driver/Src/stm32f4xx_hal_pcd.c ****     {
 888              		.loc 1 520 0
 889 0080 2068     		ldr	r0, [r4]
 890 0082 FFF7FEFF 		bl	USB_ReadInterrupts
 891              	.LVL77:
 892 0086 10F4805F 		tst	r0, #4096
 893 008a 40F03981 		bne	.L109
 894              	.LVL78:
 895              	.L77:
 558:Drivers/STM32F4xx_HAL_Driver/Src/stm32f4xx_hal_pcd.c ****     {
ARM GAS  x:\temp2\ccqe4sF7.s 			page 41


 896              		.loc 1 558 0
 897 008e 2068     		ldr	r0, [r4]
 898 0090 FFF7FEFF 		bl	USB_ReadInterrupts
 899              	.LVL79:
 900 0094 10F4005F 		tst	r0, #8192
 901 0098 40F08281 		bne	.L110
 902              	.LVL80:
 903              	.L82:
 649:Drivers/STM32F4xx_HAL_Driver/Src/stm32f4xx_hal_pcd.c ****     {
 904              		.loc 1 649 0
 905 009c 2068     		ldr	r0, [r4]
 906 009e FFF7FEFF 		bl	USB_ReadInterrupts
 907              	.LVL81:
 908 00a2 10F0100F 		tst	r0, #16
 909 00a6 14D0     		beq	.L94
 651:Drivers/STM32F4xx_HAL_Driver/Src/stm32f4xx_hal_pcd.c ****       
 910              		.loc 1 651 0
 911 00a8 2268     		ldr	r2, [r4]
 912 00aa 9369     		ldr	r3, [r2, #24]
 913 00ac 23F01003 		bic	r3, r3, #16
 914 00b0 9361     		str	r3, [r2, #24]
 653:Drivers/STM32F4xx_HAL_Driver/Src/stm32f4xx_hal_pcd.c ****       
 915              		.loc 1 653 0
 916 00b2 2E6A     		ldr	r6, [r5, #32]
 917              	.LVL82:
 655:Drivers/STM32F4xx_HAL_Driver/Src/stm32f4xx_hal_pcd.c ****       
 918              		.loc 1 655 0
 919 00b4 06F00F08 		and	r8, r6, #15
 920              	.LVL83:
 657:Drivers/STM32F4xx_HAL_Driver/Src/stm32f4xx_hal_pcd.c ****       {
 921              		.loc 1 657 0
 922 00b8 C6F34343 		ubfx	r3, r6, #17, #4
 923 00bc 022B     		cmp	r3, #2
 924 00be 00F00382 		beq	.L111
 666:Drivers/STM32F4xx_HAL_Driver/Src/stm32f4xx_hal_pcd.c ****       {
 925              		.loc 1 666 0
 926 00c2 062B     		cmp	r3, #6
 927 00c4 00F02182 		beq	.L112
 928              	.LVL84:
 929              	.L96:
 671:Drivers/STM32F4xx_HAL_Driver/Src/stm32f4xx_hal_pcd.c ****     }
 930              		.loc 1 671 0
 931 00c8 2268     		ldr	r2, [r4]
 932 00ca 9369     		ldr	r3, [r2, #24]
 933 00cc 43F01003 		orr	r3, r3, #16
 934 00d0 9361     		str	r3, [r2, #24]
 935              	.LVL85:
 936              	.L94:
 675:Drivers/STM32F4xx_HAL_Driver/Src/stm32f4xx_hal_pcd.c ****     {
 937              		.loc 1 675 0
 938 00d2 2068     		ldr	r0, [r4]
 939 00d4 FFF7FEFF 		bl	USB_ReadInterrupts
 940              	.LVL86:
 941 00d8 10F0080F 		tst	r0, #8
 942 00dc 40F02982 		bne	.L113
 943              	.L97:
 682:Drivers/STM32F4xx_HAL_Driver/Src/stm32f4xx_hal_pcd.c ****     {
ARM GAS  x:\temp2\ccqe4sF7.s 			page 42


 944              		.loc 1 682 0
 945 00e0 2068     		ldr	r0, [r4]
 946 00e2 FFF7FEFF 		bl	USB_ReadInterrupts
 947              	.LVL87:
 948 00e6 10F4801F 		tst	r0, #1048576
 949 00ea 40F02B82 		bne	.L114
 950              	.L98:
 689:Drivers/STM32F4xx_HAL_Driver/Src/stm32f4xx_hal_pcd.c ****     {
 951              		.loc 1 689 0
 952 00ee 2068     		ldr	r0, [r4]
 953 00f0 FFF7FEFF 		bl	USB_ReadInterrupts
 954              	.LVL88:
 955 00f4 10F4001F 		tst	r0, #2097152
 956 00f8 40F02E82 		bne	.L115
 957              	.L99:
 696:Drivers/STM32F4xx_HAL_Driver/Src/stm32f4xx_hal_pcd.c ****     {
 958              		.loc 1 696 0
 959 00fc 2068     		ldr	r0, [r4]
 960 00fe FFF7FEFF 		bl	USB_ReadInterrupts
 961              	.LVL89:
 962 0102 10F0804F 		tst	r0, #1073741824
 963 0106 40F03182 		bne	.L116
 964              	.L100:
 703:Drivers/STM32F4xx_HAL_Driver/Src/stm32f4xx_hal_pcd.c ****     {
 965              		.loc 1 703 0
 966 010a 2068     		ldr	r0, [r4]
 967 010c FFF7FEFF 		bl	USB_ReadInterrupts
 968              	.LVL90:
 969 0110 10F0040F 		tst	r0, #4
 970 0114 3FF47CAF 		beq	.L54
 705:Drivers/STM32F4xx_HAL_Driver/Src/stm32f4xx_hal_pcd.c ****       
 971              		.loc 1 705 0
 972 0118 2368     		ldr	r3, [r4]
 973 011a 5D68     		ldr	r5, [r3, #4]
 974              	.LVL91:
 707:Drivers/STM32F4xx_HAL_Driver/Src/stm32f4xx_hal_pcd.c ****       {
 975              		.loc 1 707 0
 976 011c 15F0040F 		tst	r5, #4
 977 0120 40F02D82 		bne	.L117
 978              	.L101:
 711:Drivers/STM32F4xx_HAL_Driver/Src/stm32f4xx_hal_pcd.c ****     }
 979              		.loc 1 711 0
 980 0124 2268     		ldr	r2, [r4]
 981 0126 5368     		ldr	r3, [r2, #4]
 982 0128 2B43     		orrs	r3, r3, r5
 983 012a 5360     		str	r3, [r2, #4]
 984 012c 70E7     		b	.L54
 985              	.LVL92:
 986              	.L105:
 352:Drivers/STM32F4xx_HAL_Driver/Src/stm32f4xx_hal_pcd.c ****       
 987              		.loc 1 352 0
 988 012e 2068     		ldr	r0, [r4]
 989 0130 FFF7FEFF 		bl	USB_ReadDevAllOutEpInterrupt
 990              	.LVL93:
 991 0134 8046     		mov	r8, r0
 992              	.LVL94:
 349:Drivers/STM32F4xx_HAL_Driver/Src/stm32f4xx_hal_pcd.c ****       
ARM GAS  x:\temp2\ccqe4sF7.s 			page 43


 993              		.loc 1 349 0
 994 0136 3746     		mov	r7, r6
 354:Drivers/STM32F4xx_HAL_Driver/Src/stm32f4xx_hal_pcd.c ****       {
 995              		.loc 1 354 0
 996 0138 21E0     		b	.L58
 997              	.LVL95:
 998              	.L119:
 366:Drivers/STM32F4xx_HAL_Driver/Src/stm32f4xx_hal_pcd.c ****               hpcd->OUT_ep[epnum].xfer_buff += hpcd->OUT_ep[epnum].maxpacket;            
 999              		.loc 1 366 0
 1000 013a F900     		lsls	r1, r7, #3
 1001 013c C91B     		subs	r1, r1, r7
 1002 013e 8A00     		lsls	r2, r1, #2
 1003 0140 2244     		add	r2, r2, r4
 1004 0142 D2F80012 		ldr	r1, [r2, #512]
 1005 0146 1B69     		ldr	r3, [r3, #16]
 1006 0148 C3F31203 		ubfx	r3, r3, #0, #19
 1007 014c C91A     		subs	r1, r1, r3
 1008 014e C2F81012 		str	r1, [r2, #528]
 367:Drivers/STM32F4xx_HAL_Driver/Src/stm32f4xx_hal_pcd.c ****             }
 1009              		.loc 1 367 0
 1010 0152 D2F80012 		ldr	r1, [r2, #512]
 1011 0156 D2F80432 		ldr	r3, [r2, #516]
 1012 015a 0B44     		add	r3, r3, r1
 1013 015c C2F80432 		str	r3, [r2, #516]
 1014 0160 28E0     		b	.L61
 1015              	.LVL96:
 1016              	.L60:
 381:Drivers/STM32F4xx_HAL_Driver/Src/stm32f4xx_hal_pcd.c ****           {
 1017              		.loc 1 381 0
 1018 0162 19F0080F 		tst	r9, #8
 1019 0166 3DD1     		bne	.L118
 1020              	.L62:
 388:Drivers/STM32F4xx_HAL_Driver/Src/stm32f4xx_hal_pcd.c ****           {
 1021              		.loc 1 388 0
 1022 0168 19F0100F 		tst	r9, #16
 1023 016c 04D0     		beq	.L59
 390:Drivers/STM32F4xx_HAL_Driver/Src/stm32f4xx_hal_pcd.c ****           }
 1024              		.loc 1 390 0
 1025 016e 05EB4713 		add	r3, r5, r7, lsl #5
 1026 0172 1022     		movs	r2, #16
 1027 0174 C3F8082B 		str	r2, [r3, #2824]
 1028              	.LVL97:
 1029              	.L59:
 401:Drivers/STM32F4xx_HAL_Driver/Src/stm32f4xx_hal_pcd.c ****         ep_intr >>= 1U;
 1030              		.loc 1 401 0
 1031 0178 0137     		adds	r7, r7, #1
 1032              	.LVL98:
 402:Drivers/STM32F4xx_HAL_Driver/Src/stm32f4xx_hal_pcd.c ****       }
 1033              		.loc 1 402 0
 1034 017a 4FEA5808 		lsr	r8, r8, #1
 1035              	.LVL99:
 1036              	.L58:
 354:Drivers/STM32F4xx_HAL_Driver/Src/stm32f4xx_hal_pcd.c ****       {
 1037              		.loc 1 354 0
 1038 017e B8F1000F 		cmp	r8, #0
 1039 0182 3FF45FAF 		beq	.L57
 356:Drivers/STM32F4xx_HAL_Driver/Src/stm32f4xx_hal_pcd.c ****         {
ARM GAS  x:\temp2\ccqe4sF7.s 			page 44


 1040              		.loc 1 356 0
 1041 0186 18F0010F 		tst	r8, #1
 1042 018a F5D0     		beq	.L59
 358:Drivers/STM32F4xx_HAL_Driver/Src/stm32f4xx_hal_pcd.c ****           
 1043              		.loc 1 358 0
 1044 018c 5FFA87FA 		uxtb	r10, r7
 1045 0190 5146     		mov	r1, r10
 1046 0192 2068     		ldr	r0, [r4]
 1047 0194 FFF7FEFF 		bl	USB_ReadDevOutEPInterrupt
 1048              	.LVL100:
 1049 0198 8146     		mov	r9, r0
 1050              	.LVL101:
 360:Drivers/STM32F4xx_HAL_Driver/Src/stm32f4xx_hal_pcd.c ****           {
 1051              		.loc 1 360 0
 1052 019a 10F0010F 		tst	r0, #1
 1053 019e E0D0     		beq	.L60
 362:Drivers/STM32F4xx_HAL_Driver/Src/stm32f4xx_hal_pcd.c ****             
 1054              		.loc 1 362 0
 1055 01a0 05EB4713 		add	r3, r5, r7, lsl #5
 1056 01a4 0122     		movs	r2, #1
 1057 01a6 C3F8082B 		str	r2, [r3, #2824]
 1058 01aa 03F53063 		add	r3, r3, #2816
 364:Drivers/STM32F4xx_HAL_Driver/Src/stm32f4xx_hal_pcd.c ****             {
 1059              		.loc 1 364 0
 1060 01ae 2269     		ldr	r2, [r4, #16]
 1061 01b0 012A     		cmp	r2, #1
 1062 01b2 C2D0     		beq	.L119
 1063              	.L61:
 370:Drivers/STM32F4xx_HAL_Driver/Src/stm32f4xx_hal_pcd.c ****             if(hpcd->Init.dma_enable == 1U)
 1064              		.loc 1 370 0
 1065 01b4 5146     		mov	r1, r10
 1066 01b6 2046     		mov	r0, r4
 1067              	.LVL102:
 1068 01b8 FFF7FEFF 		bl	HAL_PCD_DataOutStageCallback
 1069              	.LVL103:
 371:Drivers/STM32F4xx_HAL_Driver/Src/stm32f4xx_hal_pcd.c ****             {
 1070              		.loc 1 371 0
 1071 01bc 2369     		ldr	r3, [r4, #16]
 1072 01be 012B     		cmp	r3, #1
 1073 01c0 CFD1     		bne	.L60
 373:Drivers/STM32F4xx_HAL_Driver/Src/stm32f4xx_hal_pcd.c ****               {
 1074              		.loc 1 373 0
 1075 01c2 002F     		cmp	r7, #0
 1076 01c4 CDD1     		bne	.L60
 373:Drivers/STM32F4xx_HAL_Driver/Src/stm32f4xx_hal_pcd.c ****               {
 1077              		.loc 1 373 0 is_stmt 0 discriminator 1
 1078 01c6 C7EBC702 		rsb	r2, r7, r7, lsl #3
 1079 01ca 9300     		lsls	r3, r2, #2
 1080 01cc 2344     		add	r3, r3, r4
 1081 01ce D3F80C32 		ldr	r3, [r3, #524]
 1082 01d2 002B     		cmp	r3, #0
 1083 01d4 C5D1     		bne	.L60
 376:Drivers/STM32F4xx_HAL_Driver/Src/stm32f4xx_hal_pcd.c ****               }              
 1084              		.loc 1 376 0 is_stmt 1
 1085 01d6 04F56F72 		add	r2, r4, #956
 1086 01da 0121     		movs	r1, #1
 1087 01dc 2068     		ldr	r0, [r4]
ARM GAS  x:\temp2\ccqe4sF7.s 			page 45


 1088 01de FFF7FEFF 		bl	USB_EP0_OutStart
 1089              	.LVL104:
 1090 01e2 BEE7     		b	.L60
 1091              	.L118:
 384:Drivers/STM32F4xx_HAL_Driver/Src/stm32f4xx_hal_pcd.c ****             CLEAR_OUT_EP_INTR(epnum, USB_OTG_DOEPINT_STUP);
 1092              		.loc 1 384 0
 1093 01e4 2046     		mov	r0, r4
 1094 01e6 FFF7FEFF 		bl	HAL_PCD_SetupStageCallback
 1095              	.LVL105:
 385:Drivers/STM32F4xx_HAL_Driver/Src/stm32f4xx_hal_pcd.c ****           }
 1096              		.loc 1 385 0
 1097 01ea 05EB4713 		add	r3, r5, r7, lsl #5
 1098 01ee 0822     		movs	r2, #8
 1099 01f0 C3F8082B 		str	r2, [r3, #2824]
 1100 01f4 B8E7     		b	.L62
 1101              	.LVL106:
 1102              	.L106:
 409:Drivers/STM32F4xx_HAL_Driver/Src/stm32f4xx_hal_pcd.c ****       
 1103              		.loc 1 409 0
 1104 01f6 2068     		ldr	r0, [r4]
 1105 01f8 FFF7FEFF 		bl	USB_ReadDevAllInEpInterrupt
 1106              	.LVL107:
 1107 01fc 8046     		mov	r8, r0
 1108              	.LVL108:
 411:Drivers/STM32F4xx_HAL_Driver/Src/stm32f4xx_hal_pcd.c ****       
 1109              		.loc 1 411 0
 1110 01fe 3746     		mov	r7, r6
 413:Drivers/STM32F4xx_HAL_Driver/Src/stm32f4xx_hal_pcd.c ****       {
 1111              		.loc 1 413 0
 1112 0200 2EE0     		b	.L65
 1113              	.LVL109:
 1114              	.L121:
 428:Drivers/STM32F4xx_HAL_Driver/Src/stm32f4xx_hal_pcd.c ****             }
 1115              		.loc 1 428 0
 1116 0202 FA00     		lsls	r2, r7, #3
 1117 0204 D21B     		subs	r2, r2, r7
 1118 0206 9300     		lsls	r3, r2, #2
 1119 0208 2344     		add	r3, r3, r4
 1120 020a 196C     		ldr	r1, [r3, #64]
 1121 020c 5A6C     		ldr	r2, [r3, #68]
 1122 020e 0A44     		add	r2, r2, r1
 1123 0210 5A64     		str	r2, [r3, #68]
 1124 0212 46E0     		b	.L68
 1125              	.LVL110:
 1126              	.L67:
 443:Drivers/STM32F4xx_HAL_Driver/Src/stm32f4xx_hal_pcd.c ****           {
 1127              		.loc 1 443 0
 1128 0214 19F0080F 		tst	r9, #8
 1129 0218 04D0     		beq	.L69
 445:Drivers/STM32F4xx_HAL_Driver/Src/stm32f4xx_hal_pcd.c ****           }
 1130              		.loc 1 445 0
 1131 021a 05EB4713 		add	r3, r5, r7, lsl #5
 1132 021e 0822     		movs	r2, #8
 1133 0220 C3F80829 		str	r2, [r3, #2312]
 1134              	.L69:
 447:Drivers/STM32F4xx_HAL_Driver/Src/stm32f4xx_hal_pcd.c ****           {
 1135              		.loc 1 447 0
ARM GAS  x:\temp2\ccqe4sF7.s 			page 46


 1136 0224 19F0100F 		tst	r9, #16
 1137 0228 04D0     		beq	.L70
 449:Drivers/STM32F4xx_HAL_Driver/Src/stm32f4xx_hal_pcd.c ****           }
 1138              		.loc 1 449 0
 1139 022a 05EB4713 		add	r3, r5, r7, lsl #5
 1140 022e 1022     		movs	r2, #16
 1141 0230 C3F80829 		str	r2, [r3, #2312]
 1142              	.L70:
 451:Drivers/STM32F4xx_HAL_Driver/Src/stm32f4xx_hal_pcd.c ****           {
 1143              		.loc 1 451 0
 1144 0234 19F0400F 		tst	r9, #64
 1145 0238 04D0     		beq	.L71
 453:Drivers/STM32F4xx_HAL_Driver/Src/stm32f4xx_hal_pcd.c ****           }
 1146              		.loc 1 453 0
 1147 023a 05EB4713 		add	r3, r5, r7, lsl #5
 1148 023e 4022     		movs	r2, #64
 1149 0240 C3F80829 		str	r2, [r3, #2312]
 1150              	.L71:
 455:Drivers/STM32F4xx_HAL_Driver/Src/stm32f4xx_hal_pcd.c ****           {
 1151              		.loc 1 455 0
 1152 0244 19F0020F 		tst	r9, #2
 1153 0248 04D0     		beq	.L72
 457:Drivers/STM32F4xx_HAL_Driver/Src/stm32f4xx_hal_pcd.c ****           }       
 1154              		.loc 1 457 0
 1155 024a 05EB4713 		add	r3, r5, r7, lsl #5
 1156 024e 0222     		movs	r2, #2
 1157 0250 C3F80829 		str	r2, [r3, #2312]
 1158              	.L72:
 459:Drivers/STM32F4xx_HAL_Driver/Src/stm32f4xx_hal_pcd.c ****           {
 1159              		.loc 1 459 0
 1160 0254 19F0800F 		tst	r9, #128
 1161 0258 3AD1     		bne	.L120
 1162              	.LVL111:
 1163              	.L66:
 464:Drivers/STM32F4xx_HAL_Driver/Src/stm32f4xx_hal_pcd.c ****         ep_intr >>= 1U;
 1164              		.loc 1 464 0
 1165 025a 0137     		adds	r7, r7, #1
 1166              	.LVL112:
 465:Drivers/STM32F4xx_HAL_Driver/Src/stm32f4xx_hal_pcd.c ****       }
 1167              		.loc 1 465 0
 1168 025c 4FEA5808 		lsr	r8, r8, #1
 1169              	.LVL113:
 1170              	.L65:
 413:Drivers/STM32F4xx_HAL_Driver/Src/stm32f4xx_hal_pcd.c ****       {
 1171              		.loc 1 413 0
 1172 0260 B8F1000F 		cmp	r8, #0
 1173 0264 3FF4F5AE 		beq	.L64
 415:Drivers/STM32F4xx_HAL_Driver/Src/stm32f4xx_hal_pcd.c ****         {
 1174              		.loc 1 415 0
 1175 0268 18F0010F 		tst	r8, #1
 1176 026c F5D0     		beq	.L66
 417:Drivers/STM32F4xx_HAL_Driver/Src/stm32f4xx_hal_pcd.c **** 
 1177              		.loc 1 417 0
 1178 026e 5FFA87FA 		uxtb	r10, r7
 1179 0272 5146     		mov	r1, r10
 1180 0274 2068     		ldr	r0, [r4]
 1181 0276 FFF7FEFF 		bl	USB_ReadDevInEPInterrupt
ARM GAS  x:\temp2\ccqe4sF7.s 			page 47


 1182              	.LVL114:
 1183 027a 8146     		mov	r9, r0
 1184              	.LVL115:
 419:Drivers/STM32F4xx_HAL_Driver/Src/stm32f4xx_hal_pcd.c ****           {
 1185              		.loc 1 419 0
 1186 027c 10F0010F 		tst	r0, #1
 1187 0280 C8D0     		beq	.L67
 421:Drivers/STM32F4xx_HAL_Driver/Src/stm32f4xx_hal_pcd.c ****             USBx_DEVICE->DIEPEMPMSK &= ~fifoemptymsk;
 1188              		.loc 1 421 0
 1189 0282 0122     		movs	r2, #1
 1190 0284 02FA07F0 		lsl	r0, r2, r7
 1191              	.LVL116:
 422:Drivers/STM32F4xx_HAL_Driver/Src/stm32f4xx_hal_pcd.c ****             
 1192              		.loc 1 422 0
 1193 0288 D5F83438 		ldr	r3, [r5, #2100]
 1194 028c 23EA0003 		bic	r3, r3, r0
 1195 0290 C5F83438 		str	r3, [r5, #2100]
 424:Drivers/STM32F4xx_HAL_Driver/Src/stm32f4xx_hal_pcd.c ****             
 1196              		.loc 1 424 0
 1197 0294 05EB4713 		add	r3, r5, r7, lsl #5
 1198 0298 C3F80829 		str	r2, [r3, #2312]
 426:Drivers/STM32F4xx_HAL_Driver/Src/stm32f4xx_hal_pcd.c ****             {
 1199              		.loc 1 426 0
 1200 029c 2369     		ldr	r3, [r4, #16]
 1201 029e 9342     		cmp	r3, r2
 1202 02a0 AFD0     		beq	.L121
 1203              	.L68:
 431:Drivers/STM32F4xx_HAL_Driver/Src/stm32f4xx_hal_pcd.c **** 
 1204              		.loc 1 431 0
 1205 02a2 5146     		mov	r1, r10
 1206 02a4 2046     		mov	r0, r4
 1207              	.LVL117:
 1208 02a6 FFF7FEFF 		bl	HAL_PCD_DataInStageCallback
 1209              	.LVL118:
 433:Drivers/STM32F4xx_HAL_Driver/Src/stm32f4xx_hal_pcd.c ****             {
 1210              		.loc 1 433 0
 1211 02aa 2369     		ldr	r3, [r4, #16]
 1212 02ac 012B     		cmp	r3, #1
 1213 02ae B1D1     		bne	.L67
 436:Drivers/STM32F4xx_HAL_Driver/Src/stm32f4xx_hal_pcd.c ****               {
 1214              		.loc 1 436 0
 1215 02b0 002F     		cmp	r7, #0
 1216 02b2 AFD1     		bne	.L67
 436:Drivers/STM32F4xx_HAL_Driver/Src/stm32f4xx_hal_pcd.c ****               {
 1217              		.loc 1 436 0 is_stmt 0 discriminator 1
 1218 02b4 C7EBC702 		rsb	r2, r7, r7, lsl #3
 1219 02b8 9300     		lsls	r3, r2, #2
 1220 02ba 2344     		add	r3, r3, r4
 1221 02bc DB6C     		ldr	r3, [r3, #76]
 1222 02be 002B     		cmp	r3, #0
 1223 02c0 A8D1     		bne	.L67
 439:Drivers/STM32F4xx_HAL_Driver/Src/stm32f4xx_hal_pcd.c ****               }
 1224              		.loc 1 439 0 is_stmt 1
 1225 02c2 04F56F72 		add	r2, r4, #956
 1226 02c6 0121     		movs	r1, #1
 1227              	.LVL119:
 1228 02c8 2068     		ldr	r0, [r4]
ARM GAS  x:\temp2\ccqe4sF7.s 			page 48


 1229 02ca FFF7FEFF 		bl	USB_EP0_OutStart
 1230              	.LVL120:
 1231 02ce A1E7     		b	.L67
 1232              	.LVL121:
 1233              	.L120:
 461:Drivers/STM32F4xx_HAL_Driver/Src/stm32f4xx_hal_pcd.c ****           }
 1234              		.loc 1 461 0
 1235 02d0 3946     		mov	r1, r7
 1236 02d2 2046     		mov	r0, r4
 1237 02d4 FFF7FEFF 		bl	PCD_WriteEmptyTxFifo
 1238              	.LVL122:
 1239 02d8 BFE7     		b	.L66
 1240              	.LVL123:
 1241              	.L107:
 473:Drivers/STM32F4xx_HAL_Driver/Src/stm32f4xx_hal_pcd.c **** 
 1242              		.loc 1 473 0
 1243 02da D5F80438 		ldr	r3, [r5, #2052]
 1244 02de 23F00103 		bic	r3, r3, #1
 1245 02e2 C5F80438 		str	r3, [r5, #2052]
 484:Drivers/STM32F4xx_HAL_Driver/Src/stm32f4xx_hal_pcd.c ****       }
 1246              		.loc 1 484 0
 1247 02e6 2046     		mov	r0, r4
 1248 02e8 FFF7FEFF 		bl	HAL_PCD_ResumeCallback
 1249              	.LVL124:
 487:Drivers/STM32F4xx_HAL_Driver/Src/stm32f4xx_hal_pcd.c ****     }
 1250              		.loc 1 487 0
 1251 02ec 2268     		ldr	r2, [r4]
 1252 02ee 5369     		ldr	r3, [r2, #20]
 1253 02f0 03F00043 		and	r3, r3, #-2147483648
 1254 02f4 5361     		str	r3, [r2, #20]
 1255 02f6 B2E6     		b	.L74
 1256              	.L108:
 496:Drivers/STM32F4xx_HAL_Driver/Src/stm32f4xx_hal_pcd.c ****       }
 1257              		.loc 1 496 0
 1258 02f8 2046     		mov	r0, r4
 1259 02fa FFF7FEFF 		bl	HAL_PCD_SuspendCallback
 1260              	.LVL125:
 1261 02fe BAE6     		b	.L76
 1262              	.L109:
 522:Drivers/STM32F4xx_HAL_Driver/Src/stm32f4xx_hal_pcd.c ****       USB_FlushTxFifo(hpcd->Instance , 0x10U);
 1263              		.loc 1 522 0
 1264 0300 A946     		mov	r9, r5
 1265 0302 05F50068 		add	r8, r5, #2048
 1266 0306 D8F80430 		ldr	r3, [r8, #4]
 1267 030a 23F00103 		bic	r3, r3, #1
 1268 030e C8F80430 		str	r3, [r8, #4]
 523:Drivers/STM32F4xx_HAL_Driver/Src/stm32f4xx_hal_pcd.c ****       
 1269              		.loc 1 523 0
 1270 0312 1021     		movs	r1, #16
 1271 0314 2068     		ldr	r0, [r4]
 1272 0316 FFF7FEFF 		bl	USB_FlushTxFifo
 1273              	.LVL126:
 525:Drivers/STM32F4xx_HAL_Driver/Src/stm32f4xx_hal_pcd.c ****       {
 1274              		.loc 1 525 0
 1275 031a 07E0     		b	.L78
 1276              	.LVL127:
 1277              	.L79:
ARM GAS  x:\temp2\ccqe4sF7.s 			page 49


 527:Drivers/STM32F4xx_HAL_Driver/Src/stm32f4xx_hal_pcd.c ****         USBx_OUTEP(i)->DOEPINT = 0xFFU;
 1278              		.loc 1 527 0 discriminator 3
 1279 031c 09EB4613 		add	r3, r9, r6, lsl #5
 1280 0320 FF22     		movs	r2, #255
 1281 0322 C3F80829 		str	r2, [r3, #2312]
 528:Drivers/STM32F4xx_HAL_Driver/Src/stm32f4xx_hal_pcd.c ****       }
 1282              		.loc 1 528 0 discriminator 3
 1283 0326 C3F8082B 		str	r2, [r3, #2824]
 525:Drivers/STM32F4xx_HAL_Driver/Src/stm32f4xx_hal_pcd.c ****       {
 1284              		.loc 1 525 0 discriminator 3
 1285 032a 0136     		adds	r6, r6, #1
 1286              	.LVL128:
 1287              	.L78:
 525:Drivers/STM32F4xx_HAL_Driver/Src/stm32f4xx_hal_pcd.c ****       {
 1288              		.loc 1 525 0 is_stmt 0 discriminator 1
 1289 032c 6368     		ldr	r3, [r4, #4]
 1290 032e B342     		cmp	r3, r6
 1291 0330 F4D8     		bhi	.L79
 530:Drivers/STM32F4xx_HAL_Driver/Src/stm32f4xx_hal_pcd.c ****       USBx_DEVICE->DAINTMSK |= 0x10001U;
 1292              		.loc 1 530 0 is_stmt 1
 1293 0332 4FF0FF33 		mov	r3, #-1
 1294 0336 C8F81830 		str	r3, [r8, #24]
 531:Drivers/STM32F4xx_HAL_Driver/Src/stm32f4xx_hal_pcd.c ****       
 1295              		.loc 1 531 0
 1296 033a D8F81C30 		ldr	r3, [r8, #28]
 1297 033e 43F00113 		orr	r3, r3, #65537
 1298 0342 C8F81C30 		str	r3, [r8, #28]
 533:Drivers/STM32F4xx_HAL_Driver/Src/stm32f4xx_hal_pcd.c ****       {
 1299              		.loc 1 533 0
 1300 0346 236B     		ldr	r3, [r4, #48]
 1301 0348 EBB1     		cbz	r3, .L80
 535:Drivers/STM32F4xx_HAL_Driver/Src/stm32f4xx_hal_pcd.c ****         USBx_DEVICE->DINEP1MSK |= (USB_OTG_DIEPMSK_TOM | USB_OTG_DIEPMSK_XFRCM | USB_OTG_DIEPMSK_EP
 1302              		.loc 1 535 0
 1303 034a D8F88430 		ldr	r3, [r8, #132]
 1304 034e 43F00B03 		orr	r3, r3, #11
 1305 0352 C8F88430 		str	r3, [r8, #132]
 536:Drivers/STM32F4xx_HAL_Driver/Src/stm32f4xx_hal_pcd.c ****       }
 1306              		.loc 1 536 0
 1307 0356 D8F84430 		ldr	r3, [r8, #68]
 1308 035a 43F00B03 		orr	r3, r3, #11
 1309 035e C8F84430 		str	r3, [r8, #68]
 1310              	.L81:
 549:Drivers/STM32F4xx_HAL_Driver/Src/stm32f4xx_hal_pcd.c ****       
 1311              		.loc 1 549 0
 1312 0362 D5F80038 		ldr	r3, [r5, #2048]
 1313 0366 23F4FE63 		bic	r3, r3, #2032
 1314 036a C5F80038 		str	r3, [r5, #2048]
 552:Drivers/STM32F4xx_HAL_Driver/Src/stm32f4xx_hal_pcd.c ****         
 1315              		.loc 1 552 0
 1316 036e 04F56F72 		add	r2, r4, #956
 1317 0372 217C     		ldrb	r1, [r4, #16]	@ zero_extendqisi2
 1318 0374 2068     		ldr	r0, [r4]
 1319 0376 FFF7FEFF 		bl	USB_EP0_OutStart
 1320              	.LVL129:
 554:Drivers/STM32F4xx_HAL_Driver/Src/stm32f4xx_hal_pcd.c ****     }
 1321              		.loc 1 554 0
 1322 037a 2268     		ldr	r2, [r4]
ARM GAS  x:\temp2\ccqe4sF7.s 			page 50


 1323 037c 5369     		ldr	r3, [r2, #20]
 1324 037e 03F48053 		and	r3, r3, #4096
 1325 0382 5361     		str	r3, [r2, #20]
 1326 0384 83E6     		b	.L77
 1327              	.L80:
 543:Drivers/STM32F4xx_HAL_Driver/Src/stm32f4xx_hal_pcd.c **** #endif /* USB_OTG_DOEPINT_OTEPSPR */
 1328              		.loc 1 543 0
 1329 0386 D8F81430 		ldr	r3, [r8, #20]
 1330 038a 43F00B03 		orr	r3, r3, #11
 1331 038e C8F81430 		str	r3, [r8, #20]
 545:Drivers/STM32F4xx_HAL_Driver/Src/stm32f4xx_hal_pcd.c ****       }
 1332              		.loc 1 545 0
 1333 0392 D8F81030 		ldr	r3, [r8, #16]
 1334 0396 43F00B03 		orr	r3, r3, #11
 1335 039a C8F81030 		str	r3, [r8, #16]
 1336 039e E0E7     		b	.L81
 1337              	.LVL130:
 1338              	.L110:
 560:Drivers/STM32F4xx_HAL_Driver/Src/stm32f4xx_hal_pcd.c ****       hpcd->Instance->GUSBCFG &= ~USB_OTG_GUSBCFG_TRDT;
 1339              		.loc 1 560 0
 1340 03a0 2068     		ldr	r0, [r4]
 1341 03a2 FFF7FEFF 		bl	USB_ActivateSetup
 1342              	.LVL131:
 561:Drivers/STM32F4xx_HAL_Driver/Src/stm32f4xx_hal_pcd.c ****       
 1343              		.loc 1 561 0
 1344 03a6 2268     		ldr	r2, [r4]
 1345 03a8 D368     		ldr	r3, [r2, #12]
 1346 03aa 23F47053 		bic	r3, r3, #15360
 1347 03ae D360     		str	r3, [r2, #12]
 563:Drivers/STM32F4xx_HAL_Driver/Src/stm32f4xx_hal_pcd.c ****       {
 1348              		.loc 1 563 0
 1349 03b0 2068     		ldr	r0, [r4]
 1350 03b2 FFF7FEFF 		bl	USB_GetDevSpeed
 1351              	.LVL132:
 1352 03b6 90B9     		cbnz	r0, .L83
 565:Drivers/STM32F4xx_HAL_Driver/Src/stm32f4xx_hal_pcd.c ****         hpcd->Init.ep0_mps          = USB_OTG_HS_MAX_PACKET_SIZE ;    
 1353              		.loc 1 565 0
 1354 03b8 0023     		movs	r3, #0
 1355 03ba E360     		str	r3, [r4, #12]
 566:Drivers/STM32F4xx_HAL_Driver/Src/stm32f4xx_hal_pcd.c ****         hpcd->Instance->GUSBCFG |= (uint32_t)((USBD_HS_TRDT_VALUE << 10U) & USB_OTG_GUSBCFG_TRDT);
 1356              		.loc 1 566 0
 1357 03bc 4FF40073 		mov	r3, #512
 1358 03c0 6361     		str	r3, [r4, #20]
 567:Drivers/STM32F4xx_HAL_Driver/Src/stm32f4xx_hal_pcd.c ****       }
 1359              		.loc 1 567 0
 1360 03c2 2268     		ldr	r2, [r4]
 1361 03c4 D368     		ldr	r3, [r2, #12]
 1362 03c6 43F41053 		orr	r3, r3, #9216
 1363 03ca D360     		str	r3, [r2, #12]
 1364              	.LVL133:
 1365              	.L84:
 643:Drivers/STM32F4xx_HAL_Driver/Src/stm32f4xx_hal_pcd.c ****       
 1366              		.loc 1 643 0
 1367 03cc 2046     		mov	r0, r4
 1368 03ce FFF7FEFF 		bl	HAL_PCD_ResetCallback
 1369              	.LVL134:
 645:Drivers/STM32F4xx_HAL_Driver/Src/stm32f4xx_hal_pcd.c ****     }
ARM GAS  x:\temp2\ccqe4sF7.s 			page 51


 1370              		.loc 1 645 0
 1371 03d2 2268     		ldr	r2, [r4]
 1372 03d4 5369     		ldr	r3, [r2, #20]
 1373 03d6 03F40053 		and	r3, r3, #8192
 1374 03da 5361     		str	r3, [r2, #20]
 1375 03dc 5EE6     		b	.L82
 1376              	.LVL135:
 1377              	.L83:
 571:Drivers/STM32F4xx_HAL_Driver/Src/stm32f4xx_hal_pcd.c ****         hpcd->Init.ep0_mps          = USB_OTG_FS_MAX_PACKET_SIZE ;  
 1378              		.loc 1 571 0
 1379 03de 0323     		movs	r3, #3
 1380 03e0 E360     		str	r3, [r4, #12]
 572:Drivers/STM32F4xx_HAL_Driver/Src/stm32f4xx_hal_pcd.c ****         
 1381              		.loc 1 572 0
 1382 03e2 4023     		movs	r3, #64
 1383 03e4 6361     		str	r3, [r4, #20]
 580:Drivers/STM32F4xx_HAL_Driver/Src/stm32f4xx_hal_pcd.c ****         
 1384              		.loc 1 580 0
 1385 03e6 FFF7FEFF 		bl	HAL_RCC_GetHCLKFreq
 1386              	.LVL136:
 582:Drivers/STM32F4xx_HAL_Driver/Src/stm32f4xx_hal_pcd.c ****         {
 1387              		.loc 1 582 0
 1388 03ea 674B     		ldr	r3, .L122
 1389 03ec 0344     		add	r3, r3, r0
 1390 03ee 674A     		ldr	r2, .L122+4
 1391 03f0 9342     		cmp	r3, r2
 1392 03f2 05D8     		bhi	.L85
 585:Drivers/STM32F4xx_HAL_Driver/Src/stm32f4xx_hal_pcd.c ****         }
 1393              		.loc 1 585 0
 1394 03f4 2268     		ldr	r2, [r4]
 1395 03f6 D368     		ldr	r3, [r2, #12]
 1396 03f8 43F47053 		orr	r3, r3, #15360
 1397 03fc D360     		str	r3, [r2, #12]
 1398 03fe E5E7     		b	.L84
 1399              	.L85:
 588:Drivers/STM32F4xx_HAL_Driver/Src/stm32f4xx_hal_pcd.c ****         {
 1400              		.loc 1 588 0
 1401 0400 634B     		ldr	r3, .L122+8
 1402 0402 0344     		add	r3, r3, r0
 1403 0404 634A     		ldr	r2, .L122+12
 1404 0406 9342     		cmp	r3, r2
 1405 0408 05D8     		bhi	.L86
 591:Drivers/STM32F4xx_HAL_Driver/Src/stm32f4xx_hal_pcd.c ****         }
 1406              		.loc 1 591 0
 1407 040a 2268     		ldr	r2, [r4]
 1408 040c D368     		ldr	r3, [r2, #12]
 1409 040e 43F46053 		orr	r3, r3, #14336
 1410 0412 D360     		str	r3, [r2, #12]
 1411 0414 DAE7     		b	.L84
 1412              	.L86:
 594:Drivers/STM32F4xx_HAL_Driver/Src/stm32f4xx_hal_pcd.c ****         {
 1413              		.loc 1 594 0
 1414 0416 A0F57403 		sub	r3, r0, #15990784
 1415 041a A3F51053 		sub	r3, r3, #9216
 1416 041e 5E4A     		ldr	r2, .L122+16
 1417 0420 9342     		cmp	r3, r2
 1418 0422 05D8     		bhi	.L87
ARM GAS  x:\temp2\ccqe4sF7.s 			page 52


 597:Drivers/STM32F4xx_HAL_Driver/Src/stm32f4xx_hal_pcd.c ****         }
 1419              		.loc 1 597 0
 1420 0424 2268     		ldr	r2, [r4]
 1421 0426 D368     		ldr	r3, [r2, #12]
 1422 0428 43F45053 		orr	r3, r3, #13312
 1423 042c D360     		str	r3, [r2, #12]
 1424 042e CDE7     		b	.L84
 1425              	.L87:
 600:Drivers/STM32F4xx_HAL_Driver/Src/stm32f4xx_hal_pcd.c ****         {
 1426              		.loc 1 600 0
 1427 0430 A0F18373 		sub	r3, r0, #17170432
 1428 0434 A3F5E743 		sub	r3, r3, #29568
 1429 0438 584A     		ldr	r2, .L122+20
 1430 043a 9342     		cmp	r3, r2
 1431 043c 05D8     		bhi	.L88
 603:Drivers/STM32F4xx_HAL_Driver/Src/stm32f4xx_hal_pcd.c ****         }
 1432              		.loc 1 603 0
 1433 043e 2268     		ldr	r2, [r4]
 1434 0440 D368     		ldr	r3, [r2, #12]
 1435 0442 43F44053 		orr	r3, r3, #12288
 1436 0446 D360     		str	r3, [r2, #12]
 1437 0448 C0E7     		b	.L84
 1438              	.L88:
 606:Drivers/STM32F4xx_HAL_Driver/Src/stm32f4xx_hal_pcd.c ****         {
 1439              		.loc 1 606 0
 1440 044a 554B     		ldr	r3, .L122+24
 1441 044c 0344     		add	r3, r3, r0
 1442 044e 554A     		ldr	r2, .L122+28
 1443 0450 9342     		cmp	r3, r2
 1444 0452 05D8     		bhi	.L89
 609:Drivers/STM32F4xx_HAL_Driver/Src/stm32f4xx_hal_pcd.c ****         }
 1445              		.loc 1 609 0
 1446 0454 2268     		ldr	r2, [r4]
 1447 0456 D368     		ldr	r3, [r2, #12]
 1448 0458 43F43053 		orr	r3, r3, #11264
 1449 045c D360     		str	r3, [r2, #12]
 1450 045e B5E7     		b	.L84
 1451              	.L89:
 612:Drivers/STM32F4xx_HAL_Driver/Src/stm32f4xx_hal_pcd.c ****         {
 1452              		.loc 1 612 0
 1453 0460 514B     		ldr	r3, .L122+32
 1454 0462 0344     		add	r3, r3, r0
 1455 0464 514A     		ldr	r2, .L122+36
 1456 0466 9342     		cmp	r3, r2
 1457 0468 05D8     		bhi	.L90
 615:Drivers/STM32F4xx_HAL_Driver/Src/stm32f4xx_hal_pcd.c ****         }
 1458              		.loc 1 615 0
 1459 046a 2268     		ldr	r2, [r4]
 1460 046c D368     		ldr	r3, [r2, #12]
 1461 046e 43F42053 		orr	r3, r3, #10240
 1462 0472 D360     		str	r3, [r2, #12]
 1463 0474 AAE7     		b	.L84
 1464              	.L90:
 618:Drivers/STM32F4xx_HAL_Driver/Src/stm32f4xx_hal_pcd.c ****         {
 1465              		.loc 1 618 0
 1466 0476 4E4B     		ldr	r3, .L122+40
 1467 0478 0344     		add	r3, r3, r0
ARM GAS  x:\temp2\ccqe4sF7.s 			page 53


 1468 047a 4E4A     		ldr	r2, .L122+44
 1469 047c 9342     		cmp	r3, r2
 1470 047e 05D8     		bhi	.L91
 621:Drivers/STM32F4xx_HAL_Driver/Src/stm32f4xx_hal_pcd.c ****         }
 1471              		.loc 1 621 0
 1472 0480 2268     		ldr	r2, [r4]
 1473 0482 D368     		ldr	r3, [r2, #12]
 1474 0484 43F41053 		orr	r3, r3, #9216
 1475 0488 D360     		str	r3, [r2, #12]
 1476 048a 9FE7     		b	.L84
 1477              	.L91:
 624:Drivers/STM32F4xx_HAL_Driver/Src/stm32f4xx_hal_pcd.c ****         {
 1478              		.loc 1 624 0
 1479 048c A0F1B773 		sub	r3, r0, #23986176
 1480 0490 A3F55853 		sub	r3, r3, #13824
 1481 0494 484A     		ldr	r2, .L122+48
 1482 0496 9342     		cmp	r3, r2
 1483 0498 05D8     		bhi	.L92
 627:Drivers/STM32F4xx_HAL_Driver/Src/stm32f4xx_hal_pcd.c ****         }
 1484              		.loc 1 627 0
 1485 049a 2268     		ldr	r2, [r4]
 1486 049c D368     		ldr	r3, [r2, #12]
 1487 049e 43F40053 		orr	r3, r3, #8192
 1488 04a2 D360     		str	r3, [r2, #12]
 1489 04a4 92E7     		b	.L84
 1490              	.L92:
 630:Drivers/STM32F4xx_HAL_Driver/Src/stm32f4xx_hal_pcd.c ****         {
 1491              		.loc 1 630 0
 1492 04a6 454B     		ldr	r3, .L122+52
 1493 04a8 0344     		add	r3, r3, r0
 1494 04aa 454A     		ldr	r2, .L122+56
 1495 04ac 9342     		cmp	r3, r2
 1496 04ae 05D8     		bhi	.L93
 633:Drivers/STM32F4xx_HAL_Driver/Src/stm32f4xx_hal_pcd.c ****         }
 1497              		.loc 1 633 0
 1498 04b0 2268     		ldr	r2, [r4]
 1499 04b2 D368     		ldr	r3, [r2, #12]
 1500 04b4 43F4E053 		orr	r3, r3, #7168
 1501 04b8 D360     		str	r3, [r2, #12]
 1502 04ba 87E7     		b	.L84
 1503              	.L93:
 639:Drivers/STM32F4xx_HAL_Driver/Src/stm32f4xx_hal_pcd.c ****         }  
 1504              		.loc 1 639 0
 1505 04bc 2268     		ldr	r2, [r4]
 1506 04be D368     		ldr	r3, [r2, #12]
 1507 04c0 43F4C053 		orr	r3, r3, #6144
 1508 04c4 D360     		str	r3, [r2, #12]
 1509 04c6 81E7     		b	.L84
 1510              	.LVL137:
 1511              	.L111:
 659:Drivers/STM32F4xx_HAL_Driver/Src/stm32f4xx_hal_pcd.c ****         {
 1512              		.loc 1 659 0
 1513 04c8 47F6F073 		movw	r3, #32752
 1514 04cc 1E42     		tst	r6, r3
 1515 04ce 3FF4FBAD 		beq	.L96
 661:Drivers/STM32F4xx_HAL_Driver/Src/stm32f4xx_hal_pcd.c ****           ep->xfer_buff += (temp & USB_OTG_GRXSTSP_BCNT) >> 4U;
 1516              		.loc 1 661 0
ARM GAS  x:\temp2\ccqe4sF7.s 			page 54


 1517 04d2 3609     		lsrs	r6, r6, #4
 1518              	.LVL138:
 1519 04d4 4FEAC80A 		lsl	r10, r8, #3
 1520 04d8 AAEB0803 		sub	r3, r10, r8
 1521 04dc 4FEA8309 		lsl	r9, r3, #2
 1522 04e0 A144     		add	r9, r9, r4
 1523 04e2 C6F30A02 		ubfx	r2, r6, #0, #11
 1524 04e6 D9F80412 		ldr	r1, [r9, #516]
 1525 04ea 2846     		mov	r0, r5
 1526 04ec FFF7FEFF 		bl	USB_ReadPacket
 1527              	.LVL139:
 662:Drivers/STM32F4xx_HAL_Driver/Src/stm32f4xx_hal_pcd.c ****           ep->xfer_count += (temp & USB_OTG_GRXSTSP_BCNT) >> 4U;
 1528              		.loc 1 662 0
 1529 04f0 C6F30A06 		ubfx	r6, r6, #0, #11
 1530 04f4 D9F80432 		ldr	r3, [r9, #516]
 1531 04f8 3344     		add	r3, r3, r6
 1532 04fa C9F80432 		str	r3, [r9, #516]
 663:Drivers/STM32F4xx_HAL_Driver/Src/stm32f4xx_hal_pcd.c ****         }
 1533              		.loc 1 663 0
 1534 04fe D9F81032 		ldr	r3, [r9, #528]
 1535 0502 1E44     		add	r6, r6, r3
 1536 0504 C9F81062 		str	r6, [r9, #528]
 1537 0508 DEE5     		b	.L96
 1538              	.LVL140:
 1539              	.L112:
 668:Drivers/STM32F4xx_HAL_Driver/Src/stm32f4xx_hal_pcd.c ****         ep->xfer_count += (temp & USB_OTG_GRXSTSP_BCNT) >> 4U;
 1540              		.loc 1 668 0
 1541 050a 0822     		movs	r2, #8
 1542 050c 04F56F71 		add	r1, r4, #956
 1543 0510 2846     		mov	r0, r5
 1544 0512 FFF7FEFF 		bl	USB_ReadPacket
 1545              	.LVL141:
 669:Drivers/STM32F4xx_HAL_Driver/Src/stm32f4xx_hal_pcd.c ****       }
 1546              		.loc 1 669 0
 1547 0516 C6F30A16 		ubfx	r6, r6, #4, #11
 1548              	.LVL142:
 1549 051a 4FEAC803 		lsl	r3, r8, #3
 1550 051e A3EB0801 		sub	r1, r3, r8
 1551 0522 8A00     		lsls	r2, r1, #2
 1552 0524 2244     		add	r2, r2, r4
 1553 0526 D2F81032 		ldr	r3, [r2, #528]
 1554 052a 1E44     		add	r6, r6, r3
 1555 052c C2F81062 		str	r6, [r2, #528]
 1556 0530 CAE5     		b	.L96
 1557              	.LVL143:
 1558              	.L113:
 677:Drivers/STM32F4xx_HAL_Driver/Src/stm32f4xx_hal_pcd.c ****       __HAL_PCD_CLEAR_FLAG(hpcd, USB_OTG_GINTSTS_SOF);
 1559              		.loc 1 677 0
 1560 0532 2046     		mov	r0, r4
 1561 0534 FFF7FEFF 		bl	HAL_PCD_SOFCallback
 1562              	.LVL144:
 678:Drivers/STM32F4xx_HAL_Driver/Src/stm32f4xx_hal_pcd.c ****     }
 1563              		.loc 1 678 0
 1564 0538 2268     		ldr	r2, [r4]
 1565 053a 5369     		ldr	r3, [r2, #20]
 1566 053c 03F00803 		and	r3, r3, #8
 1567 0540 5361     		str	r3, [r2, #20]
ARM GAS  x:\temp2\ccqe4sF7.s 			page 55


 1568 0542 CDE5     		b	.L97
 1569              	.L114:
 684:Drivers/STM32F4xx_HAL_Driver/Src/stm32f4xx_hal_pcd.c ****       __HAL_PCD_CLEAR_FLAG(hpcd, USB_OTG_GINTSTS_IISOIXFR);
 1570              		.loc 1 684 0
 1571 0544 F9B2     		uxtb	r1, r7
 1572 0546 2046     		mov	r0, r4
 1573 0548 FFF7FEFF 		bl	HAL_PCD_ISOINIncompleteCallback
 1574              	.LVL145:
 685:Drivers/STM32F4xx_HAL_Driver/Src/stm32f4xx_hal_pcd.c ****     } 
 1575              		.loc 1 685 0
 1576 054c 2268     		ldr	r2, [r4]
 1577 054e 5369     		ldr	r3, [r2, #20]
 1578 0550 03F48013 		and	r3, r3, #1048576
 1579 0554 5361     		str	r3, [r2, #20]
 1580 0556 CAE5     		b	.L98
 1581              	.L115:
 691:Drivers/STM32F4xx_HAL_Driver/Src/stm32f4xx_hal_pcd.c ****       __HAL_PCD_CLEAR_FLAG(hpcd, USB_OTG_GINTSTS_PXFR_INCOMPISOOUT);
 1582              		.loc 1 691 0
 1583 0558 F9B2     		uxtb	r1, r7
 1584 055a 2046     		mov	r0, r4
 1585 055c FFF7FEFF 		bl	HAL_PCD_ISOOUTIncompleteCallback
 1586              	.LVL146:
 692:Drivers/STM32F4xx_HAL_Driver/Src/stm32f4xx_hal_pcd.c ****     } 
 1587              		.loc 1 692 0
 1588 0560 2268     		ldr	r2, [r4]
 1589 0562 5369     		ldr	r3, [r2, #20]
 1590 0564 03F40013 		and	r3, r3, #2097152
 1591 0568 5361     		str	r3, [r2, #20]
 1592 056a C7E5     		b	.L99
 1593              	.L116:
 698:Drivers/STM32F4xx_HAL_Driver/Src/stm32f4xx_hal_pcd.c ****       __HAL_PCD_CLEAR_FLAG(hpcd, USB_OTG_GINTSTS_SRQINT);
 1594              		.loc 1 698 0
 1595 056c 2046     		mov	r0, r4
 1596 056e FFF7FEFF 		bl	HAL_PCD_ConnectCallback
 1597              	.LVL147:
 699:Drivers/STM32F4xx_HAL_Driver/Src/stm32f4xx_hal_pcd.c ****     } 
 1598              		.loc 1 699 0
 1599 0572 2268     		ldr	r2, [r4]
 1600 0574 5369     		ldr	r3, [r2, #20]
 1601 0576 03F08043 		and	r3, r3, #1073741824
 1602 057a 5361     		str	r3, [r2, #20]
 1603 057c C5E5     		b	.L100
 1604              	.LVL148:
 1605              	.L117:
 709:Drivers/STM32F4xx_HAL_Driver/Src/stm32f4xx_hal_pcd.c ****       }
 1606              		.loc 1 709 0
 1607 057e 2046     		mov	r0, r4
 1608 0580 FFF7FEFF 		bl	HAL_PCD_DisconnectCallback
 1609              	.LVL149:
 1610 0584 CEE5     		b	.L101
 1611              	.L123:
 1612 0586 00BF     		.align	2
 1613              	.L122:
 1614 0588 405327FF 		.word	-14200000
 1615 058c FF340C00 		.word	799999
 1616 0590 401E1BFF 		.word	-15000000
 1617 0594 3F420F00 		.word	999999
ARM GAS  x:\temp2\ccqe4sF7.s 			page 56


 1618 0598 7F4F1200 		.word	1199999
 1619 059c 1FD61300 		.word	1299999
 1620 05a0 60B6E5FE 		.word	-18500000
 1621 05a4 5FE31600 		.word	1499999
 1622 05a8 00D3CEFE 		.word	-20000000
 1623 05ac 3F771B00 		.word	1799999
 1624 05b0 C05BB3FE 		.word	-21800000
 1625 05b4 BF912100 		.word	2199999
 1626 05b8 1F753800 		.word	3699999
 1627 05bc E05459FE 		.word	-27700000
 1628 05c0 DF9C4100 		.word	4299999
 1629              		.cfi_endproc
 1630              	.LFE132:
 1632              		.section	.text.HAL_PCD_DevConnect,"ax",%progbits
 1633              		.align	1
 1634              		.global	HAL_PCD_DevConnect
 1635              		.syntax unified
 1636              		.thumb
 1637              		.thumb_func
 1638              		.fpu fpv4-sp-d16
 1640              	HAL_PCD_DevConnect:
 1641              	.LFB144:
 902:Drivers/STM32F4xx_HAL_Driver/Src/stm32f4xx_hal_pcd.c ****   __HAL_LOCK(hpcd); 
 1642              		.loc 1 902 0
 1643              		.cfi_startproc
 1644              		@ args = 0, pretend = 0, frame = 0
 1645              		@ frame_needed = 0, uses_anonymous_args = 0
 1646              	.LVL150:
 903:Drivers/STM32F4xx_HAL_Driver/Src/stm32f4xx_hal_pcd.c ****   USB_DevConnect(hpcd->Instance);
 1647              		.loc 1 903 0
 1648 0000 90F8B833 		ldrb	r3, [r0, #952]	@ zero_extendqisi2
 1649 0004 012B     		cmp	r3, #1
 1650 0006 0BD0     		beq	.L126
 902:Drivers/STM32F4xx_HAL_Driver/Src/stm32f4xx_hal_pcd.c ****   __HAL_LOCK(hpcd); 
 1651              		.loc 1 902 0 discriminator 2
 1652 0008 10B5     		push	{r4, lr}
 1653              	.LCFI14:
 1654              		.cfi_def_cfa_offset 8
 1655              		.cfi_offset 4, -8
 1656              		.cfi_offset 14, -4
 1657 000a 0446     		mov	r4, r0
 903:Drivers/STM32F4xx_HAL_Driver/Src/stm32f4xx_hal_pcd.c ****   USB_DevConnect(hpcd->Instance);
 1658              		.loc 1 903 0 discriminator 2
 1659 000c 0123     		movs	r3, #1
 1660 000e 80F8B833 		strb	r3, [r0, #952]
 904:Drivers/STM32F4xx_HAL_Driver/Src/stm32f4xx_hal_pcd.c ****   __HAL_UNLOCK(hpcd); 
 1661              		.loc 1 904 0 discriminator 2
 1662 0012 0068     		ldr	r0, [r0]
 1663              	.LVL151:
 1664 0014 FFF7FEFF 		bl	USB_DevConnect
 1665              	.LVL152:
 905:Drivers/STM32F4xx_HAL_Driver/Src/stm32f4xx_hal_pcd.c ****   return HAL_OK;
 1666              		.loc 1 905 0 discriminator 2
 1667 0018 0020     		movs	r0, #0
 1668 001a 84F8B803 		strb	r0, [r4, #952]
 907:Drivers/STM32F4xx_HAL_Driver/Src/stm32f4xx_hal_pcd.c **** 
 1669              		.loc 1 907 0 discriminator 2
ARM GAS  x:\temp2\ccqe4sF7.s 			page 57


 1670 001e 10BD     		pop	{r4, pc}
 1671              	.LVL153:
 1672              	.L126:
 1673              	.LCFI15:
 1674              		.cfi_def_cfa_offset 0
 1675              		.cfi_restore 4
 1676              		.cfi_restore 14
 903:Drivers/STM32F4xx_HAL_Driver/Src/stm32f4xx_hal_pcd.c ****   USB_DevConnect(hpcd->Instance);
 1677              		.loc 1 903 0
 1678 0020 0220     		movs	r0, #2
 1679              	.LVL154:
 907:Drivers/STM32F4xx_HAL_Driver/Src/stm32f4xx_hal_pcd.c **** 
 1680              		.loc 1 907 0
 1681 0022 7047     		bx	lr
 1682              		.cfi_endproc
 1683              	.LFE144:
 1685              		.section	.text.HAL_PCD_DevDisconnect,"ax",%progbits
 1686              		.align	1
 1687              		.global	HAL_PCD_DevDisconnect
 1688              		.syntax unified
 1689              		.thumb
 1690              		.thumb_func
 1691              		.fpu fpv4-sp-d16
 1693              	HAL_PCD_DevDisconnect:
 1694              	.LFB145:
 915:Drivers/STM32F4xx_HAL_Driver/Src/stm32f4xx_hal_pcd.c ****   __HAL_LOCK(hpcd); 
 1695              		.loc 1 915 0
 1696              		.cfi_startproc
 1697              		@ args = 0, pretend = 0, frame = 0
 1698              		@ frame_needed = 0, uses_anonymous_args = 0
 1699              	.LVL155:
 916:Drivers/STM32F4xx_HAL_Driver/Src/stm32f4xx_hal_pcd.c ****   USB_DevDisconnect(hpcd->Instance);
 1700              		.loc 1 916 0
 1701 0000 90F8B833 		ldrb	r3, [r0, #952]	@ zero_extendqisi2
 1702 0004 012B     		cmp	r3, #1
 1703 0006 0BD0     		beq	.L133
 915:Drivers/STM32F4xx_HAL_Driver/Src/stm32f4xx_hal_pcd.c ****   __HAL_LOCK(hpcd); 
 1704              		.loc 1 915 0 discriminator 2
 1705 0008 10B5     		push	{r4, lr}
 1706              	.LCFI16:
 1707              		.cfi_def_cfa_offset 8
 1708              		.cfi_offset 4, -8
 1709              		.cfi_offset 14, -4
 1710 000a 0446     		mov	r4, r0
 916:Drivers/STM32F4xx_HAL_Driver/Src/stm32f4xx_hal_pcd.c ****   USB_DevDisconnect(hpcd->Instance);
 1711              		.loc 1 916 0 discriminator 2
 1712 000c 0123     		movs	r3, #1
 1713 000e 80F8B833 		strb	r3, [r0, #952]
 917:Drivers/STM32F4xx_HAL_Driver/Src/stm32f4xx_hal_pcd.c ****   __HAL_UNLOCK(hpcd); 
 1714              		.loc 1 917 0 discriminator 2
 1715 0012 0068     		ldr	r0, [r0]
 1716              	.LVL156:
 1717 0014 FFF7FEFF 		bl	USB_DevDisconnect
 1718              	.LVL157:
 918:Drivers/STM32F4xx_HAL_Driver/Src/stm32f4xx_hal_pcd.c ****   return HAL_OK;
 1719              		.loc 1 918 0 discriminator 2
 1720 0018 0020     		movs	r0, #0
ARM GAS  x:\temp2\ccqe4sF7.s 			page 58


 1721 001a 84F8B803 		strb	r0, [r4, #952]
 920:Drivers/STM32F4xx_HAL_Driver/Src/stm32f4xx_hal_pcd.c **** 
 1722              		.loc 1 920 0 discriminator 2
 1723 001e 10BD     		pop	{r4, pc}
 1724              	.LVL158:
 1725              	.L133:
 1726              	.LCFI17:
 1727              		.cfi_def_cfa_offset 0
 1728              		.cfi_restore 4
 1729              		.cfi_restore 14
 916:Drivers/STM32F4xx_HAL_Driver/Src/stm32f4xx_hal_pcd.c ****   USB_DevDisconnect(hpcd->Instance);
 1730              		.loc 1 916 0
 1731 0020 0220     		movs	r0, #2
 1732              	.LVL159:
 920:Drivers/STM32F4xx_HAL_Driver/Src/stm32f4xx_hal_pcd.c **** 
 1733              		.loc 1 920 0
 1734 0022 7047     		bx	lr
 1735              		.cfi_endproc
 1736              	.LFE145:
 1738              		.section	.text.HAL_PCD_SetAddress,"ax",%progbits
 1739              		.align	1
 1740              		.global	HAL_PCD_SetAddress
 1741              		.syntax unified
 1742              		.thumb
 1743              		.thumb_func
 1744              		.fpu fpv4-sp-d16
 1746              	HAL_PCD_SetAddress:
 1747              	.LFB146:
 929:Drivers/STM32F4xx_HAL_Driver/Src/stm32f4xx_hal_pcd.c ****   __HAL_LOCK(hpcd); 
 1748              		.loc 1 929 0
 1749              		.cfi_startproc
 1750              		@ args = 0, pretend = 0, frame = 0
 1751              		@ frame_needed = 0, uses_anonymous_args = 0
 1752              	.LVL160:
 930:Drivers/STM32F4xx_HAL_Driver/Src/stm32f4xx_hal_pcd.c ****   USB_SetDevAddress(hpcd->Instance, address);
 1753              		.loc 1 930 0
 1754 0000 90F8B833 		ldrb	r3, [r0, #952]	@ zero_extendqisi2
 1755 0004 012B     		cmp	r3, #1
 1756 0006 0BD0     		beq	.L140
 929:Drivers/STM32F4xx_HAL_Driver/Src/stm32f4xx_hal_pcd.c ****   __HAL_LOCK(hpcd); 
 1757              		.loc 1 929 0 discriminator 2
 1758 0008 10B5     		push	{r4, lr}
 1759              	.LCFI18:
 1760              		.cfi_def_cfa_offset 8
 1761              		.cfi_offset 4, -8
 1762              		.cfi_offset 14, -4
 1763 000a 0446     		mov	r4, r0
 930:Drivers/STM32F4xx_HAL_Driver/Src/stm32f4xx_hal_pcd.c ****   USB_SetDevAddress(hpcd->Instance, address);
 1764              		.loc 1 930 0 discriminator 2
 1765 000c 0123     		movs	r3, #1
 1766 000e 80F8B833 		strb	r3, [r0, #952]
 931:Drivers/STM32F4xx_HAL_Driver/Src/stm32f4xx_hal_pcd.c ****   __HAL_UNLOCK(hpcd);   
 1767              		.loc 1 931 0 discriminator 2
 1768 0012 0068     		ldr	r0, [r0]
 1769              	.LVL161:
 1770 0014 FFF7FEFF 		bl	USB_SetDevAddress
 1771              	.LVL162:
ARM GAS  x:\temp2\ccqe4sF7.s 			page 59


 932:Drivers/STM32F4xx_HAL_Driver/Src/stm32f4xx_hal_pcd.c ****   return HAL_OK;
 1772              		.loc 1 932 0 discriminator 2
 1773 0018 0020     		movs	r0, #0
 1774 001a 84F8B803 		strb	r0, [r4, #952]
 934:Drivers/STM32F4xx_HAL_Driver/Src/stm32f4xx_hal_pcd.c **** /**
 1775              		.loc 1 934 0 discriminator 2
 1776 001e 10BD     		pop	{r4, pc}
 1777              	.LVL163:
 1778              	.L140:
 1779              	.LCFI19:
 1780              		.cfi_def_cfa_offset 0
 1781              		.cfi_restore 4
 1782              		.cfi_restore 14
 930:Drivers/STM32F4xx_HAL_Driver/Src/stm32f4xx_hal_pcd.c ****   USB_SetDevAddress(hpcd->Instance, address);
 1783              		.loc 1 930 0
 1784 0020 0220     		movs	r0, #2
 1785              	.LVL164:
 934:Drivers/STM32F4xx_HAL_Driver/Src/stm32f4xx_hal_pcd.c **** /**
 1786              		.loc 1 934 0
 1787 0022 7047     		bx	lr
 1788              		.cfi_endproc
 1789              	.LFE146:
 1791              		.section	.text.HAL_PCD_EP_Open,"ax",%progbits
 1792              		.align	1
 1793              		.global	HAL_PCD_EP_Open
 1794              		.syntax unified
 1795              		.thumb
 1796              		.thumb_func
 1797              		.fpu fpv4-sp-d16
 1799              	HAL_PCD_EP_Open:
 1800              	.LFB147:
 944:Drivers/STM32F4xx_HAL_Driver/Src/stm32f4xx_hal_pcd.c ****   HAL_StatusTypeDef  ret = HAL_OK;
 1801              		.loc 1 944 0
 1802              		.cfi_startproc
 1803              		@ args = 0, pretend = 0, frame = 0
 1804              		@ frame_needed = 0, uses_anonymous_args = 0
 1805              	.LVL165:
 1806 0000 70B5     		push	{r4, r5, r6, lr}
 1807              	.LCFI20:
 1808              		.cfi_def_cfa_offset 16
 1809              		.cfi_offset 4, -16
 1810              		.cfi_offset 5, -12
 1811              		.cfi_offset 6, -8
 1812              		.cfi_offset 14, -4
 1813              	.LVL166:
 948:Drivers/STM32F4xx_HAL_Driver/Src/stm32f4xx_hal_pcd.c ****   {
 1814              		.loc 1 948 0
 1815 0002 4DB2     		sxtb	r5, r1
 1816 0004 002D     		cmp	r5, #0
 1817 0006 22DB     		blt	.L153
 954:Drivers/STM32F4xx_HAL_Driver/Src/stm32f4xx_hal_pcd.c ****   }
 1818              		.loc 1 954 0
 1819 0008 01F07F06 		and	r6, r1, #127
 1820 000c C6EBC606 		rsb	r6, r6, r6, lsl #3
 1821 0010 B400     		lsls	r4, r6, #2
 1822 0012 04F5FC74 		add	r4, r4, #504
 1823 0016 0444     		add	r4, r4, r0
ARM GAS  x:\temp2\ccqe4sF7.s 			page 60


 1824              	.LVL167:
 1825              	.L147:
 956:Drivers/STM32F4xx_HAL_Driver/Src/stm32f4xx_hal_pcd.c ****   
 1826              		.loc 1 956 0
 1827 0018 01F07F01 		and	r1, r1, #127
 1828              	.LVL168:
 1829 001c 2170     		strb	r1, [r4]
 958:Drivers/STM32F4xx_HAL_Driver/Src/stm32f4xx_hal_pcd.c ****   ep->maxpacket = ep_mps;
 1830              		.loc 1 958 0
 1831 001e ED0F     		lsrs	r5, r5, #31
 1832              	.LVL169:
 1833 0020 6570     		strb	r5, [r4, #1]
 959:Drivers/STM32F4xx_HAL_Driver/Src/stm32f4xx_hal_pcd.c ****   ep->type = ep_type;
 1834              		.loc 1 959 0
 1835 0022 A260     		str	r2, [r4, #8]
 960:Drivers/STM32F4xx_HAL_Driver/Src/stm32f4xx_hal_pcd.c ****   if (ep->is_in)
 1836              		.loc 1 960 0
 1837 0024 E370     		strb	r3, [r4, #3]
 961:Drivers/STM32F4xx_HAL_Driver/Src/stm32f4xx_hal_pcd.c ****   {
 1838              		.loc 1 961 0
 1839 0026 05B1     		cbz	r5, .L148
 964:Drivers/STM32F4xx_HAL_Driver/Src/stm32f4xx_hal_pcd.c ****   }
 1840              		.loc 1 964 0
 1841 0028 E180     		strh	r1, [r4, #6]	@ movhi
 1842              	.L148:
 967:Drivers/STM32F4xx_HAL_Driver/Src/stm32f4xx_hal_pcd.c ****   {
 1843              		.loc 1 967 0
 1844 002a 022B     		cmp	r3, #2
 1845 002c 17D0     		beq	.L154
 1846              	.LVL170:
 1847              	.L149:
 972:Drivers/STM32F4xx_HAL_Driver/Src/stm32f4xx_hal_pcd.c ****   USB_ActivateEndpoint(hpcd->Instance , ep);
 1848              		.loc 1 972 0
 1849 002e 90F8B833 		ldrb	r3, [r0, #952]	@ zero_extendqisi2
 1850 0032 012B     		cmp	r3, #1
 1851 0034 16D0     		beq	.L151
 1852 0036 0546     		mov	r5, r0
 972:Drivers/STM32F4xx_HAL_Driver/Src/stm32f4xx_hal_pcd.c ****   USB_ActivateEndpoint(hpcd->Instance , ep);
 1853              		.loc 1 972 0 is_stmt 0 discriminator 2
 1854 0038 0123     		movs	r3, #1
 1855 003a 80F8B833 		strb	r3, [r0, #952]
 1856              	.LVL171:
 973:Drivers/STM32F4xx_HAL_Driver/Src/stm32f4xx_hal_pcd.c ****   __HAL_UNLOCK(hpcd);   
 1857              		.loc 1 973 0 is_stmt 1 discriminator 2
 1858 003e 2146     		mov	r1, r4
 1859 0040 0068     		ldr	r0, [r0]
 1860              	.LVL172:
 1861 0042 FFF7FEFF 		bl	USB_ActivateEndpoint
 1862              	.LVL173:
 974:Drivers/STM32F4xx_HAL_Driver/Src/stm32f4xx_hal_pcd.c ****   return ret;
 1863              		.loc 1 974 0 discriminator 2
 1864 0046 0020     		movs	r0, #0
 1865 0048 85F8B803 		strb	r0, [r5, #952]
 1866              	.LVL174:
 1867              	.L150:
 976:Drivers/STM32F4xx_HAL_Driver/Src/stm32f4xx_hal_pcd.c **** 
 1868              		.loc 1 976 0
ARM GAS  x:\temp2\ccqe4sF7.s 			page 61


 1869 004c 70BD     		pop	{r4, r5, r6, pc}
 1870              	.LVL175:
 1871              	.L153:
 950:Drivers/STM32F4xx_HAL_Driver/Src/stm32f4xx_hal_pcd.c ****   }
 1872              		.loc 1 950 0
 1873 004e 01F07F06 		and	r6, r1, #127
 1874 0052 C6EBC606 		rsb	r6, r6, r6, lsl #3
 1875 0056 B400     		lsls	r4, r6, #2
 1876 0058 3834     		adds	r4, r4, #56
 1877 005a 0444     		add	r4, r4, r0
 1878              	.LVL176:
 1879 005c DCE7     		b	.L147
 1880              	.LVL177:
 1881              	.L154:
 969:Drivers/STM32F4xx_HAL_Driver/Src/stm32f4xx_hal_pcd.c ****   }
 1882              		.loc 1 969 0
 1883 005e 0023     		movs	r3, #0
 1884              	.LVL178:
 1885 0060 2371     		strb	r3, [r4, #4]
 1886 0062 E4E7     		b	.L149
 1887              	.L151:
 972:Drivers/STM32F4xx_HAL_Driver/Src/stm32f4xx_hal_pcd.c ****   USB_ActivateEndpoint(hpcd->Instance , ep);
 1888              		.loc 1 972 0
 1889 0064 0220     		movs	r0, #2
 1890              	.LVL179:
 1891 0066 F1E7     		b	.L150
 1892              		.cfi_endproc
 1893              	.LFE147:
 1895              		.section	.text.HAL_PCD_EP_Close,"ax",%progbits
 1896              		.align	1
 1897              		.global	HAL_PCD_EP_Close
 1898              		.syntax unified
 1899              		.thumb
 1900              		.thumb_func
 1901              		.fpu fpv4-sp-d16
 1903              	HAL_PCD_EP_Close:
 1904              	.LFB148:
 986:Drivers/STM32F4xx_HAL_Driver/Src/stm32f4xx_hal_pcd.c ****   USB_OTG_EPTypeDef *ep;
 1905              		.loc 1 986 0
 1906              		.cfi_startproc
 1907              		@ args = 0, pretend = 0, frame = 0
 1908              		@ frame_needed = 0, uses_anonymous_args = 0
 1909              	.LVL180:
 1910 0000 10B5     		push	{r4, lr}
 1911              	.LCFI21:
 1912              		.cfi_def_cfa_offset 8
 1913              		.cfi_offset 4, -8
 1914              		.cfi_offset 14, -4
 989:Drivers/STM32F4xx_HAL_Driver/Src/stm32f4xx_hal_pcd.c ****   {
 1915              		.loc 1 989 0
 1916 0002 4AB2     		sxtb	r2, r1
 1917 0004 002A     		cmp	r2, #0
 1918 0006 1CDB     		blt	.L161
 995:Drivers/STM32F4xx_HAL_Driver/Src/stm32f4xx_hal_pcd.c ****   }
 1919              		.loc 1 995 0
 1920 0008 01F07F04 		and	r4, r1, #127
 1921 000c C4EBC404 		rsb	r4, r4, r4, lsl #3
ARM GAS  x:\temp2\ccqe4sF7.s 			page 62


 1922 0010 A300     		lsls	r3, r4, #2
 1923 0012 03F5FC73 		add	r3, r3, #504
 1924 0016 0344     		add	r3, r3, r0
 1925              	.LVL181:
 1926              	.L157:
 997:Drivers/STM32F4xx_HAL_Driver/Src/stm32f4xx_hal_pcd.c ****   
 1927              		.loc 1 997 0
 1928 0018 01F07F01 		and	r1, r1, #127
 1929              	.LVL182:
 1930 001c 1970     		strb	r1, [r3]
 999:Drivers/STM32F4xx_HAL_Driver/Src/stm32f4xx_hal_pcd.c ****   
 1931              		.loc 1 999 0
 1932 001e D20F     		lsrs	r2, r2, #31
 1933              	.LVL183:
 1934 0020 5A70     		strb	r2, [r3, #1]
1001:Drivers/STM32F4xx_HAL_Driver/Src/stm32f4xx_hal_pcd.c ****   USB_DeactivateEndpoint(hpcd->Instance , ep);
 1935              		.loc 1 1001 0
 1936 0022 90F8B823 		ldrb	r2, [r0, #952]	@ zero_extendqisi2
 1937 0026 012A     		cmp	r2, #1
 1938 0028 13D0     		beq	.L159
 1939 002a 0446     		mov	r4, r0
1001:Drivers/STM32F4xx_HAL_Driver/Src/stm32f4xx_hal_pcd.c ****   USB_DeactivateEndpoint(hpcd->Instance , ep);
 1940              		.loc 1 1001 0 is_stmt 0 discriminator 2
 1941 002c 0122     		movs	r2, #1
 1942 002e 80F8B823 		strb	r2, [r0, #952]
1002:Drivers/STM32F4xx_HAL_Driver/Src/stm32f4xx_hal_pcd.c ****   __HAL_UNLOCK(hpcd);   
 1943              		.loc 1 1002 0 is_stmt 1 discriminator 2
 1944 0032 1946     		mov	r1, r3
 1945 0034 0068     		ldr	r0, [r0]
 1946              	.LVL184:
 1947 0036 FFF7FEFF 		bl	USB_DeactivateEndpoint
 1948              	.LVL185:
1003:Drivers/STM32F4xx_HAL_Driver/Src/stm32f4xx_hal_pcd.c ****   return HAL_OK;
 1949              		.loc 1 1003 0 discriminator 2
 1950 003a 0020     		movs	r0, #0
 1951 003c 84F8B803 		strb	r0, [r4, #952]
 1952              	.LVL186:
 1953              	.L158:
1005:Drivers/STM32F4xx_HAL_Driver/Src/stm32f4xx_hal_pcd.c **** 
 1954              		.loc 1 1005 0
 1955 0040 10BD     		pop	{r4, pc}
 1956              	.LVL187:
 1957              	.L161:
 991:Drivers/STM32F4xx_HAL_Driver/Src/stm32f4xx_hal_pcd.c ****   }
 1958              		.loc 1 991 0
 1959 0042 01F07F04 		and	r4, r1, #127
 1960 0046 C4EBC404 		rsb	r4, r4, r4, lsl #3
 1961 004a A300     		lsls	r3, r4, #2
 1962 004c 3833     		adds	r3, r3, #56
 1963 004e 0344     		add	r3, r3, r0
 1964              	.LVL188:
 1965 0050 E2E7     		b	.L157
 1966              	.LVL189:
 1967              	.L159:
1001:Drivers/STM32F4xx_HAL_Driver/Src/stm32f4xx_hal_pcd.c ****   USB_DeactivateEndpoint(hpcd->Instance , ep);
 1968              		.loc 1 1001 0
 1969 0052 0220     		movs	r0, #2
ARM GAS  x:\temp2\ccqe4sF7.s 			page 63


 1970              	.LVL190:
 1971 0054 F4E7     		b	.L158
 1972              		.cfi_endproc
 1973              	.LFE148:
 1975              		.section	.text.HAL_PCD_EP_Receive,"ax",%progbits
 1976              		.align	1
 1977              		.global	HAL_PCD_EP_Receive
 1978              		.syntax unified
 1979              		.thumb
 1980              		.thumb_func
 1981              		.fpu fpv4-sp-d16
 1983              	HAL_PCD_EP_Receive:
 1984              	.LFB149:
1017:Drivers/STM32F4xx_HAL_Driver/Src/stm32f4xx_hal_pcd.c ****   USB_OTG_EPTypeDef *ep;
 1985              		.loc 1 1017 0
 1986              		.cfi_startproc
 1987              		@ args = 0, pretend = 0, frame = 0
 1988              		@ frame_needed = 0, uses_anonymous_args = 0
 1989              	.LVL191:
 1990 0000 70B5     		push	{r4, r5, r6, lr}
 1991              	.LCFI22:
 1992              		.cfi_def_cfa_offset 16
 1993              		.cfi_offset 4, -16
 1994              		.cfi_offset 5, -12
 1995              		.cfi_offset 6, -8
 1996              		.cfi_offset 14, -4
 1997 0002 01F07F06 		and	r6, r1, #127
1020:Drivers/STM32F4xx_HAL_Driver/Src/stm32f4xx_hal_pcd.c ****   
 1998              		.loc 1 1020 0
 1999 0006 F500     		lsls	r5, r6, #3
 2000 0008 A91B     		subs	r1, r5, r6
 2001              	.LVL192:
 2002 000a 8C00     		lsls	r4, r1, #2
 2003 000c 04F5FC74 		add	r4, r4, #504
 2004 0010 0119     		adds	r1, r0, r4
 2005              	.LVL193:
1023:Drivers/STM32F4xx_HAL_Driver/Src/stm32f4xx_hal_pcd.c ****   ep->xfer_len = len;
 2006              		.loc 1 1023 0
 2007 0012 AD1B     		subs	r5, r5, r6
 2008 0014 AC00     		lsls	r4, r5, #2
 2009 0016 0444     		add	r4, r4, r0
 2010 0018 C4F80422 		str	r2, [r4, #516]
1024:Drivers/STM32F4xx_HAL_Driver/Src/stm32f4xx_hal_pcd.c ****   ep->xfer_count = 0U;
 2011              		.loc 1 1024 0
 2012 001c C4F80C32 		str	r3, [r4, #524]
1025:Drivers/STM32F4xx_HAL_Driver/Src/stm32f4xx_hal_pcd.c ****   ep->is_in = 0U;
 2013              		.loc 1 1025 0
 2014 0020 0023     		movs	r3, #0
 2015              	.LVL194:
 2016 0022 C4F81032 		str	r3, [r4, #528]
1026:Drivers/STM32F4xx_HAL_Driver/Src/stm32f4xx_hal_pcd.c ****   ep->num = ep_addr & 0x7F;
 2017              		.loc 1 1026 0
 2018 0026 84F8F931 		strb	r3, [r4, #505]
1027:Drivers/STM32F4xx_HAL_Driver/Src/stm32f4xx_hal_pcd.c ****   
 2019              		.loc 1 1027 0
 2020 002a 84F8F861 		strb	r6, [r4, #504]
1029:Drivers/STM32F4xx_HAL_Driver/Src/stm32f4xx_hal_pcd.c ****   {
ARM GAS  x:\temp2\ccqe4sF7.s 			page 64


 2021              		.loc 1 1029 0
 2022 002e 0369     		ldr	r3, [r0, #16]
 2023 0030 012B     		cmp	r3, #1
 2024 0032 06D0     		beq	.L167
 2025              	.LVL195:
 2026              	.L163:
1034:Drivers/STM32F4xx_HAL_Driver/Src/stm32f4xx_hal_pcd.c ****   {
 2027              		.loc 1 1034 0
 2028 0034 66B1     		cbz	r6, .L168
1040:Drivers/STM32F4xx_HAL_Driver/Src/stm32f4xx_hal_pcd.c ****   }
 2029              		.loc 1 1040 0
 2030 0036 DAB2     		uxtb	r2, r3
 2031              	.LVL196:
 2032 0038 0068     		ldr	r0, [r0]
 2033              	.LVL197:
 2034 003a FFF7FEFF 		bl	USB_EPStartXfer
 2035              	.LVL198:
 2036              	.L165:
1044:Drivers/STM32F4xx_HAL_Driver/Src/stm32f4xx_hal_pcd.c **** 
 2037              		.loc 1 1044 0
 2038 003e 0020     		movs	r0, #0
 2039 0040 70BD     		pop	{r4, r5, r6, pc}
 2040              	.LVL199:
 2041              	.L167:
1031:Drivers/STM32F4xx_HAL_Driver/Src/stm32f4xx_hal_pcd.c ****   }
 2042              		.loc 1 1031 0
 2043 0042 C6EBC605 		rsb	r5, r6, r6, lsl #3
 2044 0046 AC00     		lsls	r4, r5, #2
 2045              	.LVL200:
 2046 0048 0444     		add	r4, r4, r0
 2047 004a C4F80822 		str	r2, [r4, #520]
 2048              	.LVL201:
 2049 004e F1E7     		b	.L163
 2050              	.L168:
1036:Drivers/STM32F4xx_HAL_Driver/Src/stm32f4xx_hal_pcd.c ****   }
 2051              		.loc 1 1036 0
 2052 0050 DAB2     		uxtb	r2, r3
 2053              	.LVL202:
 2054 0052 0068     		ldr	r0, [r0]
 2055              	.LVL203:
 2056 0054 FFF7FEFF 		bl	USB_EP0StartXfer
 2057              	.LVL204:
 2058 0058 F1E7     		b	.L165
 2059              		.cfi_endproc
 2060              	.LFE149:
 2062              		.section	.text.HAL_PCD_EP_GetRxCount,"ax",%progbits
 2063              		.align	1
 2064              		.global	HAL_PCD_EP_GetRxCount
 2065              		.syntax unified
 2066              		.thumb
 2067              		.thumb_func
 2068              		.fpu fpv4-sp-d16
 2070              	HAL_PCD_EP_GetRxCount:
 2071              	.LFB150:
1053:Drivers/STM32F4xx_HAL_Driver/Src/stm32f4xx_hal_pcd.c ****   return hpcd->OUT_ep[ep_addr & 0xF].xfer_count;
 2072              		.loc 1 1053 0
 2073              		.cfi_startproc
ARM GAS  x:\temp2\ccqe4sF7.s 			page 65


 2074              		@ args = 0, pretend = 0, frame = 0
 2075              		@ frame_needed = 0, uses_anonymous_args = 0
 2076              		@ link register save eliminated.
 2077              	.LVL205:
1054:Drivers/STM32F4xx_HAL_Driver/Src/stm32f4xx_hal_pcd.c **** }
 2078              		.loc 1 1054 0
 2079 0000 01F00F01 		and	r1, r1, #15
 2080              	.LVL206:
 2081 0004 C1EBC101 		rsb	r1, r1, r1, lsl #3
 2082 0008 8B00     		lsls	r3, r1, #2
 2083 000a 1844     		add	r0, r0, r3
 2084              	.LVL207:
1055:Drivers/STM32F4xx_HAL_Driver/Src/stm32f4xx_hal_pcd.c **** /**
 2085              		.loc 1 1055 0
 2086 000c B0F81002 		ldrh	r0, [r0, #528]
 2087 0010 7047     		bx	lr
 2088              		.cfi_endproc
 2089              	.LFE150:
 2091              		.section	.text.HAL_PCD_EP_Transmit,"ax",%progbits
 2092              		.align	1
 2093              		.global	HAL_PCD_EP_Transmit
 2094              		.syntax unified
 2095              		.thumb
 2096              		.thumb_func
 2097              		.fpu fpv4-sp-d16
 2099              	HAL_PCD_EP_Transmit:
 2100              	.LFB151:
1065:Drivers/STM32F4xx_HAL_Driver/Src/stm32f4xx_hal_pcd.c ****   USB_OTG_EPTypeDef *ep;
 2101              		.loc 1 1065 0
 2102              		.cfi_startproc
 2103              		@ args = 0, pretend = 0, frame = 0
 2104              		@ frame_needed = 0, uses_anonymous_args = 0
 2105              	.LVL208:
 2106 0000 70B5     		push	{r4, r5, r6, lr}
 2107              	.LCFI23:
 2108              		.cfi_def_cfa_offset 16
 2109              		.cfi_offset 4, -16
 2110              		.cfi_offset 5, -12
 2111              		.cfi_offset 6, -8
 2112              		.cfi_offset 14, -4
 2113 0002 01F07F06 		and	r6, r1, #127
1068:Drivers/STM32F4xx_HAL_Driver/Src/stm32f4xx_hal_pcd.c ****   
 2114              		.loc 1 1068 0
 2115 0006 F500     		lsls	r5, r6, #3
 2116 0008 A91B     		subs	r1, r5, r6
 2117              	.LVL209:
 2118 000a 8C00     		lsls	r4, r1, #2
 2119 000c 3834     		adds	r4, r4, #56
 2120 000e 0119     		adds	r1, r0, r4
 2121              	.LVL210:
1071:Drivers/STM32F4xx_HAL_Driver/Src/stm32f4xx_hal_pcd.c ****   ep->xfer_len = len;
 2122              		.loc 1 1071 0
 2123 0010 AD1B     		subs	r5, r5, r6
 2124 0012 AC00     		lsls	r4, r5, #2
 2125 0014 0444     		add	r4, r4, r0
 2126 0016 6264     		str	r2, [r4, #68]
1072:Drivers/STM32F4xx_HAL_Driver/Src/stm32f4xx_hal_pcd.c ****   ep->xfer_count = 0U;
ARM GAS  x:\temp2\ccqe4sF7.s 			page 66


 2127              		.loc 1 1072 0
 2128 0018 E364     		str	r3, [r4, #76]
1073:Drivers/STM32F4xx_HAL_Driver/Src/stm32f4xx_hal_pcd.c ****   ep->is_in = 1U;
 2129              		.loc 1 1073 0
 2130 001a 0023     		movs	r3, #0
 2131              	.LVL211:
 2132 001c 2365     		str	r3, [r4, #80]
1074:Drivers/STM32F4xx_HAL_Driver/Src/stm32f4xx_hal_pcd.c ****   ep->num = ep_addr & 0x7F;
 2133              		.loc 1 1074 0
 2134 001e 0123     		movs	r3, #1
 2135 0020 84F83930 		strb	r3, [r4, #57]
1075:Drivers/STM32F4xx_HAL_Driver/Src/stm32f4xx_hal_pcd.c ****   
 2136              		.loc 1 1075 0
 2137 0024 84F83860 		strb	r6, [r4, #56]
1077:Drivers/STM32F4xx_HAL_Driver/Src/stm32f4xx_hal_pcd.c ****   {
 2138              		.loc 1 1077 0
 2139 0028 0369     		ldr	r3, [r0, #16]
 2140 002a 012B     		cmp	r3, #1
 2141 002c 06D0     		beq	.L175
 2142              	.LVL212:
 2143              	.L171:
1082:Drivers/STM32F4xx_HAL_Driver/Src/stm32f4xx_hal_pcd.c ****   {
 2144              		.loc 1 1082 0
 2145 002e 5EB1     		cbz	r6, .L176
1088:Drivers/STM32F4xx_HAL_Driver/Src/stm32f4xx_hal_pcd.c ****   }
 2146              		.loc 1 1088 0
 2147 0030 DAB2     		uxtb	r2, r3
 2148              	.LVL213:
 2149 0032 0068     		ldr	r0, [r0]
 2150              	.LVL214:
 2151 0034 FFF7FEFF 		bl	USB_EPStartXfer
 2152              	.LVL215:
 2153              	.L173:
1092:Drivers/STM32F4xx_HAL_Driver/Src/stm32f4xx_hal_pcd.c **** 
 2154              		.loc 1 1092 0
 2155 0038 0020     		movs	r0, #0
 2156 003a 70BD     		pop	{r4, r5, r6, pc}
 2157              	.LVL216:
 2158              	.L175:
1079:Drivers/STM32F4xx_HAL_Driver/Src/stm32f4xx_hal_pcd.c ****   }
 2159              		.loc 1 1079 0
 2160 003c C6EBC605 		rsb	r5, r6, r6, lsl #3
 2161 0040 AC00     		lsls	r4, r5, #2
 2162              	.LVL217:
 2163 0042 0444     		add	r4, r4, r0
 2164 0044 A264     		str	r2, [r4, #72]
 2165              	.LVL218:
 2166 0046 F2E7     		b	.L171
 2167              	.L176:
1084:Drivers/STM32F4xx_HAL_Driver/Src/stm32f4xx_hal_pcd.c ****   }
 2168              		.loc 1 1084 0
 2169 0048 DAB2     		uxtb	r2, r3
 2170              	.LVL219:
 2171 004a 0068     		ldr	r0, [r0]
 2172              	.LVL220:
 2173 004c FFF7FEFF 		bl	USB_EP0StartXfer
 2174              	.LVL221:
ARM GAS  x:\temp2\ccqe4sF7.s 			page 67


 2175 0050 F2E7     		b	.L173
 2176              		.cfi_endproc
 2177              	.LFE151:
 2179              		.section	.text.HAL_PCD_EP_SetStall,"ax",%progbits
 2180              		.align	1
 2181              		.global	HAL_PCD_EP_SetStall
 2182              		.syntax unified
 2183              		.thumb
 2184              		.thumb_func
 2185              		.fpu fpv4-sp-d16
 2187              	HAL_PCD_EP_SetStall:
 2188              	.LFB152:
1101:Drivers/STM32F4xx_HAL_Driver/Src/stm32f4xx_hal_pcd.c ****   USB_OTG_EPTypeDef *ep;
 2189              		.loc 1 1101 0
 2190              		.cfi_startproc
 2191              		@ args = 0, pretend = 0, frame = 0
 2192              		@ frame_needed = 0, uses_anonymous_args = 0
 2193              	.LVL222:
 2194 0000 38B5     		push	{r3, r4, r5, lr}
 2195              	.LCFI24:
 2196              		.cfi_def_cfa_offset 16
 2197              		.cfi_offset 3, -16
 2198              		.cfi_offset 4, -12
 2199              		.cfi_offset 5, -8
 2200              		.cfi_offset 14, -4
1104:Drivers/STM32F4xx_HAL_Driver/Src/stm32f4xx_hal_pcd.c ****   {
 2201              		.loc 1 1104 0
 2202 0002 4AB2     		sxtb	r2, r1
 2203 0004 002A     		cmp	r2, #0
 2204 0006 1DDB     		blt	.L184
1110:Drivers/STM32F4xx_HAL_Driver/Src/stm32f4xx_hal_pcd.c ****   }
 2205              		.loc 1 1110 0
 2206 0008 C1EBC104 		rsb	r4, r1, r1, lsl #3
 2207 000c A300     		lsls	r3, r4, #2
 2208 000e 03F5FC73 		add	r3, r3, #504
 2209 0012 0344     		add	r3, r3, r0
 2210              	.LVL223:
 2211              	.L179:
1113:Drivers/STM32F4xx_HAL_Driver/Src/stm32f4xx_hal_pcd.c ****   ep->num   = ep_addr & 0x7F;
 2212              		.loc 1 1113 0
 2213 0014 0124     		movs	r4, #1
 2214 0016 9C70     		strb	r4, [r3, #2]
1114:Drivers/STM32F4xx_HAL_Driver/Src/stm32f4xx_hal_pcd.c ****   ep->is_in = ((ep_addr & 0x80) == 0x80);
 2215              		.loc 1 1114 0
 2216 0018 01F07F04 		and	r4, r1, #127
 2217 001c 1C70     		strb	r4, [r3]
1115:Drivers/STM32F4xx_HAL_Driver/Src/stm32f4xx_hal_pcd.c ****   
 2218              		.loc 1 1115 0
 2219 001e D20F     		lsrs	r2, r2, #31
 2220 0020 5A70     		strb	r2, [r3, #1]
1118:Drivers/STM32F4xx_HAL_Driver/Src/stm32f4xx_hal_pcd.c ****   USB_EPSetStall(hpcd->Instance , ep);
 2221              		.loc 1 1118 0
 2222 0022 90F8B823 		ldrb	r2, [r0, #952]	@ zero_extendqisi2
 2223 0026 012A     		cmp	r2, #1
 2224 0028 1BD0     		beq	.L182
 2225 002a 0546     		mov	r5, r0
1118:Drivers/STM32F4xx_HAL_Driver/Src/stm32f4xx_hal_pcd.c ****   USB_EPSetStall(hpcd->Instance , ep);
ARM GAS  x:\temp2\ccqe4sF7.s 			page 68


 2226              		.loc 1 1118 0 is_stmt 0 discriminator 2
 2227 002c 0122     		movs	r2, #1
 2228 002e 80F8B823 		strb	r2, [r0, #952]
1119:Drivers/STM32F4xx_HAL_Driver/Src/stm32f4xx_hal_pcd.c ****   if((ep_addr & 0x7F) == 0)
 2229              		.loc 1 1119 0 is_stmt 1 discriminator 2
 2230 0032 1946     		mov	r1, r3
 2231              	.LVL224:
 2232 0034 0068     		ldr	r0, [r0]
 2233              	.LVL225:
 2234 0036 FFF7FEFF 		bl	USB_EPSetStall
 2235              	.LVL226:
1120:Drivers/STM32F4xx_HAL_Driver/Src/stm32f4xx_hal_pcd.c ****   {
 2236              		.loc 1 1120 0 discriminator 2
 2237 003a 5CB1     		cbz	r4, .L185
 2238              	.L181:
1124:Drivers/STM32F4xx_HAL_Driver/Src/stm32f4xx_hal_pcd.c ****   
 2239              		.loc 1 1124 0
 2240 003c 0020     		movs	r0, #0
 2241 003e 85F8B803 		strb	r0, [r5, #952]
 2242              	.LVL227:
 2243              	.L180:
1127:Drivers/STM32F4xx_HAL_Driver/Src/stm32f4xx_hal_pcd.c **** 
 2244              		.loc 1 1127 0
 2245 0042 38BD     		pop	{r3, r4, r5, pc}
 2246              	.LVL228:
 2247              	.L184:
1106:Drivers/STM32F4xx_HAL_Driver/Src/stm32f4xx_hal_pcd.c ****   }
 2248              		.loc 1 1106 0
 2249 0044 01F07F04 		and	r4, r1, #127
 2250 0048 C4EBC404 		rsb	r4, r4, r4, lsl #3
 2251 004c A300     		lsls	r3, r4, #2
 2252 004e 3833     		adds	r3, r3, #56
 2253 0050 0344     		add	r3, r3, r0
 2254              	.LVL229:
 2255 0052 DFE7     		b	.L179
 2256              	.LVL230:
 2257              	.L185:
1122:Drivers/STM32F4xx_HAL_Driver/Src/stm32f4xx_hal_pcd.c ****   }
 2258              		.loc 1 1122 0
 2259 0054 05F56F72 		add	r2, r5, #956
 2260 0058 297C     		ldrb	r1, [r5, #16]	@ zero_extendqisi2
 2261 005a 2868     		ldr	r0, [r5]
 2262 005c FFF7FEFF 		bl	USB_EP0_OutStart
 2263              	.LVL231:
 2264 0060 ECE7     		b	.L181
 2265              	.LVL232:
 2266              	.L182:
1118:Drivers/STM32F4xx_HAL_Driver/Src/stm32f4xx_hal_pcd.c ****   USB_EPSetStall(hpcd->Instance , ep);
 2267              		.loc 1 1118 0
 2268 0062 0220     		movs	r0, #2
 2269              	.LVL233:
 2270 0064 EDE7     		b	.L180
 2271              		.cfi_endproc
 2272              	.LFE152:
 2274              		.section	.text.HAL_PCD_EP_ClrStall,"ax",%progbits
 2275              		.align	1
 2276              		.global	HAL_PCD_EP_ClrStall
ARM GAS  x:\temp2\ccqe4sF7.s 			page 69


 2277              		.syntax unified
 2278              		.thumb
 2279              		.thumb_func
 2280              		.fpu fpv4-sp-d16
 2282              	HAL_PCD_EP_ClrStall:
 2283              	.LFB153:
1136:Drivers/STM32F4xx_HAL_Driver/Src/stm32f4xx_hal_pcd.c ****   USB_OTG_EPTypeDef *ep;
 2284              		.loc 1 1136 0
 2285              		.cfi_startproc
 2286              		@ args = 0, pretend = 0, frame = 0
 2287              		@ frame_needed = 0, uses_anonymous_args = 0
 2288              	.LVL234:
 2289 0000 10B5     		push	{r4, lr}
 2290              	.LCFI25:
 2291              		.cfi_def_cfa_offset 8
 2292              		.cfi_offset 4, -8
 2293              		.cfi_offset 14, -4
1139:Drivers/STM32F4xx_HAL_Driver/Src/stm32f4xx_hal_pcd.c ****   {
 2294              		.loc 1 1139 0
 2295 0002 4AB2     		sxtb	r2, r1
 2296 0004 002A     		cmp	r2, #0
 2297 0006 1CDB     		blt	.L192
1145:Drivers/STM32F4xx_HAL_Driver/Src/stm32f4xx_hal_pcd.c ****   }
 2298              		.loc 1 1145 0
 2299 0008 C1EBC104 		rsb	r4, r1, r1, lsl #3
 2300 000c A300     		lsls	r3, r4, #2
 2301 000e 03F5FC73 		add	r3, r3, #504
 2302 0012 0344     		add	r3, r3, r0
 2303              	.LVL235:
 2304              	.L188:
1148:Drivers/STM32F4xx_HAL_Driver/Src/stm32f4xx_hal_pcd.c ****   ep->num   = ep_addr & 0x7F;
 2305              		.loc 1 1148 0
 2306 0014 0024     		movs	r4, #0
 2307 0016 9C70     		strb	r4, [r3, #2]
1149:Drivers/STM32F4xx_HAL_Driver/Src/stm32f4xx_hal_pcd.c ****   ep->is_in = ((ep_addr & 0x80) == 0x80);
 2308              		.loc 1 1149 0
 2309 0018 01F07F01 		and	r1, r1, #127
 2310              	.LVL236:
 2311 001c 1970     		strb	r1, [r3]
1150:Drivers/STM32F4xx_HAL_Driver/Src/stm32f4xx_hal_pcd.c ****   
 2312              		.loc 1 1150 0
 2313 001e D20F     		lsrs	r2, r2, #31
 2314              	.LVL237:
 2315 0020 5A70     		strb	r2, [r3, #1]
1152:Drivers/STM32F4xx_HAL_Driver/Src/stm32f4xx_hal_pcd.c ****   USB_EPClearStall(hpcd->Instance , ep);
 2316              		.loc 1 1152 0
 2317 0022 90F8B823 		ldrb	r2, [r0, #952]	@ zero_extendqisi2
 2318 0026 012A     		cmp	r2, #1
 2319 0028 13D0     		beq	.L190
 2320 002a 0446     		mov	r4, r0
1152:Drivers/STM32F4xx_HAL_Driver/Src/stm32f4xx_hal_pcd.c ****   USB_EPClearStall(hpcd->Instance , ep);
 2321              		.loc 1 1152 0 is_stmt 0 discriminator 2
 2322 002c 0122     		movs	r2, #1
 2323 002e 80F8B823 		strb	r2, [r0, #952]
1153:Drivers/STM32F4xx_HAL_Driver/Src/stm32f4xx_hal_pcd.c ****   __HAL_UNLOCK(hpcd); 
 2324              		.loc 1 1153 0 is_stmt 1 discriminator 2
 2325 0032 1946     		mov	r1, r3
ARM GAS  x:\temp2\ccqe4sF7.s 			page 70


 2326 0034 0068     		ldr	r0, [r0]
 2327              	.LVL238:
 2328 0036 FFF7FEFF 		bl	USB_EPClearStall
 2329              	.LVL239:
1154:Drivers/STM32F4xx_HAL_Driver/Src/stm32f4xx_hal_pcd.c ****     
 2330              		.loc 1 1154 0 discriminator 2
 2331 003a 0020     		movs	r0, #0
 2332 003c 84F8B803 		strb	r0, [r4, #952]
 2333              	.LVL240:
 2334              	.L189:
1157:Drivers/STM32F4xx_HAL_Driver/Src/stm32f4xx_hal_pcd.c **** 
 2335              		.loc 1 1157 0
 2336 0040 10BD     		pop	{r4, pc}
 2337              	.LVL241:
 2338              	.L192:
1141:Drivers/STM32F4xx_HAL_Driver/Src/stm32f4xx_hal_pcd.c ****   }
 2339              		.loc 1 1141 0
 2340 0042 01F07F04 		and	r4, r1, #127
 2341 0046 C4EBC404 		rsb	r4, r4, r4, lsl #3
 2342 004a A300     		lsls	r3, r4, #2
 2343 004c 3833     		adds	r3, r3, #56
 2344 004e 0344     		add	r3, r3, r0
 2345              	.LVL242:
 2346 0050 E0E7     		b	.L188
 2347              	.LVL243:
 2348              	.L190:
1152:Drivers/STM32F4xx_HAL_Driver/Src/stm32f4xx_hal_pcd.c ****   USB_EPClearStall(hpcd->Instance , ep);
 2349              		.loc 1 1152 0
 2350 0052 0220     		movs	r0, #2
 2351              	.LVL244:
 2352 0054 F4E7     		b	.L189
 2353              		.cfi_endproc
 2354              	.LFE153:
 2356              		.section	.text.HAL_PCD_EP_Flush,"ax",%progbits
 2357              		.align	1
 2358              		.global	HAL_PCD_EP_Flush
 2359              		.syntax unified
 2360              		.thumb
 2361              		.thumb_func
 2362              		.fpu fpv4-sp-d16
 2364              	HAL_PCD_EP_Flush:
 2365              	.LFB154:
1166:Drivers/STM32F4xx_HAL_Driver/Src/stm32f4xx_hal_pcd.c ****   __HAL_LOCK(hpcd); 
 2366              		.loc 1 1166 0
 2367              		.cfi_startproc
 2368              		@ args = 0, pretend = 0, frame = 0
 2369              		@ frame_needed = 0, uses_anonymous_args = 0
 2370              	.LVL245:
1167:Drivers/STM32F4xx_HAL_Driver/Src/stm32f4xx_hal_pcd.c ****   
 2371              		.loc 1 1167 0
 2372 0000 90F8B833 		ldrb	r3, [r0, #952]	@ zero_extendqisi2
 2373 0004 012B     		cmp	r3, #1
 2374 0006 14D0     		beq	.L197
1166:Drivers/STM32F4xx_HAL_Driver/Src/stm32f4xx_hal_pcd.c ****   __HAL_LOCK(hpcd); 
 2375              		.loc 1 1166 0 discriminator 2
 2376 0008 10B5     		push	{r4, lr}
 2377              	.LCFI26:
ARM GAS  x:\temp2\ccqe4sF7.s 			page 71


 2378              		.cfi_def_cfa_offset 8
 2379              		.cfi_offset 4, -8
 2380              		.cfi_offset 14, -4
 2381 000a 0446     		mov	r4, r0
1167:Drivers/STM32F4xx_HAL_Driver/Src/stm32f4xx_hal_pcd.c ****   
 2382              		.loc 1 1167 0 discriminator 2
 2383 000c 0123     		movs	r3, #1
 2384 000e 80F8B833 		strb	r3, [r0, #952]
1169:Drivers/STM32F4xx_HAL_Driver/Src/stm32f4xx_hal_pcd.c ****   {
 2385              		.loc 1 1169 0 discriminator 2
 2386 0012 11F0800F 		tst	r1, #128
 2387 0016 06D1     		bne	.L202
1175:Drivers/STM32F4xx_HAL_Driver/Src/stm32f4xx_hal_pcd.c ****   }
 2388              		.loc 1 1175 0
 2389 0018 0068     		ldr	r0, [r0]
 2390              	.LVL246:
 2391 001a FFF7FEFF 		bl	USB_FlushRxFifo
 2392              	.LVL247:
 2393              	.L196:
1178:Drivers/STM32F4xx_HAL_Driver/Src/stm32f4xx_hal_pcd.c ****     
 2394              		.loc 1 1178 0
 2395 001e 0020     		movs	r0, #0
 2396 0020 84F8B803 		strb	r0, [r4, #952]
1181:Drivers/STM32F4xx_HAL_Driver/Src/stm32f4xx_hal_pcd.c **** 
 2397              		.loc 1 1181 0
 2398 0024 10BD     		pop	{r4, pc}
 2399              	.LVL248:
 2400              	.L202:
1171:Drivers/STM32F4xx_HAL_Driver/Src/stm32f4xx_hal_pcd.c ****   }
 2401              		.loc 1 1171 0
 2402 0026 01F07F01 		and	r1, r1, #127
 2403              	.LVL249:
 2404 002a 0068     		ldr	r0, [r0]
 2405              	.LVL250:
 2406 002c FFF7FEFF 		bl	USB_FlushTxFifo
 2407              	.LVL251:
 2408 0030 F5E7     		b	.L196
 2409              	.LVL252:
 2410              	.L197:
 2411              	.LCFI27:
 2412              		.cfi_def_cfa_offset 0
 2413              		.cfi_restore 4
 2414              		.cfi_restore 14
1167:Drivers/STM32F4xx_HAL_Driver/Src/stm32f4xx_hal_pcd.c ****   
 2415              		.loc 1 1167 0
 2416 0032 0220     		movs	r0, #2
 2417              	.LVL253:
1181:Drivers/STM32F4xx_HAL_Driver/Src/stm32f4xx_hal_pcd.c **** 
 2418              		.loc 1 1181 0
 2419 0034 7047     		bx	lr
 2420              		.cfi_endproc
 2421              	.LFE154:
 2423              		.section	.text.HAL_PCD_ActivateRemoteWakeup,"ax",%progbits
 2424              		.align	1
 2425              		.global	HAL_PCD_ActivateRemoteWakeup
 2426              		.syntax unified
 2427              		.thumb
ARM GAS  x:\temp2\ccqe4sF7.s 			page 72


 2428              		.thumb_func
 2429              		.fpu fpv4-sp-d16
 2431              	HAL_PCD_ActivateRemoteWakeup:
 2432              	.LFB155:
1189:Drivers/STM32F4xx_HAL_Driver/Src/stm32f4xx_hal_pcd.c ****   USB_OTG_GlobalTypeDef *USBx = hpcd->Instance;  
 2433              		.loc 1 1189 0
 2434              		.cfi_startproc
 2435              		@ args = 0, pretend = 0, frame = 0
 2436              		@ frame_needed = 0, uses_anonymous_args = 0
 2437              		@ link register save eliminated.
 2438              	.LVL254:
1190:Drivers/STM32F4xx_HAL_Driver/Src/stm32f4xx_hal_pcd.c ****     
 2439              		.loc 1 1190 0
 2440 0000 0368     		ldr	r3, [r0]
 2441              	.LVL255:
1192:Drivers/STM32F4xx_HAL_Driver/Src/stm32f4xx_hal_pcd.c ****   {
 2442              		.loc 1 1192 0
 2443 0002 D3F80828 		ldr	r2, [r3, #2056]
 2444 0006 03F50063 		add	r3, r3, #2048
 2445              	.LVL256:
 2446 000a 12F0010F 		tst	r2, #1
 2447 000e 03D0     		beq	.L204
1195:Drivers/STM32F4xx_HAL_Driver/Src/stm32f4xx_hal_pcd.c ****   }
 2448              		.loc 1 1195 0
 2449 0010 5A68     		ldr	r2, [r3, #4]
 2450 0012 42F00102 		orr	r2, r2, #1
 2451 0016 5A60     		str	r2, [r3, #4]
 2452              	.LVL257:
 2453              	.L204:
1198:Drivers/STM32F4xx_HAL_Driver/Src/stm32f4xx_hal_pcd.c **** 
 2454              		.loc 1 1198 0
 2455 0018 0020     		movs	r0, #0
 2456              	.LVL258:
 2457 001a 7047     		bx	lr
 2458              		.cfi_endproc
 2459              	.LFE155:
 2461              		.section	.text.HAL_PCD_DeActivateRemoteWakeup,"ax",%progbits
 2462              		.align	1
 2463              		.global	HAL_PCD_DeActivateRemoteWakeup
 2464              		.syntax unified
 2465              		.thumb
 2466              		.thumb_func
 2467              		.fpu fpv4-sp-d16
 2469              	HAL_PCD_DeActivateRemoteWakeup:
 2470              	.LFB156:
1206:Drivers/STM32F4xx_HAL_Driver/Src/stm32f4xx_hal_pcd.c ****   USB_OTG_GlobalTypeDef *USBx = hpcd->Instance;  
 2471              		.loc 1 1206 0
 2472              		.cfi_startproc
 2473              		@ args = 0, pretend = 0, frame = 0
 2474              		@ frame_needed = 0, uses_anonymous_args = 0
 2475              		@ link register save eliminated.
 2476              	.LVL259:
1207:Drivers/STM32F4xx_HAL_Driver/Src/stm32f4xx_hal_pcd.c ****   
 2477              		.loc 1 1207 0
 2478 0000 0368     		ldr	r3, [r0]
 2479              	.LVL260:
1210:Drivers/STM32F4xx_HAL_Driver/Src/stm32f4xx_hal_pcd.c ****   return HAL_OK;  
ARM GAS  x:\temp2\ccqe4sF7.s 			page 73


 2480              		.loc 1 1210 0
 2481 0002 D3F80428 		ldr	r2, [r3, #2052]
 2482 0006 22F00102 		bic	r2, r2, #1
 2483 000a C3F80428 		str	r2, [r3, #2052]
1212:Drivers/STM32F4xx_HAL_Driver/Src/stm32f4xx_hal_pcd.c **** /**
 2484              		.loc 1 1212 0
 2485 000e 0020     		movs	r0, #0
 2486              	.LVL261:
 2487 0010 7047     		bx	lr
 2488              		.cfi_endproc
 2489              	.LFE156:
 2491              		.section	.text.HAL_PCD_GetState,"ax",%progbits
 2492              		.align	1
 2493              		.global	HAL_PCD_GetState
 2494              		.syntax unified
 2495              		.thumb
 2496              		.thumb_func
 2497              		.fpu fpv4-sp-d16
 2499              	HAL_PCD_GetState:
 2500              	.LFB157:
1238:Drivers/STM32F4xx_HAL_Driver/Src/stm32f4xx_hal_pcd.c ****   return hpcd->State;
 2501              		.loc 1 1238 0
 2502              		.cfi_startproc
 2503              		@ args = 0, pretend = 0, frame = 0
 2504              		@ frame_needed = 0, uses_anonymous_args = 0
 2505              		@ link register save eliminated.
 2506              	.LVL262:
1239:Drivers/STM32F4xx_HAL_Driver/Src/stm32f4xx_hal_pcd.c **** }
 2507              		.loc 1 1239 0
 2508 0000 90F8B903 		ldrb	r0, [r0, #953]	@ zero_extendqisi2
 2509              	.LVL263:
1240:Drivers/STM32F4xx_HAL_Driver/Src/stm32f4xx_hal_pcd.c **** /**
 2510              		.loc 1 1240 0
 2511 0004 7047     		bx	lr
 2512              		.cfi_endproc
 2513              	.LFE157:
 2515              		.text
 2516              	.Letext0:
 2517              		.file 2 "c:\\program files (x86)\\gnu tools arm embedded\\7 2017-q4-major\\arm-none-eabi\\include\
 2518              		.file 3 "c:\\program files (x86)\\gnu tools arm embedded\\7 2017-q4-major\\arm-none-eabi\\include\
 2519              		.file 4 "Drivers/CMSIS/Include/core_cm4.h"
 2520              		.file 5 "Drivers/CMSIS/Device/ST/STM32F4xx/Include/system_stm32f4xx.h"
 2521              		.file 6 "Drivers/CMSIS/Device/ST/STM32F4xx/Include/stm32f407xx.h"
 2522              		.file 7 "c:\\program files (x86)\\gnu tools arm embedded\\7 2017-q4-major\\arm-none-eabi\\include\
 2523              		.file 8 "c:\\program files (x86)\\gnu tools arm embedded\\7 2017-q4-major\\arm-none-eabi\\include\
 2524              		.file 9 "c:\\program files (x86)\\gnu tools arm embedded\\7 2017-q4-major\\lib\\gcc\\arm-none-eabi
 2525              		.file 10 "c:\\program files (x86)\\gnu tools arm embedded\\7 2017-q4-major\\arm-none-eabi\\include
 2526              		.file 11 "Drivers/STM32F4xx_HAL_Driver/Inc/stm32f4xx_hal_def.h"
 2527              		.file 12 "Drivers/STM32F4xx_HAL_Driver/Inc/stm32f4xx_ll_usb.h"
 2528              		.file 13 "Drivers/STM32F4xx_HAL_Driver/Inc/stm32f4xx_hal_pcd.h"
 2529              		.file 14 "Drivers/STM32F4xx_HAL_Driver/Inc/stm32f4xx_hal_rcc.h"
ARM GAS  x:\temp2\ccqe4sF7.s 			page 74


DEFINED SYMBOLS
                            *ABS*:00000000 stm32f4xx_hal_pcd.c
 x:\temp2\ccqe4sF7.s:18     .text.PCD_WriteEmptyTxFifo:00000000 $t
 x:\temp2\ccqe4sF7.s:24     .text.PCD_WriteEmptyTxFifo:00000000 PCD_WriteEmptyTxFifo
 x:\temp2\ccqe4sF7.s:164    .text.HAL_PCD_MspInit:00000000 $t
 x:\temp2\ccqe4sF7.s:171    .text.HAL_PCD_MspInit:00000000 HAL_PCD_MspInit
 x:\temp2\ccqe4sF7.s:185    .text.HAL_PCD_Init:00000000 $t
 x:\temp2\ccqe4sF7.s:192    .text.HAL_PCD_Init:00000000 HAL_PCD_Init
 x:\temp2\ccqe4sF7.s:363    .text.HAL_PCD_MspDeInit:00000000 $t
 x:\temp2\ccqe4sF7.s:370    .text.HAL_PCD_MspDeInit:00000000 HAL_PCD_MspDeInit
 x:\temp2\ccqe4sF7.s:384    .text.HAL_PCD_Start:00000000 $t
 x:\temp2\ccqe4sF7.s:391    .text.HAL_PCD_Start:00000000 HAL_PCD_Start
 x:\temp2\ccqe4sF7.s:441    .text.HAL_PCD_Stop:00000000 $t
 x:\temp2\ccqe4sF7.s:448    .text.HAL_PCD_Stop:00000000 HAL_PCD_Stop
 x:\temp2\ccqe4sF7.s:502    .text.HAL_PCD_DeInit:00000000 $t
 x:\temp2\ccqe4sF7.s:509    .text.HAL_PCD_DeInit:00000000 HAL_PCD_DeInit
 x:\temp2\ccqe4sF7.s:555    .text.HAL_PCD_DataOutStageCallback:00000000 $t
 x:\temp2\ccqe4sF7.s:562    .text.HAL_PCD_DataOutStageCallback:00000000 HAL_PCD_DataOutStageCallback
 x:\temp2\ccqe4sF7.s:576    .text.HAL_PCD_DataInStageCallback:00000000 $t
 x:\temp2\ccqe4sF7.s:583    .text.HAL_PCD_DataInStageCallback:00000000 HAL_PCD_DataInStageCallback
 x:\temp2\ccqe4sF7.s:597    .text.HAL_PCD_SetupStageCallback:00000000 $t
 x:\temp2\ccqe4sF7.s:604    .text.HAL_PCD_SetupStageCallback:00000000 HAL_PCD_SetupStageCallback
 x:\temp2\ccqe4sF7.s:618    .text.HAL_PCD_SOFCallback:00000000 $t
 x:\temp2\ccqe4sF7.s:625    .text.HAL_PCD_SOFCallback:00000000 HAL_PCD_SOFCallback
 x:\temp2\ccqe4sF7.s:639    .text.HAL_PCD_ResetCallback:00000000 $t
 x:\temp2\ccqe4sF7.s:646    .text.HAL_PCD_ResetCallback:00000000 HAL_PCD_ResetCallback
 x:\temp2\ccqe4sF7.s:660    .text.HAL_PCD_SuspendCallback:00000000 $t
 x:\temp2\ccqe4sF7.s:667    .text.HAL_PCD_SuspendCallback:00000000 HAL_PCD_SuspendCallback
 x:\temp2\ccqe4sF7.s:681    .text.HAL_PCD_ResumeCallback:00000000 $t
 x:\temp2\ccqe4sF7.s:688    .text.HAL_PCD_ResumeCallback:00000000 HAL_PCD_ResumeCallback
 x:\temp2\ccqe4sF7.s:702    .text.HAL_PCD_ISOOUTIncompleteCallback:00000000 $t
 x:\temp2\ccqe4sF7.s:709    .text.HAL_PCD_ISOOUTIncompleteCallback:00000000 HAL_PCD_ISOOUTIncompleteCallback
 x:\temp2\ccqe4sF7.s:723    .text.HAL_PCD_ISOINIncompleteCallback:00000000 $t
 x:\temp2\ccqe4sF7.s:730    .text.HAL_PCD_ISOINIncompleteCallback:00000000 HAL_PCD_ISOINIncompleteCallback
 x:\temp2\ccqe4sF7.s:744    .text.HAL_PCD_ConnectCallback:00000000 $t
 x:\temp2\ccqe4sF7.s:751    .text.HAL_PCD_ConnectCallback:00000000 HAL_PCD_ConnectCallback
 x:\temp2\ccqe4sF7.s:765    .text.HAL_PCD_DisconnectCallback:00000000 $t
 x:\temp2\ccqe4sF7.s:772    .text.HAL_PCD_DisconnectCallback:00000000 HAL_PCD_DisconnectCallback
 x:\temp2\ccqe4sF7.s:786    .text.HAL_PCD_IRQHandler:00000000 $t
 x:\temp2\ccqe4sF7.s:793    .text.HAL_PCD_IRQHandler:00000000 HAL_PCD_IRQHandler
 x:\temp2\ccqe4sF7.s:1614   .text.HAL_PCD_IRQHandler:00000588 $d
 x:\temp2\ccqe4sF7.s:1633   .text.HAL_PCD_DevConnect:00000000 $t
 x:\temp2\ccqe4sF7.s:1640   .text.HAL_PCD_DevConnect:00000000 HAL_PCD_DevConnect
 x:\temp2\ccqe4sF7.s:1686   .text.HAL_PCD_DevDisconnect:00000000 $t
 x:\temp2\ccqe4sF7.s:1693   .text.HAL_PCD_DevDisconnect:00000000 HAL_PCD_DevDisconnect
 x:\temp2\ccqe4sF7.s:1739   .text.HAL_PCD_SetAddress:00000000 $t
 x:\temp2\ccqe4sF7.s:1746   .text.HAL_PCD_SetAddress:00000000 HAL_PCD_SetAddress
 x:\temp2\ccqe4sF7.s:1792   .text.HAL_PCD_EP_Open:00000000 $t
 x:\temp2\ccqe4sF7.s:1799   .text.HAL_PCD_EP_Open:00000000 HAL_PCD_EP_Open
 x:\temp2\ccqe4sF7.s:1896   .text.HAL_PCD_EP_Close:00000000 $t
 x:\temp2\ccqe4sF7.s:1903   .text.HAL_PCD_EP_Close:00000000 HAL_PCD_EP_Close
 x:\temp2\ccqe4sF7.s:1976   .text.HAL_PCD_EP_Receive:00000000 $t
 x:\temp2\ccqe4sF7.s:1983   .text.HAL_PCD_EP_Receive:00000000 HAL_PCD_EP_Receive
 x:\temp2\ccqe4sF7.s:2063   .text.HAL_PCD_EP_GetRxCount:00000000 $t
 x:\temp2\ccqe4sF7.s:2070   .text.HAL_PCD_EP_GetRxCount:00000000 HAL_PCD_EP_GetRxCount
 x:\temp2\ccqe4sF7.s:2092   .text.HAL_PCD_EP_Transmit:00000000 $t
 x:\temp2\ccqe4sF7.s:2099   .text.HAL_PCD_EP_Transmit:00000000 HAL_PCD_EP_Transmit
ARM GAS  x:\temp2\ccqe4sF7.s 			page 75


 x:\temp2\ccqe4sF7.s:2180   .text.HAL_PCD_EP_SetStall:00000000 $t
 x:\temp2\ccqe4sF7.s:2187   .text.HAL_PCD_EP_SetStall:00000000 HAL_PCD_EP_SetStall
 x:\temp2\ccqe4sF7.s:2275   .text.HAL_PCD_EP_ClrStall:00000000 $t
 x:\temp2\ccqe4sF7.s:2282   .text.HAL_PCD_EP_ClrStall:00000000 HAL_PCD_EP_ClrStall
 x:\temp2\ccqe4sF7.s:2357   .text.HAL_PCD_EP_Flush:00000000 $t
 x:\temp2\ccqe4sF7.s:2364   .text.HAL_PCD_EP_Flush:00000000 HAL_PCD_EP_Flush
 x:\temp2\ccqe4sF7.s:2424   .text.HAL_PCD_ActivateRemoteWakeup:00000000 $t
 x:\temp2\ccqe4sF7.s:2431   .text.HAL_PCD_ActivateRemoteWakeup:00000000 HAL_PCD_ActivateRemoteWakeup
 x:\temp2\ccqe4sF7.s:2462   .text.HAL_PCD_DeActivateRemoteWakeup:00000000 $t
 x:\temp2\ccqe4sF7.s:2469   .text.HAL_PCD_DeActivateRemoteWakeup:00000000 HAL_PCD_DeActivateRemoteWakeup
 x:\temp2\ccqe4sF7.s:2492   .text.HAL_PCD_GetState:00000000 $t
 x:\temp2\ccqe4sF7.s:2499   .text.HAL_PCD_GetState:00000000 HAL_PCD_GetState

UNDEFINED SYMBOLS
USB_WritePacket
USB_DisableGlobalInt
USB_CoreInit
USB_SetCurrentMode
USB_DevInit
USB_DevDisconnect
USB_DevConnect
USB_EnableGlobalInt
USB_StopDevice
USB_GetMode
USB_ReadInterrupts
USB_ReadDevAllOutEpInterrupt
USB_ReadDevOutEPInterrupt
USB_EP0_OutStart
USB_ReadDevAllInEpInterrupt
USB_ReadDevInEPInterrupt
USB_FlushTxFifo
USB_ActivateSetup
USB_GetDevSpeed
HAL_RCC_GetHCLKFreq
USB_ReadPacket
USB_SetDevAddress
USB_ActivateEndpoint
USB_DeactivateEndpoint
USB_EPStartXfer
USB_EP0StartXfer
USB_EPSetStall
USB_EPClearStall
USB_FlushRxFifo
