ARM GAS  x:\temp2\ccQr1tek.s 			page 1


   1              		.cpu cortex-m4
   2              		.eabi_attribute 27, 1
   3              		.eabi_attribute 28, 1
   4              		.eabi_attribute 20, 1
   5              		.eabi_attribute 21, 1
   6              		.eabi_attribute 23, 3
   7              		.eabi_attribute 24, 1
   8              		.eabi_attribute 25, 1
   9              		.eabi_attribute 26, 1
  10              		.eabi_attribute 30, 1
  11              		.eabi_attribute 34, 1
  12              		.eabi_attribute 18, 4
  13              		.file	"usbd_custom_hid_if.c"
  14              		.text
  15              	.Ltext0:
  16              		.cfi_sections	.debug_frame
  17              		.section	.text.CUSTOM_HID_Init_FS,"ax",%progbits
  18              		.align	1
  19              		.syntax unified
  20              		.thumb
  21              		.thumb_func
  22              		.fpu fpv4-sp-d16
  24              	CUSTOM_HID_Init_FS:
  25              	.LFB126:
  26              		.file 1 "Src/usbd_custom_hid_if.c"
   1:Src/usbd_custom_hid_if.c **** /**
   2:Src/usbd_custom_hid_if.c ****   ******************************************************************************
   3:Src/usbd_custom_hid_if.c ****   * @file           : usbd_custom_hid_if.c
   4:Src/usbd_custom_hid_if.c ****   * @version        : v1.0_Cube
   5:Src/usbd_custom_hid_if.c ****   * @brief          : USB Device Custom HID interface file.
   6:Src/usbd_custom_hid_if.c ****   ******************************************************************************
   7:Src/usbd_custom_hid_if.c ****   * This notice applies to any and all portions of this file
   8:Src/usbd_custom_hid_if.c ****   * that are not between comment pairs USER CODE BEGIN and
   9:Src/usbd_custom_hid_if.c ****   * USER CODE END. Other portions of this file, whether 
  10:Src/usbd_custom_hid_if.c ****   * inserted by the user or by software development tools
  11:Src/usbd_custom_hid_if.c ****   * are owned by their respective copyright owners.
  12:Src/usbd_custom_hid_if.c ****   *
  13:Src/usbd_custom_hid_if.c ****   * Copyright (c) 2018 STMicroelectronics International N.V. 
  14:Src/usbd_custom_hid_if.c ****   * All rights reserved.
  15:Src/usbd_custom_hid_if.c ****   *
  16:Src/usbd_custom_hid_if.c ****   * Redistribution and use in source and binary forms, with or without 
  17:Src/usbd_custom_hid_if.c ****   * modification, are permitted, provided that the following conditions are met:
  18:Src/usbd_custom_hid_if.c ****   *
  19:Src/usbd_custom_hid_if.c ****   * 1. Redistribution of source code must retain the above copyright notice, 
  20:Src/usbd_custom_hid_if.c ****   *    this list of conditions and the following disclaimer.
  21:Src/usbd_custom_hid_if.c ****   * 2. Redistributions in binary form must reproduce the above copyright notice,
  22:Src/usbd_custom_hid_if.c ****   *    this list of conditions and the following disclaimer in the documentation
  23:Src/usbd_custom_hid_if.c ****   *    and/or other materials provided with the distribution.
  24:Src/usbd_custom_hid_if.c ****   * 3. Neither the name of STMicroelectronics nor the names of other 
  25:Src/usbd_custom_hid_if.c ****   *    contributors to this software may be used to endorse or promote products 
  26:Src/usbd_custom_hid_if.c ****   *    derived from this software without specific written permission.
  27:Src/usbd_custom_hid_if.c ****   * 4. This software, including modifications and/or derivative works of this 
  28:Src/usbd_custom_hid_if.c ****   *    software, must execute solely and exclusively on microcontroller or
  29:Src/usbd_custom_hid_if.c ****   *    microprocessor devices manufactured by or for STMicroelectronics.
  30:Src/usbd_custom_hid_if.c ****   * 5. Redistribution and use of this software other than as permitted under 
  31:Src/usbd_custom_hid_if.c ****   *    this license is void and will automatically terminate your rights under 
  32:Src/usbd_custom_hid_if.c ****   *    this license. 
ARM GAS  x:\temp2\ccQr1tek.s 			page 2


  33:Src/usbd_custom_hid_if.c ****   *
  34:Src/usbd_custom_hid_if.c ****   * THIS SOFTWARE IS PROVIDED BY STMICROELECTRONICS AND CONTRIBUTORS "AS IS" 
  35:Src/usbd_custom_hid_if.c ****   * AND ANY EXPRESS, IMPLIED OR STATUTORY WARRANTIES, INCLUDING, BUT NOT 
  36:Src/usbd_custom_hid_if.c ****   * LIMITED TO, THE IMPLIED WARRANTIES OF MERCHANTABILITY, FITNESS FOR A 
  37:Src/usbd_custom_hid_if.c ****   * PARTICULAR PURPOSE AND NON-INFRINGEMENT OF THIRD PARTY INTELLECTUAL PROPERTY
  38:Src/usbd_custom_hid_if.c ****   * RIGHTS ARE DISCLAIMED TO THE FULLEST EXTENT PERMITTED BY LAW. IN NO EVENT 
  39:Src/usbd_custom_hid_if.c ****   * SHALL STMICROELECTRONICS OR CONTRIBUTORS BE LIABLE FOR ANY DIRECT, INDIRECT,
  40:Src/usbd_custom_hid_if.c ****   * INCIDENTAL, SPECIAL, EXEMPLARY, OR CONSEQUENTIAL DAMAGES (INCLUDING, BUT NOT
  41:Src/usbd_custom_hid_if.c ****   * LIMITED TO, PROCUREMENT OF SUBSTITUTE GOODS OR SERVICES; LOSS OF USE, DATA, 
  42:Src/usbd_custom_hid_if.c ****   * OR PROFITS; OR BUSINESS INTERRUPTION) HOWEVER CAUSED AND ON ANY THEORY OF 
  43:Src/usbd_custom_hid_if.c ****   * LIABILITY, WHETHER IN CONTRACT, STRICT LIABILITY, OR TORT (INCLUDING 
  44:Src/usbd_custom_hid_if.c ****   * NEGLIGENCE OR OTHERWISE) ARISING IN ANY WAY OUT OF THE USE OF THIS SOFTWARE,
  45:Src/usbd_custom_hid_if.c ****   * EVEN IF ADVISED OF THE POSSIBILITY OF SUCH DAMAGE.
  46:Src/usbd_custom_hid_if.c ****   *
  47:Src/usbd_custom_hid_if.c ****   ******************************************************************************
  48:Src/usbd_custom_hid_if.c ****   */
  49:Src/usbd_custom_hid_if.c **** 
  50:Src/usbd_custom_hid_if.c **** /* Includes ------------------------------------------------------------------*/
  51:Src/usbd_custom_hid_if.c **** #include "usbd_custom_hid_if.h"
  52:Src/usbd_custom_hid_if.c **** 
  53:Src/usbd_custom_hid_if.c **** /* USER CODE BEGIN INCLUDE */
  54:Src/usbd_custom_hid_if.c **** 
  55:Src/usbd_custom_hid_if.c **** /* USER CODE END INCLUDE */
  56:Src/usbd_custom_hid_if.c **** 
  57:Src/usbd_custom_hid_if.c **** /* Private typedef -----------------------------------------------------------*/
  58:Src/usbd_custom_hid_if.c **** /* Private define ------------------------------------------------------------*/
  59:Src/usbd_custom_hid_if.c **** /* Private macro -------------------------------------------------------------*/
  60:Src/usbd_custom_hid_if.c **** 
  61:Src/usbd_custom_hid_if.c **** /* USER CODE BEGIN PV */
  62:Src/usbd_custom_hid_if.c **** /* Private variables ---------------------------------------------------------*/
  63:Src/usbd_custom_hid_if.c **** extern uint8_t USB_RX_Buffer[CUSTOM_HID_EPOUT_SIZE];
  64:Src/usbd_custom_hid_if.c **** extern uint8_t new_data_is_received;
  65:Src/usbd_custom_hid_if.c **** /* USER CODE END PV */
  66:Src/usbd_custom_hid_if.c **** 
  67:Src/usbd_custom_hid_if.c **** /** @addtogroup STM32_USB_OTG_DEVICE_LIBRARY
  68:Src/usbd_custom_hid_if.c ****   * @brief Usb device.
  69:Src/usbd_custom_hid_if.c ****   * @{
  70:Src/usbd_custom_hid_if.c ****   */
  71:Src/usbd_custom_hid_if.c **** 
  72:Src/usbd_custom_hid_if.c **** /** @addtogroup USBD_CUSTOM_HID
  73:Src/usbd_custom_hid_if.c ****   * @{
  74:Src/usbd_custom_hid_if.c ****   */
  75:Src/usbd_custom_hid_if.c **** 
  76:Src/usbd_custom_hid_if.c **** /** @defgroup USBD_CUSTOM_HID_Private_TypesDefinitions USBD_CUSTOM_HID_Private_TypesDefinitions
  77:Src/usbd_custom_hid_if.c ****   * @brief Private types.
  78:Src/usbd_custom_hid_if.c ****   * @{
  79:Src/usbd_custom_hid_if.c ****   */
  80:Src/usbd_custom_hid_if.c **** 
  81:Src/usbd_custom_hid_if.c **** /* USER CODE BEGIN PRIVATE_TYPES */
  82:Src/usbd_custom_hid_if.c **** 
  83:Src/usbd_custom_hid_if.c **** /* USER CODE END PRIVATE_TYPES */
  84:Src/usbd_custom_hid_if.c **** 
  85:Src/usbd_custom_hid_if.c **** /**
  86:Src/usbd_custom_hid_if.c ****   * @}
  87:Src/usbd_custom_hid_if.c ****   */
  88:Src/usbd_custom_hid_if.c **** 
  89:Src/usbd_custom_hid_if.c **** /** @defgroup USBD_CUSTOM_HID_Private_Defines USBD_CUSTOM_HID_Private_Defines
ARM GAS  x:\temp2\ccQr1tek.s 			page 3


  90:Src/usbd_custom_hid_if.c ****   * @brief Private defines.
  91:Src/usbd_custom_hid_if.c ****   * @{
  92:Src/usbd_custom_hid_if.c ****   */
  93:Src/usbd_custom_hid_if.c **** 
  94:Src/usbd_custom_hid_if.c **** /* USER CODE BEGIN PRIVATE_DEFINES */
  95:Src/usbd_custom_hid_if.c **** 
  96:Src/usbd_custom_hid_if.c **** /* USER CODE END PRIVATE_DEFINES */
  97:Src/usbd_custom_hid_if.c **** 
  98:Src/usbd_custom_hid_if.c **** /**
  99:Src/usbd_custom_hid_if.c ****   * @}
 100:Src/usbd_custom_hid_if.c ****   */
 101:Src/usbd_custom_hid_if.c **** 
 102:Src/usbd_custom_hid_if.c **** /** @defgroup USBD_CUSTOM_HID_Private_Macros USBD_CUSTOM_HID_Private_Macros
 103:Src/usbd_custom_hid_if.c ****   * @brief Private macros.
 104:Src/usbd_custom_hid_if.c ****   * @{
 105:Src/usbd_custom_hid_if.c ****   */
 106:Src/usbd_custom_hid_if.c **** 
 107:Src/usbd_custom_hid_if.c **** /* USER CODE BEGIN PRIVATE_MACRO */
 108:Src/usbd_custom_hid_if.c **** 
 109:Src/usbd_custom_hid_if.c **** /* USER CODE END PRIVATE_MACRO */
 110:Src/usbd_custom_hid_if.c **** 
 111:Src/usbd_custom_hid_if.c **** /**
 112:Src/usbd_custom_hid_if.c ****   * @}
 113:Src/usbd_custom_hid_if.c ****   */
 114:Src/usbd_custom_hid_if.c **** 
 115:Src/usbd_custom_hid_if.c **** /** @defgroup USBD_CUSTOM_HID_Private_Variables USBD_CUSTOM_HID_Private_Variables
 116:Src/usbd_custom_hid_if.c ****   * @brief Private variables.
 117:Src/usbd_custom_hid_if.c ****   * @{
 118:Src/usbd_custom_hid_if.c ****   */
 119:Src/usbd_custom_hid_if.c **** 
 120:Src/usbd_custom_hid_if.c **** /** Usb HID report descriptor. */
 121:Src/usbd_custom_hid_if.c **** __ALIGN_BEGIN static uint8_t CUSTOM_HID_ReportDesc_FS[USBD_CUSTOM_HID_REPORT_DESC_SIZE] __ALIGN_END
 122:Src/usbd_custom_hid_if.c **** {
 123:Src/usbd_custom_hid_if.c ****   /* USER CODE BEGIN 0 */
 124:Src/usbd_custom_hid_if.c **** 		0x06, 0x00, 0xFF,//USAGE_PAGE (Vendor Defined Page 1)       // 3 B
 125:Src/usbd_custom_hid_if.c **** 		0x09, 0x00,      //USAGE (Undefined)                        // 5 B
 126:Src/usbd_custom_hid_if.c **** 		0xA1, 0x01,      //COLLECTION (Application)                 // 7 B
 127:Src/usbd_custom_hid_if.c **** 	
 128:Src/usbd_custom_hid_if.c **** 		0x75, 0x08,      //  REPORT_SIZE (8)                        // 9 B
 129:Src/usbd_custom_hid_if.c **** 		0x95, CUSTOM_HID_EPOUT_SIZE,      //  REPORT_COUNT (64)
 130:Src/usbd_custom_hid_if.c **** 		0x91, 0x03,			 //  OUTPUT (Cnst, Var, Abs)								// 14B
 131:Src/usbd_custom_hid_if.c **** 
 132:Src/usbd_custom_hid_if.c **** 		0x75, 0x08,      //  REPORT_SIZE (8)                        // 9 B
 133:Src/usbd_custom_hid_if.c **** 		0x95, CUSTOM_HID_EPIN_SIZE,      //  REPORT_COUNT (8)
 134:Src/usbd_custom_hid_if.c **** 		0x81, 0x03,			 //  INPUT (Cnst, Var, Abs)									// 14B
 135:Src/usbd_custom_hid_if.c **** 	
 136:Src/usbd_custom_hid_if.c ****   /* USER CODE END 0 */
 137:Src/usbd_custom_hid_if.c ****   0xC0    /*     END_COLLECTION	             */
 138:Src/usbd_custom_hid_if.c **** };
 139:Src/usbd_custom_hid_if.c **** 
 140:Src/usbd_custom_hid_if.c **** /* USER CODE BEGIN PRIVATE_VARIABLES */
 141:Src/usbd_custom_hid_if.c **** 
 142:Src/usbd_custom_hid_if.c **** /* USER CODE END PRIVATE_VARIABLES */
 143:Src/usbd_custom_hid_if.c **** 
 144:Src/usbd_custom_hid_if.c **** /**
 145:Src/usbd_custom_hid_if.c ****   * @}
 146:Src/usbd_custom_hid_if.c ****   */
ARM GAS  x:\temp2\ccQr1tek.s 			page 4


 147:Src/usbd_custom_hid_if.c **** 
 148:Src/usbd_custom_hid_if.c **** /** @defgroup USBD_CUSTOM_HID_Exported_Variables USBD_CUSTOM_HID_Exported_Variables
 149:Src/usbd_custom_hid_if.c ****   * @brief Public variables.
 150:Src/usbd_custom_hid_if.c ****   * @{
 151:Src/usbd_custom_hid_if.c ****   */
 152:Src/usbd_custom_hid_if.c **** extern USBD_HandleTypeDef hUsbDeviceFS;
 153:Src/usbd_custom_hid_if.c **** 
 154:Src/usbd_custom_hid_if.c **** /* USER CODE BEGIN EXPORTED_VARIABLES */
 155:Src/usbd_custom_hid_if.c **** 
 156:Src/usbd_custom_hid_if.c **** /* USER CODE END EXPORTED_VARIABLES */
 157:Src/usbd_custom_hid_if.c **** /**
 158:Src/usbd_custom_hid_if.c ****   * @}
 159:Src/usbd_custom_hid_if.c ****   */
 160:Src/usbd_custom_hid_if.c **** 
 161:Src/usbd_custom_hid_if.c **** /** @defgroup USBD_CUSTOM_HID_Private_FunctionPrototypes USBD_CUSTOM_HID_Private_FunctionPrototypes
 162:Src/usbd_custom_hid_if.c ****   * @brief Private functions declaration.
 163:Src/usbd_custom_hid_if.c ****   * @{
 164:Src/usbd_custom_hid_if.c ****   */
 165:Src/usbd_custom_hid_if.c **** 
 166:Src/usbd_custom_hid_if.c **** static int8_t CUSTOM_HID_Init_FS(void);
 167:Src/usbd_custom_hid_if.c **** static int8_t CUSTOM_HID_DeInit_FS(void);
 168:Src/usbd_custom_hid_if.c **** static int8_t CUSTOM_HID_OutEvent_FS(uint8_t event_idx, uint8_t state);
 169:Src/usbd_custom_hid_if.c **** 
 170:Src/usbd_custom_hid_if.c **** /**
 171:Src/usbd_custom_hid_if.c ****   * @}
 172:Src/usbd_custom_hid_if.c ****   */
 173:Src/usbd_custom_hid_if.c **** 
 174:Src/usbd_custom_hid_if.c **** USBD_CUSTOM_HID_ItfTypeDef USBD_CustomHID_fops_FS =
 175:Src/usbd_custom_hid_if.c **** {
 176:Src/usbd_custom_hid_if.c ****   CUSTOM_HID_ReportDesc_FS,
 177:Src/usbd_custom_hid_if.c ****   CUSTOM_HID_Init_FS,
 178:Src/usbd_custom_hid_if.c ****   CUSTOM_HID_DeInit_FS,
 179:Src/usbd_custom_hid_if.c ****   CUSTOM_HID_OutEvent_FS
 180:Src/usbd_custom_hid_if.c **** };
 181:Src/usbd_custom_hid_if.c **** 
 182:Src/usbd_custom_hid_if.c **** /** @defgroup USBD_CUSTOM_HID_Private_Functions USBD_CUSTOM_HID_Private_Functions
 183:Src/usbd_custom_hid_if.c ****   * @brief Private functions.
 184:Src/usbd_custom_hid_if.c ****   * @{
 185:Src/usbd_custom_hid_if.c ****   */
 186:Src/usbd_custom_hid_if.c **** 
 187:Src/usbd_custom_hid_if.c **** /* Private functions ---------------------------------------------------------*/
 188:Src/usbd_custom_hid_if.c **** 
 189:Src/usbd_custom_hid_if.c **** /**
 190:Src/usbd_custom_hid_if.c ****   * @brief  Initializes the CUSTOM HID media low layer
 191:Src/usbd_custom_hid_if.c ****   * @retval USBD_OK if all operations are OK else USBD_FAIL
 192:Src/usbd_custom_hid_if.c ****   */
 193:Src/usbd_custom_hid_if.c **** static int8_t CUSTOM_HID_Init_FS(void)
 194:Src/usbd_custom_hid_if.c **** {
  27              		.loc 1 194 0
  28              		.cfi_startproc
  29              		@ args = 0, pretend = 0, frame = 0
  30              		@ frame_needed = 0, uses_anonymous_args = 0
  31              		@ link register save eliminated.
 195:Src/usbd_custom_hid_if.c ****   /* USER CODE BEGIN 4 */
 196:Src/usbd_custom_hid_if.c ****   return (USBD_OK);
 197:Src/usbd_custom_hid_if.c ****   /* USER CODE END 4 */
 198:Src/usbd_custom_hid_if.c **** }
ARM GAS  x:\temp2\ccQr1tek.s 			page 5


  32              		.loc 1 198 0
  33 0000 0020     		movs	r0, #0
  34 0002 7047     		bx	lr
  35              		.cfi_endproc
  36              	.LFE126:
  38              		.section	.text.CUSTOM_HID_DeInit_FS,"ax",%progbits
  39              		.align	1
  40              		.syntax unified
  41              		.thumb
  42              		.thumb_func
  43              		.fpu fpv4-sp-d16
  45              	CUSTOM_HID_DeInit_FS:
  46              	.LFB127:
 199:Src/usbd_custom_hid_if.c **** 
 200:Src/usbd_custom_hid_if.c **** /**
 201:Src/usbd_custom_hid_if.c ****   * @brief  DeInitializes the CUSTOM HID media low layer
 202:Src/usbd_custom_hid_if.c ****   * @retval USBD_OK if all operations are OK else USBD_FAIL
 203:Src/usbd_custom_hid_if.c ****   */
 204:Src/usbd_custom_hid_if.c **** static int8_t CUSTOM_HID_DeInit_FS(void)
 205:Src/usbd_custom_hid_if.c **** {
  47              		.loc 1 205 0
  48              		.cfi_startproc
  49              		@ args = 0, pretend = 0, frame = 0
  50              		@ frame_needed = 0, uses_anonymous_args = 0
  51              		@ link register save eliminated.
 206:Src/usbd_custom_hid_if.c ****   /* USER CODE BEGIN 5 */
 207:Src/usbd_custom_hid_if.c ****   return (USBD_OK);
 208:Src/usbd_custom_hid_if.c ****   /* USER CODE END 5 */
 209:Src/usbd_custom_hid_if.c **** }
  52              		.loc 1 209 0
  53 0000 0020     		movs	r0, #0
  54 0002 7047     		bx	lr
  55              		.cfi_endproc
  56              	.LFE127:
  58              		.section	.text.CUSTOM_HID_OutEvent_FS,"ax",%progbits
  59              		.align	1
  60              		.syntax unified
  61              		.thumb
  62              		.thumb_func
  63              		.fpu fpv4-sp-d16
  65              	CUSTOM_HID_OutEvent_FS:
  66              	.LFB128:
 210:Src/usbd_custom_hid_if.c **** 
 211:Src/usbd_custom_hid_if.c **** /**
 212:Src/usbd_custom_hid_if.c ****   * @brief  Manage the CUSTOM HID class events
 213:Src/usbd_custom_hid_if.c ****   * @param  event_idx: Event index
 214:Src/usbd_custom_hid_if.c ****   * @param  state: Event state
 215:Src/usbd_custom_hid_if.c ****   * @retval USBD_OK if all operations are OK else USBD_FAIL
 216:Src/usbd_custom_hid_if.c ****   */
 217:Src/usbd_custom_hid_if.c **** static int8_t CUSTOM_HID_OutEvent_FS(uint8_t event_idx, uint8_t state)
 218:Src/usbd_custom_hid_if.c **** {
  67              		.loc 1 218 0
  68              		.cfi_startproc
  69              		@ args = 0, pretend = 0, frame = 0
  70              		@ frame_needed = 0, uses_anonymous_args = 0
  71              		@ link register save eliminated.
  72              	.LVL0:
ARM GAS  x:\temp2\ccQr1tek.s 			page 6


 219:Src/usbd_custom_hid_if.c ****   /* USER CODE BEGIN 6 */
 220:Src/usbd_custom_hid_if.c ****   	USBD_CUSTOM_HID_HandleTypeDef     *hhid = (USBD_CUSTOM_HID_HandleTypeDef*)hUsbDeviceFS.pClassDat
  73              		.loc 1 220 0
  74 0000 084B     		ldr	r3, .L6
  75 0002 D3F81802 		ldr	r0, [r3, #536]
  76              	.LVL1:
  77              	.LBB2:
 221:Src/usbd_custom_hid_if.c **** 	
 222:Src/usbd_custom_hid_if.c **** 	for(uint8_t i=0;i<CUSTOM_HID_EPOUT_SIZE;i++){
  78              		.loc 1 222 0
  79 0006 0023     		movs	r3, #0
  80 0008 04E0     		b	.L4
  81              	.LVL2:
  82              	.L5:
 223:Src/usbd_custom_hid_if.c **** 		USB_RX_Buffer[i] =  hhid->Report_buf[i]; //To read user data from PC
  83              		.loc 1 223 0 discriminator 3
  84 000a C15C     		ldrb	r1, [r0, r3]	@ zero_extendqisi2
  85 000c 064A     		ldr	r2, .L6+4
  86 000e D154     		strb	r1, [r2, r3]
 222:Src/usbd_custom_hid_if.c **** 		USB_RX_Buffer[i] =  hhid->Report_buf[i]; //To read user data from PC
  87              		.loc 1 222 0 discriminator 3
  88 0010 0133     		adds	r3, r3, #1
  89              	.LVL3:
  90 0012 DBB2     		uxtb	r3, r3
  91              	.LVL4:
  92              	.L4:
 222:Src/usbd_custom_hid_if.c **** 		USB_RX_Buffer[i] =  hhid->Report_buf[i]; //To read user data from PC
  93              		.loc 1 222 0 is_stmt 0 discriminator 1
  94 0014 3F2B     		cmp	r3, #63
  95 0016 F8D9     		bls	.L5
  96              	.LBE2:
 224:Src/usbd_custom_hid_if.c **** 	}
 225:Src/usbd_custom_hid_if.c **** 	new_data_is_received = 1;	
  97              		.loc 1 225 0 is_stmt 1
  98 0018 044B     		ldr	r3, .L6+8
  99              	.LVL5:
 100 001a 0122     		movs	r2, #1
 101 001c 1A70     		strb	r2, [r3]
 226:Src/usbd_custom_hid_if.c **** 	
 227:Src/usbd_custom_hid_if.c **** 	return (USBD_OK);
 228:Src/usbd_custom_hid_if.c ****   /* USER CODE END 6 */
 229:Src/usbd_custom_hid_if.c **** }
 102              		.loc 1 229 0
 103 001e 0020     		movs	r0, #0
 104              	.LVL6:
 105 0020 7047     		bx	lr
 106              	.L7:
 107 0022 00BF     		.align	2
 108              	.L6:
 109 0024 00000000 		.word	hUsbDeviceFS
 110 0028 00000000 		.word	USB_RX_Buffer
 111 002c 00000000 		.word	new_data_is_received
 112              		.cfi_endproc
 113              	.LFE128:
 115              		.global	USBD_CustomHID_fops_FS
 116              		.section	.data.CUSTOM_HID_ReportDesc_FS,"aw",%progbits
 117              		.align	2
ARM GAS  x:\temp2\ccQr1tek.s 			page 7


 120              	CUSTOM_HID_ReportDesc_FS:
 121 0000 06       		.byte	6
 122 0001 00       		.byte	0
 123 0002 FF       		.byte	-1
 124 0003 09       		.byte	9
 125 0004 00       		.byte	0
 126 0005 A1       		.byte	-95
 127 0006 01       		.byte	1
 128 0007 75       		.byte	117
 129 0008 08       		.byte	8
 130 0009 95       		.byte	-107
 131 000a 40       		.byte	64
 132 000b 91       		.byte	-111
 133 000c 03       		.byte	3
 134 000d 75       		.byte	117
 135 000e 08       		.byte	8
 136 000f 95       		.byte	-107
 137 0010 08       		.byte	8
 138 0011 81       		.byte	-127
 139 0012 03       		.byte	3
 140 0013 C0       		.byte	-64
 141              		.section	.data.USBD_CustomHID_fops_FS,"aw",%progbits
 142              		.align	2
 145              	USBD_CustomHID_fops_FS:
 146 0000 00000000 		.word	CUSTOM_HID_ReportDesc_FS
 147 0004 00000000 		.word	CUSTOM_HID_Init_FS
 148 0008 00000000 		.word	CUSTOM_HID_DeInit_FS
 149 000c 00000000 		.word	CUSTOM_HID_OutEvent_FS
 150              		.text
 151              	.Letext0:
 152              		.file 2 "c:\\program files (x86)\\gnu tools arm embedded\\7 2017-q4-major\\arm-none-eabi\\include\
 153              		.file 3 "c:\\program files (x86)\\gnu tools arm embedded\\7 2017-q4-major\\arm-none-eabi\\include\
 154              		.file 4 "c:\\program files (x86)\\gnu tools arm embedded\\7 2017-q4-major\\arm-none-eabi\\include\
 155              		.file 5 "c:\\program files (x86)\\gnu tools arm embedded\\7 2017-q4-major\\lib\\gcc\\arm-none-eabi
 156              		.file 6 "c:\\program files (x86)\\gnu tools arm embedded\\7 2017-q4-major\\arm-none-eabi\\include\
 157              		.file 7 "c:\\program files (x86)\\gnu tools arm embedded\\7 2017-q4-major\\arm-none-eabi\\include\
 158              		.file 8 "c:\\program files (x86)\\gnu tools arm embedded\\7 2017-q4-major\\arm-none-eabi\\include\
 159              		.file 9 "Drivers/CMSIS/Include/core_cm4.h"
 160              		.file 10 "Drivers/CMSIS/Device/ST/STM32F4xx/Include/system_stm32f4xx.h"
 161              		.file 11 "Middlewares/ST/STM32_USB_Device_Library/Core/Inc/usbd_def.h"
 162              		.file 12 "Middlewares/ST/STM32_USB_Device_Library/Class/CustomHID/Inc/usbd_customhid.h"
 163              		.file 13 "Inc/usbd_custom_hid_if.h"
ARM GAS  x:\temp2\ccQr1tek.s 			page 8

