ARM GAS  x:\temp2\cc5TLMYe.s 			page 1


   1              		.cpu cortex-m4
   2              		.eabi_attribute 27, 1
   3              		.eabi_attribute 28, 1
   4              		.eabi_attribute 20, 1
   5              		.eabi_attribute 21, 1
   6              		.eabi_attribute 23, 3
   7              		.eabi_attribute 24, 1
   8              		.eabi_attribute 25, 1
   9              		.eabi_attribute 26, 1
  10              		.eabi_attribute 30, 1
  11              		.eabi_attribute 34, 1
  12              		.eabi_attribute 18, 4
  13              		.file	"usbd_desc.c"
  14              		.text
  15              	.Ltext0:
  16              		.cfi_sections	.debug_frame
  17              		.section	.text.USBD_FS_DeviceDescriptor,"ax",%progbits
  18              		.align	1
  19              		.global	USBD_FS_DeviceDescriptor
  20              		.syntax unified
  21              		.thumb
  22              		.thumb_func
  23              		.fpu fpv4-sp-d16
  25              	USBD_FS_DeviceDescriptor:
  26              	.LFB126:
  27              		.file 1 "Src/usbd_desc.c"
   1:Src/usbd_desc.c **** /**
   2:Src/usbd_desc.c ****   ******************************************************************************
   3:Src/usbd_desc.c ****   * @file           : usbd_desc.c
   4:Src/usbd_desc.c ****   * @version        : v1.0_Cube
   5:Src/usbd_desc.c ****   * @brief          : This file implements the USB device descriptors.
   6:Src/usbd_desc.c ****   ******************************************************************************
   7:Src/usbd_desc.c ****   * This notice applies to any and all portions of this file
   8:Src/usbd_desc.c ****   * that are not between comment pairs USER CODE BEGIN and
   9:Src/usbd_desc.c ****   * USER CODE END. Other portions of this file, whether 
  10:Src/usbd_desc.c ****   * inserted by the user or by software development tools
  11:Src/usbd_desc.c ****   * are owned by their respective copyright owners.
  12:Src/usbd_desc.c ****   *
  13:Src/usbd_desc.c ****   * Copyright (c) 2018 STMicroelectronics International N.V. 
  14:Src/usbd_desc.c ****   * All rights reserved.
  15:Src/usbd_desc.c ****   *
  16:Src/usbd_desc.c ****   * Redistribution and use in source and binary forms, with or without 
  17:Src/usbd_desc.c ****   * modification, are permitted, provided that the following conditions are met:
  18:Src/usbd_desc.c ****   *
  19:Src/usbd_desc.c ****   * 1. Redistribution of source code must retain the above copyright notice, 
  20:Src/usbd_desc.c ****   *    this list of conditions and the following disclaimer.
  21:Src/usbd_desc.c ****   * 2. Redistributions in binary form must reproduce the above copyright notice,
  22:Src/usbd_desc.c ****   *    this list of conditions and the following disclaimer in the documentation
  23:Src/usbd_desc.c ****   *    and/or other materials provided with the distribution.
  24:Src/usbd_desc.c ****   * 3. Neither the name of STMicroelectronics nor the names of other 
  25:Src/usbd_desc.c ****   *    contributors to this software may be used to endorse or promote products 
  26:Src/usbd_desc.c ****   *    derived from this software without specific written permission.
  27:Src/usbd_desc.c ****   * 4. This software, including modifications and/or derivative works of this 
  28:Src/usbd_desc.c ****   *    software, must execute solely and exclusively on microcontroller or
  29:Src/usbd_desc.c ****   *    microprocessor devices manufactured by or for STMicroelectronics.
  30:Src/usbd_desc.c ****   * 5. Redistribution and use of this software other than as permitted under 
  31:Src/usbd_desc.c ****   *    this license is void and will automatically terminate your rights under 
ARM GAS  x:\temp2\cc5TLMYe.s 			page 2


  32:Src/usbd_desc.c ****   *    this license. 
  33:Src/usbd_desc.c ****   *
  34:Src/usbd_desc.c ****   * THIS SOFTWARE IS PROVIDED BY STMICROELECTRONICS AND CONTRIBUTORS "AS IS" 
  35:Src/usbd_desc.c ****   * AND ANY EXPRESS, IMPLIED OR STATUTORY WARRANTIES, INCLUDING, BUT NOT 
  36:Src/usbd_desc.c ****   * LIMITED TO, THE IMPLIED WARRANTIES OF MERCHANTABILITY, FITNESS FOR A 
  37:Src/usbd_desc.c ****   * PARTICULAR PURPOSE AND NON-INFRINGEMENT OF THIRD PARTY INTELLECTUAL PROPERTY
  38:Src/usbd_desc.c ****   * RIGHTS ARE DISCLAIMED TO THE FULLEST EXTENT PERMITTED BY LAW. IN NO EVENT 
  39:Src/usbd_desc.c ****   * SHALL STMICROELECTRONICS OR CONTRIBUTORS BE LIABLE FOR ANY DIRECT, INDIRECT,
  40:Src/usbd_desc.c ****   * INCIDENTAL, SPECIAL, EXEMPLARY, OR CONSEQUENTIAL DAMAGES (INCLUDING, BUT NOT
  41:Src/usbd_desc.c ****   * LIMITED TO, PROCUREMENT OF SUBSTITUTE GOODS OR SERVICES; LOSS OF USE, DATA, 
  42:Src/usbd_desc.c ****   * OR PROFITS; OR BUSINESS INTERRUPTION) HOWEVER CAUSED AND ON ANY THEORY OF 
  43:Src/usbd_desc.c ****   * LIABILITY, WHETHER IN CONTRACT, STRICT LIABILITY, OR TORT (INCLUDING 
  44:Src/usbd_desc.c ****   * NEGLIGENCE OR OTHERWISE) ARISING IN ANY WAY OUT OF THE USE OF THIS SOFTWARE,
  45:Src/usbd_desc.c ****   * EVEN IF ADVISED OF THE POSSIBILITY OF SUCH DAMAGE.
  46:Src/usbd_desc.c ****   *
  47:Src/usbd_desc.c ****   ******************************************************************************
  48:Src/usbd_desc.c ****   */
  49:Src/usbd_desc.c **** 
  50:Src/usbd_desc.c **** /* Includes ------------------------------------------------------------------*/
  51:Src/usbd_desc.c **** #include "usbd_core.h"
  52:Src/usbd_desc.c **** #include "usbd_desc.h"
  53:Src/usbd_desc.c **** #include "usbd_conf.h"
  54:Src/usbd_desc.c **** 
  55:Src/usbd_desc.c **** /* USER CODE BEGIN INCLUDE */
  56:Src/usbd_desc.c **** 
  57:Src/usbd_desc.c **** /* USER CODE END INCLUDE */
  58:Src/usbd_desc.c **** 
  59:Src/usbd_desc.c **** /* Private typedef -----------------------------------------------------------*/
  60:Src/usbd_desc.c **** /* Private define ------------------------------------------------------------*/
  61:Src/usbd_desc.c **** /* Private macro -------------------------------------------------------------*/
  62:Src/usbd_desc.c **** 
  63:Src/usbd_desc.c **** /* USER CODE BEGIN PV */
  64:Src/usbd_desc.c **** /* Private variables ---------------------------------------------------------*/
  65:Src/usbd_desc.c **** 
  66:Src/usbd_desc.c **** /* USER CODE END PV */
  67:Src/usbd_desc.c **** 
  68:Src/usbd_desc.c **** /** @addtogroup STM32_USB_OTG_DEVICE_LIBRARY
  69:Src/usbd_desc.c ****   * @{
  70:Src/usbd_desc.c ****   */
  71:Src/usbd_desc.c **** 
  72:Src/usbd_desc.c **** /** @addtogroup USBD_DESC
  73:Src/usbd_desc.c ****   * @{
  74:Src/usbd_desc.c ****   */
  75:Src/usbd_desc.c **** 
  76:Src/usbd_desc.c **** /** @defgroup USBD_DESC_Private_TypesDefinitions USBD_DESC_Private_TypesDefinitions
  77:Src/usbd_desc.c ****   * @brief Private types.
  78:Src/usbd_desc.c ****   * @{
  79:Src/usbd_desc.c ****   */
  80:Src/usbd_desc.c **** 
  81:Src/usbd_desc.c **** /* USER CODE BEGIN PRIVATE_TYPES */
  82:Src/usbd_desc.c **** 
  83:Src/usbd_desc.c **** /* USER CODE END PRIVATE_TYPES */
  84:Src/usbd_desc.c **** 
  85:Src/usbd_desc.c **** /**
  86:Src/usbd_desc.c ****   * @}
  87:Src/usbd_desc.c ****   */
  88:Src/usbd_desc.c **** 
ARM GAS  x:\temp2\cc5TLMYe.s 			page 3


  89:Src/usbd_desc.c **** /** @defgroup USBD_DESC_Private_Defines USBD_DESC_Private_Defines
  90:Src/usbd_desc.c ****   * @brief Private defines.
  91:Src/usbd_desc.c ****   * @{
  92:Src/usbd_desc.c ****   */
  93:Src/usbd_desc.c **** 
  94:Src/usbd_desc.c **** #define USBD_VID     									4617   //1209 hex
  95:Src/usbd_desc.c **** #define USBD_LANGID_STRING     				1033
  96:Src/usbd_desc.c **** #define USBD_MANUFACTURER_STRING			"www.serasidis.gr"
  97:Src/usbd_desc.c **** #define USBD_PID_FS										48826  //BEBA hex
  98:Src/usbd_desc.c **** #define USBD_PRODUCT_STRING_FS				"STM32 HID bootloader"
  99:Src/usbd_desc.c **** #define USBD_SERIALNUMBER_STRING_FS		"1234567890"
 100:Src/usbd_desc.c **** #define USBD_CONFIGURATION_STRING_FS	"STM32 HID bootloader Config"
 101:Src/usbd_desc.c **** #define USBD_INTERFACE_STRING_FS			"STM32 HID bootloader Interface"
 102:Src/usbd_desc.c **** 
 103:Src/usbd_desc.c **** #define USB_SIZ_BOS_DESC            	0x0C
 104:Src/usbd_desc.c **** 
 105:Src/usbd_desc.c **** /* USER CODE BEGIN PRIVATE_DEFINES */
 106:Src/usbd_desc.c **** 
 107:Src/usbd_desc.c **** /* USER CODE END PRIVATE_DEFINES */
 108:Src/usbd_desc.c **** 
 109:Src/usbd_desc.c **** /**
 110:Src/usbd_desc.c ****   * @}
 111:Src/usbd_desc.c ****   */
 112:Src/usbd_desc.c **** 
 113:Src/usbd_desc.c **** /* USER CODE BEGIN 0 */
 114:Src/usbd_desc.c **** 
 115:Src/usbd_desc.c **** /* USER CODE END 0 */
 116:Src/usbd_desc.c **** 
 117:Src/usbd_desc.c **** /** @defgroup USBD_DESC_Private_Macros USBD_DESC_Private_Macros
 118:Src/usbd_desc.c ****   * @brief Private macros.
 119:Src/usbd_desc.c ****   * @{
 120:Src/usbd_desc.c ****   */
 121:Src/usbd_desc.c **** 
 122:Src/usbd_desc.c **** /* USER CODE BEGIN PRIVATE_MACRO */
 123:Src/usbd_desc.c **** 
 124:Src/usbd_desc.c **** /* USER CODE END PRIVATE_MACRO */
 125:Src/usbd_desc.c **** 
 126:Src/usbd_desc.c **** /**
 127:Src/usbd_desc.c ****   * @}
 128:Src/usbd_desc.c ****   */
 129:Src/usbd_desc.c **** 
 130:Src/usbd_desc.c **** /** @defgroup USBD_DESC_Private_FunctionPrototypes USBD_DESC_Private_FunctionPrototypes
 131:Src/usbd_desc.c ****   * @brief Private functions declaration.
 132:Src/usbd_desc.c ****   * @{
 133:Src/usbd_desc.c ****   */
 134:Src/usbd_desc.c **** 
 135:Src/usbd_desc.c **** uint8_t * USBD_FS_DeviceDescriptor(USBD_SpeedTypeDef speed, uint16_t *length);
 136:Src/usbd_desc.c **** uint8_t * USBD_FS_LangIDStrDescriptor(USBD_SpeedTypeDef speed, uint16_t *length);
 137:Src/usbd_desc.c **** uint8_t * USBD_FS_ManufacturerStrDescriptor(USBD_SpeedTypeDef speed, uint16_t *length);
 138:Src/usbd_desc.c **** uint8_t * USBD_FS_ProductStrDescriptor(USBD_SpeedTypeDef speed, uint16_t *length);
 139:Src/usbd_desc.c **** uint8_t * USBD_FS_SerialStrDescriptor(USBD_SpeedTypeDef speed, uint16_t *length);
 140:Src/usbd_desc.c **** uint8_t * USBD_FS_ConfigStrDescriptor(USBD_SpeedTypeDef speed, uint16_t *length);
 141:Src/usbd_desc.c **** uint8_t * USBD_FS_InterfaceStrDescriptor(USBD_SpeedTypeDef speed, uint16_t *length);
 142:Src/usbd_desc.c **** 
 143:Src/usbd_desc.c **** #ifdef USB_SUPPORT_USER_STRING_DESC
 144:Src/usbd_desc.c **** uint8_t * USBD_FS_USRStringDesc(USBD_SpeedTypeDef speed, uint8_t idx, uint16_t *length);
 145:Src/usbd_desc.c **** #endif /* USB_SUPPORT_USER_STRING_DESC */
ARM GAS  x:\temp2\cc5TLMYe.s 			page 4


 146:Src/usbd_desc.c **** 
 147:Src/usbd_desc.c **** #if (USBD_LPM_ENABLED == 1)
 148:Src/usbd_desc.c **** uint8_t * USBD_FS_USR_BOSDescriptor(USBD_SpeedTypeDef speed, uint16_t *length);
 149:Src/usbd_desc.c **** #endif /* (USBD_LPM_ENABLED == 1) */
 150:Src/usbd_desc.c **** 
 151:Src/usbd_desc.c **** /**
 152:Src/usbd_desc.c ****   * @}
 153:Src/usbd_desc.c ****   */
 154:Src/usbd_desc.c **** 
 155:Src/usbd_desc.c **** /** @defgroup USBD_DESC_Private_Variables USBD_DESC_Private_Variables
 156:Src/usbd_desc.c ****   * @brief Private variables.
 157:Src/usbd_desc.c ****   * @{
 158:Src/usbd_desc.c ****   */
 159:Src/usbd_desc.c **** 
 160:Src/usbd_desc.c **** USBD_DescriptorsTypeDef FS_Desc =
 161:Src/usbd_desc.c **** {
 162:Src/usbd_desc.c ****   USBD_FS_DeviceDescriptor
 163:Src/usbd_desc.c **** , USBD_FS_LangIDStrDescriptor
 164:Src/usbd_desc.c **** , USBD_FS_ManufacturerStrDescriptor
 165:Src/usbd_desc.c **** , USBD_FS_ProductStrDescriptor
 166:Src/usbd_desc.c **** , USBD_FS_SerialStrDescriptor
 167:Src/usbd_desc.c **** , USBD_FS_ConfigStrDescriptor
 168:Src/usbd_desc.c **** , USBD_FS_InterfaceStrDescriptor
 169:Src/usbd_desc.c **** #if (USBD_LPM_ENABLED == 1)
 170:Src/usbd_desc.c **** , USBD_FS_USR_BOSDescriptor
 171:Src/usbd_desc.c **** #endif /* (USBD_LPM_ENABLED == 1) */
 172:Src/usbd_desc.c **** };
 173:Src/usbd_desc.c **** 
 174:Src/usbd_desc.c **** #if defined ( __ICCARM__ ) /* IAR Compiler */
 175:Src/usbd_desc.c ****   #pragma data_alignment=4
 176:Src/usbd_desc.c **** #endif /* defined ( __ICCARM__ ) */
 177:Src/usbd_desc.c **** /** USB standard device descriptor. */
 178:Src/usbd_desc.c **** __ALIGN_BEGIN uint8_t USBD_FS_DeviceDesc[USB_LEN_DEV_DESC] __ALIGN_END =
 179:Src/usbd_desc.c **** {
 180:Src/usbd_desc.c ****   0x12,                       /*bLength */
 181:Src/usbd_desc.c ****   USB_DESC_TYPE_DEVICE,       /*bDescriptorType*/
 182:Src/usbd_desc.c **** #if (USBD_LPM_ENABLED == 1)
 183:Src/usbd_desc.c ****   0x01,                       /*bcdUSB */ /* changed to USB version 2.01
 184:Src/usbd_desc.c ****                                              in order to support LPM L1 suspend
 185:Src/usbd_desc.c ****                                              resume test of USBCV3.0*/
 186:Src/usbd_desc.c **** #else
 187:Src/usbd_desc.c ****   0x00,                       /*bcdUSB */
 188:Src/usbd_desc.c **** #endif /* (USBD_LPM_ENABLED == 1) */
 189:Src/usbd_desc.c ****   0x02,
 190:Src/usbd_desc.c ****   0x00,                       /*bDeviceClass*/
 191:Src/usbd_desc.c ****   0x00,                       /*bDeviceSubClass*/
 192:Src/usbd_desc.c ****   0x00,                       /*bDeviceProtocol*/
 193:Src/usbd_desc.c ****   USB_MAX_EP0_SIZE,           /*bMaxPacketSize*/
 194:Src/usbd_desc.c ****   LOBYTE(USBD_VID),           /*idVendor*/
 195:Src/usbd_desc.c ****   HIBYTE(USBD_VID),           /*idVendor*/
 196:Src/usbd_desc.c ****   LOBYTE(USBD_PID_FS),        /*idProduct*/
 197:Src/usbd_desc.c ****   HIBYTE(USBD_PID_FS),        /*idProduct*/
 198:Src/usbd_desc.c ****   0x00,                       /*bcdDevice rel. 2.00*/
 199:Src/usbd_desc.c ****   0x02,
 200:Src/usbd_desc.c ****   USBD_IDX_MFC_STR,           /*Index of manufacturer  string*/
 201:Src/usbd_desc.c ****   USBD_IDX_PRODUCT_STR,       /*Index of product string*/
 202:Src/usbd_desc.c ****   USBD_IDX_SERIAL_STR,        /*Index of serial number string*/
ARM GAS  x:\temp2\cc5TLMYe.s 			page 5


 203:Src/usbd_desc.c ****   USBD_MAX_NUM_CONFIGURATION  /*bNumConfigurations*/
 204:Src/usbd_desc.c **** };
 205:Src/usbd_desc.c **** 
 206:Src/usbd_desc.c **** /* USB_DeviceDescriptor */
 207:Src/usbd_desc.c **** /** BOS descriptor. */
 208:Src/usbd_desc.c **** #if (USBD_LPM_ENABLED == 1)
 209:Src/usbd_desc.c **** #if defined ( __ICCARM__ ) /* IAR Compiler */
 210:Src/usbd_desc.c ****   #pragma data_alignment=4
 211:Src/usbd_desc.c **** #endif /* defined ( __ICCARM__ ) */
 212:Src/usbd_desc.c **** __ALIGN_BEGIN uint8_t USBD_FS_BOSDesc[USB_SIZ_BOS_DESC] __ALIGN_END =
 213:Src/usbd_desc.c **** {
 214:Src/usbd_desc.c ****   0x5,
 215:Src/usbd_desc.c ****   USB_DESC_TYPE_BOS,
 216:Src/usbd_desc.c ****   0xC,
 217:Src/usbd_desc.c ****   0x0,
 218:Src/usbd_desc.c ****   0x1,  /* 1 device capability*/
 219:Src/usbd_desc.c ****         /* device capability*/
 220:Src/usbd_desc.c ****   0x7,
 221:Src/usbd_desc.c ****   USB_DEVICE_CAPABITY_TYPE,
 222:Src/usbd_desc.c ****   0x2,
 223:Src/usbd_desc.c ****   0x2,  /* LPM capability bit set*/
 224:Src/usbd_desc.c ****   0x0,
 225:Src/usbd_desc.c ****   0x0,
 226:Src/usbd_desc.c ****   0x0
 227:Src/usbd_desc.c **** };
 228:Src/usbd_desc.c **** #endif /* (USBD_LPM_ENABLED == 1) */
 229:Src/usbd_desc.c **** 
 230:Src/usbd_desc.c **** /**
 231:Src/usbd_desc.c ****   * @}
 232:Src/usbd_desc.c ****   */
 233:Src/usbd_desc.c **** 
 234:Src/usbd_desc.c **** /** @defgroup USBD_DESC_Private_Variables USBD_DESC_Private_Variables
 235:Src/usbd_desc.c ****   * @brief Private variables.
 236:Src/usbd_desc.c ****   * @{
 237:Src/usbd_desc.c ****   */
 238:Src/usbd_desc.c **** 
 239:Src/usbd_desc.c **** #if defined ( __ICCARM__ ) /* IAR Compiler */
 240:Src/usbd_desc.c ****   #pragma data_alignment=4
 241:Src/usbd_desc.c **** #endif /* defined ( __ICCARM__ ) */
 242:Src/usbd_desc.c **** 
 243:Src/usbd_desc.c **** /** USB lang indentifier descriptor. */
 244:Src/usbd_desc.c **** __ALIGN_BEGIN uint8_t USBD_LangIDDesc[USB_LEN_LANGID_STR_DESC] __ALIGN_END =
 245:Src/usbd_desc.c **** {
 246:Src/usbd_desc.c ****      USB_LEN_LANGID_STR_DESC,
 247:Src/usbd_desc.c ****      USB_DESC_TYPE_STRING,
 248:Src/usbd_desc.c ****      LOBYTE(USBD_LANGID_STRING),
 249:Src/usbd_desc.c ****      HIBYTE(USBD_LANGID_STRING)
 250:Src/usbd_desc.c **** };
 251:Src/usbd_desc.c **** 
 252:Src/usbd_desc.c **** #if defined ( __ICCARM__ ) /* IAR Compiler */
 253:Src/usbd_desc.c ****   #pragma data_alignment=4
 254:Src/usbd_desc.c **** #endif /* defined ( __ICCARM__ ) */
 255:Src/usbd_desc.c **** /* Internal string descriptor. */
 256:Src/usbd_desc.c **** __ALIGN_BEGIN uint8_t USBD_StrDesc[USBD_MAX_STR_DESC_SIZ] __ALIGN_END;
 257:Src/usbd_desc.c **** 
 258:Src/usbd_desc.c **** /**
 259:Src/usbd_desc.c ****   * @}
ARM GAS  x:\temp2\cc5TLMYe.s 			page 6


 260:Src/usbd_desc.c ****   */
 261:Src/usbd_desc.c **** 
 262:Src/usbd_desc.c **** /** @defgroup USBD_DESC_Private_Functions USBD_DESC_Private_Functions
 263:Src/usbd_desc.c ****   * @brief Private functions.
 264:Src/usbd_desc.c ****   * @{
 265:Src/usbd_desc.c ****   */
 266:Src/usbd_desc.c **** 
 267:Src/usbd_desc.c **** /**
 268:Src/usbd_desc.c ****   * @brief  Return the device descriptor
 269:Src/usbd_desc.c ****   * @param  speed : Current device speed
 270:Src/usbd_desc.c ****   * @param  length : Pointer to data length variable
 271:Src/usbd_desc.c ****   * @retval Pointer to descriptor buffer
 272:Src/usbd_desc.c ****   */
 273:Src/usbd_desc.c **** uint8_t * USBD_FS_DeviceDescriptor(USBD_SpeedTypeDef speed, uint16_t *length)
 274:Src/usbd_desc.c **** {
  28              		.loc 1 274 0
  29              		.cfi_startproc
  30              		@ args = 0, pretend = 0, frame = 0
  31              		@ frame_needed = 0, uses_anonymous_args = 0
  32              		@ link register save eliminated.
  33              	.LVL0:
 275:Src/usbd_desc.c ****   *length = sizeof(USBD_FS_DeviceDesc);
  34              		.loc 1 275 0
  35 0000 1223     		movs	r3, #18
  36 0002 0B80     		strh	r3, [r1]	@ movhi
 276:Src/usbd_desc.c ****   return USBD_FS_DeviceDesc;
 277:Src/usbd_desc.c **** }
  37              		.loc 1 277 0
  38 0004 0048     		ldr	r0, .L2
  39              	.LVL1:
  40 0006 7047     		bx	lr
  41              	.L3:
  42              		.align	2
  43              	.L2:
  44 0008 00000000 		.word	.LANCHOR0
  45              		.cfi_endproc
  46              	.LFE126:
  48              		.section	.text.USBD_FS_LangIDStrDescriptor,"ax",%progbits
  49              		.align	1
  50              		.global	USBD_FS_LangIDStrDescriptor
  51              		.syntax unified
  52              		.thumb
  53              		.thumb_func
  54              		.fpu fpv4-sp-d16
  56              	USBD_FS_LangIDStrDescriptor:
  57              	.LFB127:
 278:Src/usbd_desc.c **** 
 279:Src/usbd_desc.c **** /**
 280:Src/usbd_desc.c ****   * @brief  Return the LangID string descriptor
 281:Src/usbd_desc.c ****   * @param  speed : Current device speed
 282:Src/usbd_desc.c ****   * @param  length : Pointer to data length variable
 283:Src/usbd_desc.c ****   * @retval Pointer to descriptor buffer
 284:Src/usbd_desc.c ****   */
 285:Src/usbd_desc.c **** uint8_t * USBD_FS_LangIDStrDescriptor(USBD_SpeedTypeDef speed, uint16_t *length)
 286:Src/usbd_desc.c **** {
  58              		.loc 1 286 0
  59              		.cfi_startproc
ARM GAS  x:\temp2\cc5TLMYe.s 			page 7


  60              		@ args = 0, pretend = 0, frame = 0
  61              		@ frame_needed = 0, uses_anonymous_args = 0
  62              		@ link register save eliminated.
  63              	.LVL2:
 287:Src/usbd_desc.c ****   *length = sizeof(USBD_LangIDDesc);
  64              		.loc 1 287 0
  65 0000 0423     		movs	r3, #4
  66 0002 0B80     		strh	r3, [r1]	@ movhi
 288:Src/usbd_desc.c ****   return USBD_LangIDDesc;
 289:Src/usbd_desc.c **** }
  67              		.loc 1 289 0
  68 0004 0048     		ldr	r0, .L5
  69              	.LVL3:
  70 0006 7047     		bx	lr
  71              	.L6:
  72              		.align	2
  73              	.L5:
  74 0008 00000000 		.word	.LANCHOR1
  75              		.cfi_endproc
  76              	.LFE127:
  78              		.section	.text.USBD_FS_ProductStrDescriptor,"ax",%progbits
  79              		.align	1
  80              		.global	USBD_FS_ProductStrDescriptor
  81              		.syntax unified
  82              		.thumb
  83              		.thumb_func
  84              		.fpu fpv4-sp-d16
  86              	USBD_FS_ProductStrDescriptor:
  87              	.LFB128:
 290:Src/usbd_desc.c **** 
 291:Src/usbd_desc.c **** /**
 292:Src/usbd_desc.c ****   * @brief  Return the product string descriptor
 293:Src/usbd_desc.c ****   * @param  speed : Current device speed
 294:Src/usbd_desc.c ****   * @param  length : Pointer to data length variable
 295:Src/usbd_desc.c ****   * @retval Pointer to descriptor buffer
 296:Src/usbd_desc.c ****   */
 297:Src/usbd_desc.c **** uint8_t * USBD_FS_ProductStrDescriptor(USBD_SpeedTypeDef speed, uint16_t *length)
 298:Src/usbd_desc.c **** {
  88              		.loc 1 298 0
  89              		.cfi_startproc
  90              		@ args = 0, pretend = 0, frame = 0
  91              		@ frame_needed = 0, uses_anonymous_args = 0
  92              	.LVL4:
  93 0000 08B5     		push	{r3, lr}
  94              	.LCFI0:
  95              		.cfi_def_cfa_offset 8
  96              		.cfi_offset 3, -8
  97              		.cfi_offset 14, -4
  98 0002 0A46     		mov	r2, r1
 299:Src/usbd_desc.c ****   if(speed == 0)
  99              		.loc 1 299 0
 100 0004 28B1     		cbz	r0, .L11
 300:Src/usbd_desc.c ****   {
 301:Src/usbd_desc.c ****     USBD_GetString((uint8_t *)USBD_PRODUCT_STRING_FS, USBD_StrDesc, length);
 302:Src/usbd_desc.c ****   }
 303:Src/usbd_desc.c ****   else
 304:Src/usbd_desc.c ****   {
ARM GAS  x:\temp2\cc5TLMYe.s 			page 8


 305:Src/usbd_desc.c ****     USBD_GetString((uint8_t *)USBD_PRODUCT_STRING_FS, USBD_StrDesc, length);
 101              		.loc 1 305 0
 102 0006 0549     		ldr	r1, .L12
 103              	.LVL5:
 104 0008 0548     		ldr	r0, .L12+4
 105              	.LVL6:
 106 000a FFF7FEFF 		bl	USBD_GetString
 107              	.LVL7:
 108              	.L9:
 306:Src/usbd_desc.c ****   }
 307:Src/usbd_desc.c ****   return USBD_StrDesc;
 308:Src/usbd_desc.c **** }
 109              		.loc 1 308 0
 110 000e 0348     		ldr	r0, .L12
 111 0010 08BD     		pop	{r3, pc}
 112              	.LVL8:
 113              	.L11:
 301:Src/usbd_desc.c ****   }
 114              		.loc 1 301 0
 115 0012 0249     		ldr	r1, .L12
 116              	.LVL9:
 117 0014 0248     		ldr	r0, .L12+4
 118              	.LVL10:
 119 0016 FFF7FEFF 		bl	USBD_GetString
 120              	.LVL11:
 121 001a F8E7     		b	.L9
 122              	.L13:
 123              		.align	2
 124              	.L12:
 125 001c 00000000 		.word	USBD_StrDesc
 126 0020 00000000 		.word	.LC0
 127              		.cfi_endproc
 128              	.LFE128:
 130              		.section	.text.USBD_FS_ManufacturerStrDescriptor,"ax",%progbits
 131              		.align	1
 132              		.global	USBD_FS_ManufacturerStrDescriptor
 133              		.syntax unified
 134              		.thumb
 135              		.thumb_func
 136              		.fpu fpv4-sp-d16
 138              	USBD_FS_ManufacturerStrDescriptor:
 139              	.LFB129:
 309:Src/usbd_desc.c **** 
 310:Src/usbd_desc.c **** /**
 311:Src/usbd_desc.c ****   * @brief  Return the manufacturer string descriptor
 312:Src/usbd_desc.c ****   * @param  speed : Current device speed
 313:Src/usbd_desc.c ****   * @param  length : Pointer to data length variable
 314:Src/usbd_desc.c ****   * @retval Pointer to descriptor buffer
 315:Src/usbd_desc.c ****   */
 316:Src/usbd_desc.c **** uint8_t * USBD_FS_ManufacturerStrDescriptor(USBD_SpeedTypeDef speed, uint16_t *length)
 317:Src/usbd_desc.c **** {
 140              		.loc 1 317 0
 141              		.cfi_startproc
 142              		@ args = 0, pretend = 0, frame = 0
 143              		@ frame_needed = 0, uses_anonymous_args = 0
 144              	.LVL12:
 145 0000 10B5     		push	{r4, lr}
ARM GAS  x:\temp2\cc5TLMYe.s 			page 9


 146              	.LCFI1:
 147              		.cfi_def_cfa_offset 8
 148              		.cfi_offset 4, -8
 149              		.cfi_offset 14, -4
 318:Src/usbd_desc.c ****   USBD_GetString((uint8_t *)USBD_MANUFACTURER_STRING, USBD_StrDesc, length);
 150              		.loc 1 318 0
 151 0002 044C     		ldr	r4, .L16
 152 0004 0A46     		mov	r2, r1
 153 0006 2146     		mov	r1, r4
 154              	.LVL13:
 155 0008 0348     		ldr	r0, .L16+4
 156              	.LVL14:
 157 000a FFF7FEFF 		bl	USBD_GetString
 158              	.LVL15:
 319:Src/usbd_desc.c ****   return USBD_StrDesc;
 320:Src/usbd_desc.c **** }
 159              		.loc 1 320 0
 160 000e 2046     		mov	r0, r4
 161 0010 10BD     		pop	{r4, pc}
 162              	.L17:
 163 0012 00BF     		.align	2
 164              	.L16:
 165 0014 00000000 		.word	USBD_StrDesc
 166 0018 00000000 		.word	.LC1
 167              		.cfi_endproc
 168              	.LFE129:
 170              		.section	.text.USBD_FS_SerialStrDescriptor,"ax",%progbits
 171              		.align	1
 172              		.global	USBD_FS_SerialStrDescriptor
 173              		.syntax unified
 174              		.thumb
 175              		.thumb_func
 176              		.fpu fpv4-sp-d16
 178              	USBD_FS_SerialStrDescriptor:
 179              	.LFB130:
 321:Src/usbd_desc.c **** 
 322:Src/usbd_desc.c **** /**
 323:Src/usbd_desc.c ****   * @brief  Return the serial number string descriptor
 324:Src/usbd_desc.c ****   * @param  speed : Current device speed
 325:Src/usbd_desc.c ****   * @param  length : Pointer to data length variable
 326:Src/usbd_desc.c ****   * @retval Pointer to descriptor buffer
 327:Src/usbd_desc.c ****   */
 328:Src/usbd_desc.c **** uint8_t * USBD_FS_SerialStrDescriptor(USBD_SpeedTypeDef speed, uint16_t *length)
 329:Src/usbd_desc.c **** {
 180              		.loc 1 329 0
 181              		.cfi_startproc
 182              		@ args = 0, pretend = 0, frame = 0
 183              		@ frame_needed = 0, uses_anonymous_args = 0
 184              	.LVL16:
 185 0000 08B5     		push	{r3, lr}
 186              	.LCFI2:
 187              		.cfi_def_cfa_offset 8
 188              		.cfi_offset 3, -8
 189              		.cfi_offset 14, -4
 190 0002 0A46     		mov	r2, r1
 330:Src/usbd_desc.c ****   if(speed == USBD_SPEED_HIGH)
 191              		.loc 1 330 0
ARM GAS  x:\temp2\cc5TLMYe.s 			page 10


 192 0004 28B1     		cbz	r0, .L22
 331:Src/usbd_desc.c ****   {
 332:Src/usbd_desc.c ****     USBD_GetString((uint8_t *)USBD_SERIALNUMBER_STRING_FS, USBD_StrDesc, length);
 333:Src/usbd_desc.c ****   }
 334:Src/usbd_desc.c ****   else
 335:Src/usbd_desc.c ****   {
 336:Src/usbd_desc.c ****     USBD_GetString((uint8_t *)USBD_SERIALNUMBER_STRING_FS, USBD_StrDesc, length);
 193              		.loc 1 336 0
 194 0006 0549     		ldr	r1, .L23
 195              	.LVL17:
 196 0008 0548     		ldr	r0, .L23+4
 197              	.LVL18:
 198 000a FFF7FEFF 		bl	USBD_GetString
 199              	.LVL19:
 200              	.L20:
 337:Src/usbd_desc.c ****   }
 338:Src/usbd_desc.c ****   return USBD_StrDesc;
 339:Src/usbd_desc.c **** }
 201              		.loc 1 339 0
 202 000e 0348     		ldr	r0, .L23
 203 0010 08BD     		pop	{r3, pc}
 204              	.LVL20:
 205              	.L22:
 332:Src/usbd_desc.c ****   }
 206              		.loc 1 332 0
 207 0012 0249     		ldr	r1, .L23
 208              	.LVL21:
 209 0014 0248     		ldr	r0, .L23+4
 210              	.LVL22:
 211 0016 FFF7FEFF 		bl	USBD_GetString
 212              	.LVL23:
 213 001a F8E7     		b	.L20
 214              	.L24:
 215              		.align	2
 216              	.L23:
 217 001c 00000000 		.word	USBD_StrDesc
 218 0020 00000000 		.word	.LC2
 219              		.cfi_endproc
 220              	.LFE130:
 222              		.section	.text.USBD_FS_ConfigStrDescriptor,"ax",%progbits
 223              		.align	1
 224              		.global	USBD_FS_ConfigStrDescriptor
 225              		.syntax unified
 226              		.thumb
 227              		.thumb_func
 228              		.fpu fpv4-sp-d16
 230              	USBD_FS_ConfigStrDescriptor:
 231              	.LFB131:
 340:Src/usbd_desc.c **** 
 341:Src/usbd_desc.c **** /**
 342:Src/usbd_desc.c ****   * @brief  Return the configuration string descriptor
 343:Src/usbd_desc.c ****   * @param  speed : Current device speed
 344:Src/usbd_desc.c ****   * @param  length : Pointer to data length variable
 345:Src/usbd_desc.c ****   * @retval Pointer to descriptor buffer
 346:Src/usbd_desc.c ****   */
 347:Src/usbd_desc.c **** uint8_t * USBD_FS_ConfigStrDescriptor(USBD_SpeedTypeDef speed, uint16_t *length)
 348:Src/usbd_desc.c **** {
ARM GAS  x:\temp2\cc5TLMYe.s 			page 11


 232              		.loc 1 348 0
 233              		.cfi_startproc
 234              		@ args = 0, pretend = 0, frame = 0
 235              		@ frame_needed = 0, uses_anonymous_args = 0
 236              	.LVL24:
 237 0000 08B5     		push	{r3, lr}
 238              	.LCFI3:
 239              		.cfi_def_cfa_offset 8
 240              		.cfi_offset 3, -8
 241              		.cfi_offset 14, -4
 242 0002 0A46     		mov	r2, r1
 349:Src/usbd_desc.c ****   if(speed == USBD_SPEED_HIGH)
 243              		.loc 1 349 0
 244 0004 28B1     		cbz	r0, .L29
 350:Src/usbd_desc.c ****   {
 351:Src/usbd_desc.c ****     USBD_GetString((uint8_t *)USBD_CONFIGURATION_STRING_FS, USBD_StrDesc, length);
 352:Src/usbd_desc.c ****   }
 353:Src/usbd_desc.c ****   else
 354:Src/usbd_desc.c ****   {
 355:Src/usbd_desc.c ****     USBD_GetString((uint8_t *)USBD_CONFIGURATION_STRING_FS, USBD_StrDesc, length);
 245              		.loc 1 355 0
 246 0006 0549     		ldr	r1, .L30
 247              	.LVL25:
 248 0008 0548     		ldr	r0, .L30+4
 249              	.LVL26:
 250 000a FFF7FEFF 		bl	USBD_GetString
 251              	.LVL27:
 252              	.L27:
 356:Src/usbd_desc.c ****   }
 357:Src/usbd_desc.c ****   return USBD_StrDesc;
 358:Src/usbd_desc.c **** }
 253              		.loc 1 358 0
 254 000e 0348     		ldr	r0, .L30
 255 0010 08BD     		pop	{r3, pc}
 256              	.LVL28:
 257              	.L29:
 351:Src/usbd_desc.c ****   }
 258              		.loc 1 351 0
 259 0012 0249     		ldr	r1, .L30
 260              	.LVL29:
 261 0014 0248     		ldr	r0, .L30+4
 262              	.LVL30:
 263 0016 FFF7FEFF 		bl	USBD_GetString
 264              	.LVL31:
 265 001a F8E7     		b	.L27
 266              	.L31:
 267              		.align	2
 268              	.L30:
 269 001c 00000000 		.word	USBD_StrDesc
 270 0020 00000000 		.word	.LC3
 271              		.cfi_endproc
 272              	.LFE131:
 274              		.section	.text.USBD_FS_InterfaceStrDescriptor,"ax",%progbits
 275              		.align	1
 276              		.global	USBD_FS_InterfaceStrDescriptor
 277              		.syntax unified
 278              		.thumb
ARM GAS  x:\temp2\cc5TLMYe.s 			page 12


 279              		.thumb_func
 280              		.fpu fpv4-sp-d16
 282              	USBD_FS_InterfaceStrDescriptor:
 283              	.LFB132:
 359:Src/usbd_desc.c **** 
 360:Src/usbd_desc.c **** /**
 361:Src/usbd_desc.c ****   * @brief  Return the interface string descriptor
 362:Src/usbd_desc.c ****   * @param  speed : Current device speed
 363:Src/usbd_desc.c ****   * @param  length : Pointer to data length variable
 364:Src/usbd_desc.c ****   * @retval Pointer to descriptor buffer
 365:Src/usbd_desc.c ****   */
 366:Src/usbd_desc.c **** uint8_t * USBD_FS_InterfaceStrDescriptor(USBD_SpeedTypeDef speed, uint16_t *length)
 367:Src/usbd_desc.c **** {
 284              		.loc 1 367 0
 285              		.cfi_startproc
 286              		@ args = 0, pretend = 0, frame = 0
 287              		@ frame_needed = 0, uses_anonymous_args = 0
 288              	.LVL32:
 289 0000 08B5     		push	{r3, lr}
 290              	.LCFI4:
 291              		.cfi_def_cfa_offset 8
 292              		.cfi_offset 3, -8
 293              		.cfi_offset 14, -4
 294 0002 0A46     		mov	r2, r1
 368:Src/usbd_desc.c ****   if(speed == 0)
 295              		.loc 1 368 0
 296 0004 28B1     		cbz	r0, .L36
 369:Src/usbd_desc.c ****   {
 370:Src/usbd_desc.c ****     USBD_GetString((uint8_t *)USBD_INTERFACE_STRING_FS, USBD_StrDesc, length);
 371:Src/usbd_desc.c ****   }
 372:Src/usbd_desc.c ****   else
 373:Src/usbd_desc.c ****   {
 374:Src/usbd_desc.c ****     USBD_GetString((uint8_t *)USBD_INTERFACE_STRING_FS, USBD_StrDesc, length);
 297              		.loc 1 374 0
 298 0006 0549     		ldr	r1, .L37
 299              	.LVL33:
 300 0008 0548     		ldr	r0, .L37+4
 301              	.LVL34:
 302 000a FFF7FEFF 		bl	USBD_GetString
 303              	.LVL35:
 304              	.L34:
 375:Src/usbd_desc.c ****   }
 376:Src/usbd_desc.c ****   return USBD_StrDesc;
 377:Src/usbd_desc.c **** }
 305              		.loc 1 377 0
 306 000e 0348     		ldr	r0, .L37
 307 0010 08BD     		pop	{r3, pc}
 308              	.LVL36:
 309              	.L36:
 370:Src/usbd_desc.c ****   }
 310              		.loc 1 370 0
 311 0012 0249     		ldr	r1, .L37
 312              	.LVL37:
 313 0014 0248     		ldr	r0, .L37+4
 314              	.LVL38:
 315 0016 FFF7FEFF 		bl	USBD_GetString
 316              	.LVL39:
ARM GAS  x:\temp2\cc5TLMYe.s 			page 13


 317 001a F8E7     		b	.L34
 318              	.L38:
 319              		.align	2
 320              	.L37:
 321 001c 00000000 		.word	USBD_StrDesc
 322 0020 00000000 		.word	.LC4
 323              		.cfi_endproc
 324              	.LFE132:
 326              		.comm	USBD_StrDesc,512,4
 327              		.global	USBD_LangIDDesc
 328              		.global	USBD_FS_DeviceDesc
 329              		.global	FS_Desc
 330              		.section	.data.FS_Desc,"aw",%progbits
 331              		.align	2
 334              	FS_Desc:
 335 0000 00000000 		.word	USBD_FS_DeviceDescriptor
 336 0004 00000000 		.word	USBD_FS_LangIDStrDescriptor
 337 0008 00000000 		.word	USBD_FS_ManufacturerStrDescriptor
 338 000c 00000000 		.word	USBD_FS_ProductStrDescriptor
 339 0010 00000000 		.word	USBD_FS_SerialStrDescriptor
 340 0014 00000000 		.word	USBD_FS_ConfigStrDescriptor
 341 0018 00000000 		.word	USBD_FS_InterfaceStrDescriptor
 342              		.section	.data.USBD_FS_DeviceDesc,"aw",%progbits
 343              		.align	2
 344              		.set	.LANCHOR0,. + 0
 347              	USBD_FS_DeviceDesc:
 348 0000 12       		.byte	18
 349 0001 01       		.byte	1
 350 0002 00       		.byte	0
 351 0003 02       		.byte	2
 352 0004 00       		.byte	0
 353 0005 00       		.byte	0
 354 0006 00       		.byte	0
 355 0007 40       		.byte	64
 356 0008 09       		.byte	9
 357 0009 12       		.byte	18
 358 000a BA       		.byte	-70
 359 000b BE       		.byte	-66
 360 000c 00       		.byte	0
 361 000d 02       		.byte	2
 362 000e 01       		.byte	1
 363 000f 02       		.byte	2
 364 0010 03       		.byte	3
 365 0011 01       		.byte	1
 366              		.section	.data.USBD_LangIDDesc,"aw",%progbits
 367              		.align	2
 368              		.set	.LANCHOR1,. + 0
 371              	USBD_LangIDDesc:
 372 0000 04       		.byte	4
 373 0001 03       		.byte	3
 374 0002 09       		.byte	9
 375 0003 04       		.byte	4
 376              		.section	.rodata.USBD_FS_ConfigStrDescriptor.str1.4,"aMS",%progbits,1
 377              		.align	2
 378              	.LC3:
 379 0000 53544D33 		.ascii	"STM32 HID bootloader Config\000"
 379      32204849 
ARM GAS  x:\temp2\cc5TLMYe.s 			page 14


 379      4420626F 
 379      6F746C6F 
 379      61646572 
 380              		.section	.rodata.USBD_FS_InterfaceStrDescriptor.str1.4,"aMS",%progbits,1
 381              		.align	2
 382              	.LC4:
 383 0000 53544D33 		.ascii	"STM32 HID bootloader Interface\000"
 383      32204849 
 383      4420626F 
 383      6F746C6F 
 383      61646572 
 384              		.section	.rodata.USBD_FS_ManufacturerStrDescriptor.str1.4,"aMS",%progbits,1
 385              		.align	2
 386              	.LC1:
 387 0000 7777772E 		.ascii	"www.serasidis.gr\000"
 387      73657261 
 387      73696469 
 387      732E6772 
 387      00
 388              		.section	.rodata.USBD_FS_ProductStrDescriptor.str1.4,"aMS",%progbits,1
 389              		.align	2
 390              	.LC0:
 391 0000 53544D33 		.ascii	"STM32 HID bootloader\000"
 391      32204849 
 391      4420626F 
 391      6F746C6F 
 391      61646572 
 392              		.section	.rodata.USBD_FS_SerialStrDescriptor.str1.4,"aMS",%progbits,1
 393              		.align	2
 394              	.LC2:
 395 0000 31323334 		.ascii	"1234567890\000"
 395      35363738 
 395      393000
 396              		.text
 397              	.Letext0:
 398              		.file 2 "c:\\program files (x86)\\gnu tools arm embedded\\7 2017-q4-major\\arm-none-eabi\\include\
 399              		.file 3 "c:\\program files (x86)\\gnu tools arm embedded\\7 2017-q4-major\\arm-none-eabi\\include\
 400              		.file 4 "c:\\program files (x86)\\gnu tools arm embedded\\7 2017-q4-major\\arm-none-eabi\\include\
 401              		.file 5 "c:\\program files (x86)\\gnu tools arm embedded\\7 2017-q4-major\\lib\\gcc\\arm-none-eabi
 402              		.file 6 "c:\\program files (x86)\\gnu tools arm embedded\\7 2017-q4-major\\arm-none-eabi\\include\
 403              		.file 7 "c:\\program files (x86)\\gnu tools arm embedded\\7 2017-q4-major\\arm-none-eabi\\include\
 404              		.file 8 "c:\\program files (x86)\\gnu tools arm embedded\\7 2017-q4-major\\arm-none-eabi\\include\
 405              		.file 9 "Drivers/CMSIS/Include/core_cm4.h"
 406              		.file 10 "Drivers/CMSIS/Device/ST/STM32F4xx/Include/system_stm32f4xx.h"
 407              		.file 11 "Middlewares/ST/STM32_USB_Device_Library/Core/Inc/usbd_def.h"
 408              		.file 12 "Inc/usbd_desc.h"
 409              		.file 13 "Middlewares/ST/STM32_USB_Device_Library/Core/Inc/usbd_ctlreq.h"
ARM GAS  x:\temp2\cc5TLMYe.s 			page 15

