ARM GAS  x:\temp2\ccQ21sHb.s 			page 1


   1              		.cpu cortex-m4
   2              		.eabi_attribute 27, 1
   3              		.eabi_attribute 28, 1
   4              		.eabi_attribute 20, 1
   5              		.eabi_attribute 21, 1
   6              		.eabi_attribute 23, 3
   7              		.eabi_attribute 24, 1
   8              		.eabi_attribute 25, 1
   9              		.eabi_attribute 26, 1
  10              		.eabi_attribute 30, 1
  11              		.eabi_attribute 34, 1
  12              		.eabi_attribute 18, 4
  13              		.file	"usbd_customhid.c"
  14              		.text
  15              	.Ltext0:
  16              		.cfi_sections	.debug_frame
  17              		.section	.text.USBD_CUSTOM_HID_GetCfgDesc,"ax",%progbits
  18              		.align	1
  19              		.syntax unified
  20              		.thumb
  21              		.thumb_func
  22              		.fpu fpv4-sp-d16
  24              	USBD_CUSTOM_HID_GetCfgDesc:
  25              	.LFB130:
  26              		.file 1 "Middlewares/ST/STM32_USB_Device_Library/Class/CustomHID/Src/usbd_customhid.c"
   1:Middlewares/ST/STM32_USB_Device_Library/Class/CustomHID/Src/usbd_customhid.c **** /**
   2:Middlewares/ST/STM32_USB_Device_Library/Class/CustomHID/Src/usbd_customhid.c ****   ******************************************************************************
   3:Middlewares/ST/STM32_USB_Device_Library/Class/CustomHID/Src/usbd_customhid.c ****   * @file    usbd_customhid.c
   4:Middlewares/ST/STM32_USB_Device_Library/Class/CustomHID/Src/usbd_customhid.c ****   * @author  MCD Application Team
   5:Middlewares/ST/STM32_USB_Device_Library/Class/CustomHID/Src/usbd_customhid.c ****   * @version V2.4.2
   6:Middlewares/ST/STM32_USB_Device_Library/Class/CustomHID/Src/usbd_customhid.c ****   * @date    11-December-2015
   7:Middlewares/ST/STM32_USB_Device_Library/Class/CustomHID/Src/usbd_customhid.c ****   * @brief   This file provides the CUSTOM_HID core functions.
   8:Middlewares/ST/STM32_USB_Device_Library/Class/CustomHID/Src/usbd_customhid.c ****   *
   9:Middlewares/ST/STM32_USB_Device_Library/Class/CustomHID/Src/usbd_customhid.c ****   * @verbatim
  10:Middlewares/ST/STM32_USB_Device_Library/Class/CustomHID/Src/usbd_customhid.c ****   *      
  11:Middlewares/ST/STM32_USB_Device_Library/Class/CustomHID/Src/usbd_customhid.c ****   *          ===================================================================      
  12:Middlewares/ST/STM32_USB_Device_Library/Class/CustomHID/Src/usbd_customhid.c ****   *                                CUSTOM_HID Class  Description
  13:Middlewares/ST/STM32_USB_Device_Library/Class/CustomHID/Src/usbd_customhid.c ****   *          =================================================================== 
  14:Middlewares/ST/STM32_USB_Device_Library/Class/CustomHID/Src/usbd_customhid.c ****   *           This module manages the CUSTOM_HID class V1.11 following the "Device Class Definition
  15:Middlewares/ST/STM32_USB_Device_Library/Class/CustomHID/Src/usbd_customhid.c ****   *           for Human Interface Devices (CUSTOM_HID) Version 1.11 Jun 27, 2001".
  16:Middlewares/ST/STM32_USB_Device_Library/Class/CustomHID/Src/usbd_customhid.c ****   *           This driver implements the following aspects of the specification:
  17:Middlewares/ST/STM32_USB_Device_Library/Class/CustomHID/Src/usbd_customhid.c ****   *             - The Boot Interface Subclass
  18:Middlewares/ST/STM32_USB_Device_Library/Class/CustomHID/Src/usbd_customhid.c ****   *             - Usage Page : Generic Desktop
  19:Middlewares/ST/STM32_USB_Device_Library/Class/CustomHID/Src/usbd_customhid.c ****   *             - Usage : Vendor
  20:Middlewares/ST/STM32_USB_Device_Library/Class/CustomHID/Src/usbd_customhid.c ****   *             - Collection : Application 
  21:Middlewares/ST/STM32_USB_Device_Library/Class/CustomHID/Src/usbd_customhid.c ****   *      
  22:Middlewares/ST/STM32_USB_Device_Library/Class/CustomHID/Src/usbd_customhid.c ****   * @note     In HS mode and when the DMA is used, all variables and data structures
  23:Middlewares/ST/STM32_USB_Device_Library/Class/CustomHID/Src/usbd_customhid.c ****   *           dealing with the DMA during the transaction process should be 32-bit aligned.
  24:Middlewares/ST/STM32_USB_Device_Library/Class/CustomHID/Src/usbd_customhid.c ****   *           
  25:Middlewares/ST/STM32_USB_Device_Library/Class/CustomHID/Src/usbd_customhid.c ****   *      
  26:Middlewares/ST/STM32_USB_Device_Library/Class/CustomHID/Src/usbd_customhid.c ****   *  @endverbatim
  27:Middlewares/ST/STM32_USB_Device_Library/Class/CustomHID/Src/usbd_customhid.c ****   *
  28:Middlewares/ST/STM32_USB_Device_Library/Class/CustomHID/Src/usbd_customhid.c ****   ******************************************************************************
  29:Middlewares/ST/STM32_USB_Device_Library/Class/CustomHID/Src/usbd_customhid.c ****   * @attention
  30:Middlewares/ST/STM32_USB_Device_Library/Class/CustomHID/Src/usbd_customhid.c ****   *
  31:Middlewares/ST/STM32_USB_Device_Library/Class/CustomHID/Src/usbd_customhid.c ****   * <h2><center>&copy; COPYRIGHT 2015 STMicroelectronics</center></h2>
  32:Middlewares/ST/STM32_USB_Device_Library/Class/CustomHID/Src/usbd_customhid.c ****   *
ARM GAS  x:\temp2\ccQ21sHb.s 			page 2


  33:Middlewares/ST/STM32_USB_Device_Library/Class/CustomHID/Src/usbd_customhid.c ****   * Licensed under MCD-ST Liberty SW License Agreement V2, (the "License");
  34:Middlewares/ST/STM32_USB_Device_Library/Class/CustomHID/Src/usbd_customhid.c ****   * You may not use this file except in compliance with the License.
  35:Middlewares/ST/STM32_USB_Device_Library/Class/CustomHID/Src/usbd_customhid.c ****   * You may obtain a copy of the License at:
  36:Middlewares/ST/STM32_USB_Device_Library/Class/CustomHID/Src/usbd_customhid.c ****   *
  37:Middlewares/ST/STM32_USB_Device_Library/Class/CustomHID/Src/usbd_customhid.c ****   *        http://www.st.com/software_license_agreement_liberty_v2
  38:Middlewares/ST/STM32_USB_Device_Library/Class/CustomHID/Src/usbd_customhid.c ****   *
  39:Middlewares/ST/STM32_USB_Device_Library/Class/CustomHID/Src/usbd_customhid.c ****   * Unless required by applicable law or agreed to in writing, software 
  40:Middlewares/ST/STM32_USB_Device_Library/Class/CustomHID/Src/usbd_customhid.c ****   * distributed under the License is distributed on an "AS IS" BASIS, 
  41:Middlewares/ST/STM32_USB_Device_Library/Class/CustomHID/Src/usbd_customhid.c ****   * WITHOUT WARRANTIES OR CONDITIONS OF ANY KIND, either express or implied.
  42:Middlewares/ST/STM32_USB_Device_Library/Class/CustomHID/Src/usbd_customhid.c ****   * See the License for the specific language governing permissions and
  43:Middlewares/ST/STM32_USB_Device_Library/Class/CustomHID/Src/usbd_customhid.c ****   * limitations under the License.
  44:Middlewares/ST/STM32_USB_Device_Library/Class/CustomHID/Src/usbd_customhid.c ****   *
  45:Middlewares/ST/STM32_USB_Device_Library/Class/CustomHID/Src/usbd_customhid.c ****   ******************************************************************************
  46:Middlewares/ST/STM32_USB_Device_Library/Class/CustomHID/Src/usbd_customhid.c ****   */ 
  47:Middlewares/ST/STM32_USB_Device_Library/Class/CustomHID/Src/usbd_customhid.c **** 
  48:Middlewares/ST/STM32_USB_Device_Library/Class/CustomHID/Src/usbd_customhid.c **** /* Includes ------------------------------------------------------------------*/
  49:Middlewares/ST/STM32_USB_Device_Library/Class/CustomHID/Src/usbd_customhid.c **** #include "usbd_customhid.h"
  50:Middlewares/ST/STM32_USB_Device_Library/Class/CustomHID/Src/usbd_customhid.c **** #include "usbd_desc.h"
  51:Middlewares/ST/STM32_USB_Device_Library/Class/CustomHID/Src/usbd_customhid.c **** #include "usbd_ctlreq.h"
  52:Middlewares/ST/STM32_USB_Device_Library/Class/CustomHID/Src/usbd_customhid.c **** 
  53:Middlewares/ST/STM32_USB_Device_Library/Class/CustomHID/Src/usbd_customhid.c **** 
  54:Middlewares/ST/STM32_USB_Device_Library/Class/CustomHID/Src/usbd_customhid.c **** /** @addtogroup STM32_USB_DEVICE_LIBRARY
  55:Middlewares/ST/STM32_USB_Device_Library/Class/CustomHID/Src/usbd_customhid.c ****   * @{
  56:Middlewares/ST/STM32_USB_Device_Library/Class/CustomHID/Src/usbd_customhid.c ****   */
  57:Middlewares/ST/STM32_USB_Device_Library/Class/CustomHID/Src/usbd_customhid.c **** 
  58:Middlewares/ST/STM32_USB_Device_Library/Class/CustomHID/Src/usbd_customhid.c **** 
  59:Middlewares/ST/STM32_USB_Device_Library/Class/CustomHID/Src/usbd_customhid.c **** /** @defgroup USBD_CUSTOM_HID 
  60:Middlewares/ST/STM32_USB_Device_Library/Class/CustomHID/Src/usbd_customhid.c ****   * @brief usbd core module
  61:Middlewares/ST/STM32_USB_Device_Library/Class/CustomHID/Src/usbd_customhid.c ****   * @{
  62:Middlewares/ST/STM32_USB_Device_Library/Class/CustomHID/Src/usbd_customhid.c ****   */ 
  63:Middlewares/ST/STM32_USB_Device_Library/Class/CustomHID/Src/usbd_customhid.c **** 
  64:Middlewares/ST/STM32_USB_Device_Library/Class/CustomHID/Src/usbd_customhid.c **** /** @defgroup USBD_CUSTOM_HID_Private_TypesDefinitions
  65:Middlewares/ST/STM32_USB_Device_Library/Class/CustomHID/Src/usbd_customhid.c ****   * @{
  66:Middlewares/ST/STM32_USB_Device_Library/Class/CustomHID/Src/usbd_customhid.c ****   */ 
  67:Middlewares/ST/STM32_USB_Device_Library/Class/CustomHID/Src/usbd_customhid.c **** /**
  68:Middlewares/ST/STM32_USB_Device_Library/Class/CustomHID/Src/usbd_customhid.c ****   * @}
  69:Middlewares/ST/STM32_USB_Device_Library/Class/CustomHID/Src/usbd_customhid.c ****   */ 
  70:Middlewares/ST/STM32_USB_Device_Library/Class/CustomHID/Src/usbd_customhid.c **** 
  71:Middlewares/ST/STM32_USB_Device_Library/Class/CustomHID/Src/usbd_customhid.c **** 
  72:Middlewares/ST/STM32_USB_Device_Library/Class/CustomHID/Src/usbd_customhid.c **** /** @defgroup USBD_CUSTOM_HID_Private_Defines
  73:Middlewares/ST/STM32_USB_Device_Library/Class/CustomHID/Src/usbd_customhid.c ****   * @{
  74:Middlewares/ST/STM32_USB_Device_Library/Class/CustomHID/Src/usbd_customhid.c ****   */ 
  75:Middlewares/ST/STM32_USB_Device_Library/Class/CustomHID/Src/usbd_customhid.c **** 
  76:Middlewares/ST/STM32_USB_Device_Library/Class/CustomHID/Src/usbd_customhid.c **** /**
  77:Middlewares/ST/STM32_USB_Device_Library/Class/CustomHID/Src/usbd_customhid.c ****   * @}
  78:Middlewares/ST/STM32_USB_Device_Library/Class/CustomHID/Src/usbd_customhid.c ****   */ 
  79:Middlewares/ST/STM32_USB_Device_Library/Class/CustomHID/Src/usbd_customhid.c **** 
  80:Middlewares/ST/STM32_USB_Device_Library/Class/CustomHID/Src/usbd_customhid.c **** 
  81:Middlewares/ST/STM32_USB_Device_Library/Class/CustomHID/Src/usbd_customhid.c **** /** @defgroup USBD_CUSTOM_HID_Private_Macros
  82:Middlewares/ST/STM32_USB_Device_Library/Class/CustomHID/Src/usbd_customhid.c ****   * @{
  83:Middlewares/ST/STM32_USB_Device_Library/Class/CustomHID/Src/usbd_customhid.c ****   */ 
  84:Middlewares/ST/STM32_USB_Device_Library/Class/CustomHID/Src/usbd_customhid.c **** /**
  85:Middlewares/ST/STM32_USB_Device_Library/Class/CustomHID/Src/usbd_customhid.c ****   * @}
  86:Middlewares/ST/STM32_USB_Device_Library/Class/CustomHID/Src/usbd_customhid.c ****   */ 
  87:Middlewares/ST/STM32_USB_Device_Library/Class/CustomHID/Src/usbd_customhid.c **** /** @defgroup USBD_CUSTOM_HID_Private_FunctionPrototypes
  88:Middlewares/ST/STM32_USB_Device_Library/Class/CustomHID/Src/usbd_customhid.c ****   * @{
  89:Middlewares/ST/STM32_USB_Device_Library/Class/CustomHID/Src/usbd_customhid.c ****   */
ARM GAS  x:\temp2\ccQ21sHb.s 			page 3


  90:Middlewares/ST/STM32_USB_Device_Library/Class/CustomHID/Src/usbd_customhid.c **** 
  91:Middlewares/ST/STM32_USB_Device_Library/Class/CustomHID/Src/usbd_customhid.c **** 
  92:Middlewares/ST/STM32_USB_Device_Library/Class/CustomHID/Src/usbd_customhid.c **** static uint8_t  USBD_CUSTOM_HID_Init (USBD_HandleTypeDef *pdev, 
  93:Middlewares/ST/STM32_USB_Device_Library/Class/CustomHID/Src/usbd_customhid.c ****                                uint8_t cfgidx);
  94:Middlewares/ST/STM32_USB_Device_Library/Class/CustomHID/Src/usbd_customhid.c **** 
  95:Middlewares/ST/STM32_USB_Device_Library/Class/CustomHID/Src/usbd_customhid.c **** static uint8_t  USBD_CUSTOM_HID_DeInit (USBD_HandleTypeDef *pdev, 
  96:Middlewares/ST/STM32_USB_Device_Library/Class/CustomHID/Src/usbd_customhid.c ****                                  uint8_t cfgidx);
  97:Middlewares/ST/STM32_USB_Device_Library/Class/CustomHID/Src/usbd_customhid.c **** 
  98:Middlewares/ST/STM32_USB_Device_Library/Class/CustomHID/Src/usbd_customhid.c **** static uint8_t  USBD_CUSTOM_HID_Setup (USBD_HandleTypeDef *pdev, 
  99:Middlewares/ST/STM32_USB_Device_Library/Class/CustomHID/Src/usbd_customhid.c ****                                 USBD_SetupReqTypedef *req);
 100:Middlewares/ST/STM32_USB_Device_Library/Class/CustomHID/Src/usbd_customhid.c **** 
 101:Middlewares/ST/STM32_USB_Device_Library/Class/CustomHID/Src/usbd_customhid.c **** static uint8_t  *USBD_CUSTOM_HID_GetCfgDesc (uint16_t *length);
 102:Middlewares/ST/STM32_USB_Device_Library/Class/CustomHID/Src/usbd_customhid.c **** 
 103:Middlewares/ST/STM32_USB_Device_Library/Class/CustomHID/Src/usbd_customhid.c **** static uint8_t  *USBD_CUSTOM_HID_GetDeviceQualifierDesc (uint16_t *length);
 104:Middlewares/ST/STM32_USB_Device_Library/Class/CustomHID/Src/usbd_customhid.c **** 
 105:Middlewares/ST/STM32_USB_Device_Library/Class/CustomHID/Src/usbd_customhid.c **** static uint8_t  USBD_CUSTOM_HID_DataIn (USBD_HandleTypeDef *pdev, uint8_t epnum);
 106:Middlewares/ST/STM32_USB_Device_Library/Class/CustomHID/Src/usbd_customhid.c **** 
 107:Middlewares/ST/STM32_USB_Device_Library/Class/CustomHID/Src/usbd_customhid.c **** static uint8_t  USBD_CUSTOM_HID_DataOut (USBD_HandleTypeDef *pdev, uint8_t epnum);
 108:Middlewares/ST/STM32_USB_Device_Library/Class/CustomHID/Src/usbd_customhid.c **** static uint8_t  USBD_CUSTOM_HID_EP0_RxReady (USBD_HandleTypeDef  *pdev);
 109:Middlewares/ST/STM32_USB_Device_Library/Class/CustomHID/Src/usbd_customhid.c **** /**
 110:Middlewares/ST/STM32_USB_Device_Library/Class/CustomHID/Src/usbd_customhid.c ****   * @}
 111:Middlewares/ST/STM32_USB_Device_Library/Class/CustomHID/Src/usbd_customhid.c ****   */ 
 112:Middlewares/ST/STM32_USB_Device_Library/Class/CustomHID/Src/usbd_customhid.c **** 
 113:Middlewares/ST/STM32_USB_Device_Library/Class/CustomHID/Src/usbd_customhid.c **** /** @defgroup USBD_CUSTOM_HID_Private_Variables
 114:Middlewares/ST/STM32_USB_Device_Library/Class/CustomHID/Src/usbd_customhid.c ****   * @{
 115:Middlewares/ST/STM32_USB_Device_Library/Class/CustomHID/Src/usbd_customhid.c ****   */ 
 116:Middlewares/ST/STM32_USB_Device_Library/Class/CustomHID/Src/usbd_customhid.c **** 
 117:Middlewares/ST/STM32_USB_Device_Library/Class/CustomHID/Src/usbd_customhid.c **** USBD_ClassTypeDef  USBD_CUSTOM_HID = 
 118:Middlewares/ST/STM32_USB_Device_Library/Class/CustomHID/Src/usbd_customhid.c **** {
 119:Middlewares/ST/STM32_USB_Device_Library/Class/CustomHID/Src/usbd_customhid.c ****   USBD_CUSTOM_HID_Init,
 120:Middlewares/ST/STM32_USB_Device_Library/Class/CustomHID/Src/usbd_customhid.c ****   USBD_CUSTOM_HID_DeInit,
 121:Middlewares/ST/STM32_USB_Device_Library/Class/CustomHID/Src/usbd_customhid.c ****   USBD_CUSTOM_HID_Setup,
 122:Middlewares/ST/STM32_USB_Device_Library/Class/CustomHID/Src/usbd_customhid.c ****   NULL, /*EP0_TxSent*/  
 123:Middlewares/ST/STM32_USB_Device_Library/Class/CustomHID/Src/usbd_customhid.c ****   USBD_CUSTOM_HID_EP0_RxReady, /*EP0_RxReady*/ /* STATUS STAGE IN */
 124:Middlewares/ST/STM32_USB_Device_Library/Class/CustomHID/Src/usbd_customhid.c ****   USBD_CUSTOM_HID_DataIn, /*DataIn*/
 125:Middlewares/ST/STM32_USB_Device_Library/Class/CustomHID/Src/usbd_customhid.c ****   USBD_CUSTOM_HID_DataOut,
 126:Middlewares/ST/STM32_USB_Device_Library/Class/CustomHID/Src/usbd_customhid.c ****   NULL, /*SOF */
 127:Middlewares/ST/STM32_USB_Device_Library/Class/CustomHID/Src/usbd_customhid.c ****   NULL,
 128:Middlewares/ST/STM32_USB_Device_Library/Class/CustomHID/Src/usbd_customhid.c ****   NULL,      
 129:Middlewares/ST/STM32_USB_Device_Library/Class/CustomHID/Src/usbd_customhid.c ****   USBD_CUSTOM_HID_GetCfgDesc,
 130:Middlewares/ST/STM32_USB_Device_Library/Class/CustomHID/Src/usbd_customhid.c ****   USBD_CUSTOM_HID_GetCfgDesc, 
 131:Middlewares/ST/STM32_USB_Device_Library/Class/CustomHID/Src/usbd_customhid.c ****   USBD_CUSTOM_HID_GetCfgDesc,
 132:Middlewares/ST/STM32_USB_Device_Library/Class/CustomHID/Src/usbd_customhid.c ****   USBD_CUSTOM_HID_GetDeviceQualifierDesc,
 133:Middlewares/ST/STM32_USB_Device_Library/Class/CustomHID/Src/usbd_customhid.c **** };
 134:Middlewares/ST/STM32_USB_Device_Library/Class/CustomHID/Src/usbd_customhid.c **** 
 135:Middlewares/ST/STM32_USB_Device_Library/Class/CustomHID/Src/usbd_customhid.c **** /* USB CUSTOM_HID device Configuration Descriptor */
 136:Middlewares/ST/STM32_USB_Device_Library/Class/CustomHID/Src/usbd_customhid.c **** __ALIGN_BEGIN static uint8_t USBD_CUSTOM_HID_CfgDesc[USB_CUSTOM_HID_CONFIG_DESC_SIZ] __ALIGN_END =
 137:Middlewares/ST/STM32_USB_Device_Library/Class/CustomHID/Src/usbd_customhid.c **** {
 138:Middlewares/ST/STM32_USB_Device_Library/Class/CustomHID/Src/usbd_customhid.c ****   0x09, /* bLength: Configuration Descriptor size */
 139:Middlewares/ST/STM32_USB_Device_Library/Class/CustomHID/Src/usbd_customhid.c ****   USB_DESC_TYPE_CONFIGURATION, /* bDescriptorType: Configuration */
 140:Middlewares/ST/STM32_USB_Device_Library/Class/CustomHID/Src/usbd_customhid.c ****   USB_CUSTOM_HID_CONFIG_DESC_SIZ,
 141:Middlewares/ST/STM32_USB_Device_Library/Class/CustomHID/Src/usbd_customhid.c ****   /* wTotalLength: Bytes returned */
 142:Middlewares/ST/STM32_USB_Device_Library/Class/CustomHID/Src/usbd_customhid.c ****   0x00,
 143:Middlewares/ST/STM32_USB_Device_Library/Class/CustomHID/Src/usbd_customhid.c ****   0x01,         /*bNumInterfaces: 1 interface*/
 144:Middlewares/ST/STM32_USB_Device_Library/Class/CustomHID/Src/usbd_customhid.c ****   0x01,         /*bConfigurationValue: Configuration value*/
 145:Middlewares/ST/STM32_USB_Device_Library/Class/CustomHID/Src/usbd_customhid.c ****   0x00,         /*iConfiguration: Index of string descriptor describing
 146:Middlewares/ST/STM32_USB_Device_Library/Class/CustomHID/Src/usbd_customhid.c ****   the configuration*/
ARM GAS  x:\temp2\ccQ21sHb.s 			page 4


 147:Middlewares/ST/STM32_USB_Device_Library/Class/CustomHID/Src/usbd_customhid.c ****   0xC0,         /*bmAttributes: bus powered */
 148:Middlewares/ST/STM32_USB_Device_Library/Class/CustomHID/Src/usbd_customhid.c ****   0x32,         /*MaxPower 100 mA: this current is used for detecting Vbus*/
 149:Middlewares/ST/STM32_USB_Device_Library/Class/CustomHID/Src/usbd_customhid.c ****   
 150:Middlewares/ST/STM32_USB_Device_Library/Class/CustomHID/Src/usbd_customhid.c ****   /************** Descriptor of CUSTOM HID interface ****************/
 151:Middlewares/ST/STM32_USB_Device_Library/Class/CustomHID/Src/usbd_customhid.c ****   /* 09 */
 152:Middlewares/ST/STM32_USB_Device_Library/Class/CustomHID/Src/usbd_customhid.c ****   0x09,         /*bLength: Interface Descriptor size*/
 153:Middlewares/ST/STM32_USB_Device_Library/Class/CustomHID/Src/usbd_customhid.c ****   USB_DESC_TYPE_INTERFACE,/*bDescriptorType: Interface descriptor type*/
 154:Middlewares/ST/STM32_USB_Device_Library/Class/CustomHID/Src/usbd_customhid.c ****   0x00,         /*bInterfaceNumber: Number of Interface*/
 155:Middlewares/ST/STM32_USB_Device_Library/Class/CustomHID/Src/usbd_customhid.c ****   0x00,         /*bAlternateSetting: Alternate setting*/
 156:Middlewares/ST/STM32_USB_Device_Library/Class/CustomHID/Src/usbd_customhid.c ****   0x02,         /*bNumEndpoints*/
 157:Middlewares/ST/STM32_USB_Device_Library/Class/CustomHID/Src/usbd_customhid.c ****   0x03,         /*bInterfaceClass: CUSTOM_HID*/
 158:Middlewares/ST/STM32_USB_Device_Library/Class/CustomHID/Src/usbd_customhid.c ****   0x00,         /*bInterfaceSubClass : 1=BOOT, 0=no boot*/
 159:Middlewares/ST/STM32_USB_Device_Library/Class/CustomHID/Src/usbd_customhid.c ****   0x00,         /*nInterfaceProtocol : 0=none, 1=keyboard, 2=mouse*/
 160:Middlewares/ST/STM32_USB_Device_Library/Class/CustomHID/Src/usbd_customhid.c ****   0,            /*iInterface: Index of string descriptor*/
 161:Middlewares/ST/STM32_USB_Device_Library/Class/CustomHID/Src/usbd_customhid.c ****   /******************** Descriptor of CUSTOM_HID *************************/
 162:Middlewares/ST/STM32_USB_Device_Library/Class/CustomHID/Src/usbd_customhid.c ****   /* 18 */
 163:Middlewares/ST/STM32_USB_Device_Library/Class/CustomHID/Src/usbd_customhid.c ****   0x09,         /*bLength: CUSTOM_HID Descriptor size*/
 164:Middlewares/ST/STM32_USB_Device_Library/Class/CustomHID/Src/usbd_customhid.c ****   CUSTOM_HID_DESCRIPTOR_TYPE, /*bDescriptorType: CUSTOM_HID*/
 165:Middlewares/ST/STM32_USB_Device_Library/Class/CustomHID/Src/usbd_customhid.c ****   0x11,         /*bCUSTOM_HIDUSTOM_HID: CUSTOM_HID Class Spec release number*/
 166:Middlewares/ST/STM32_USB_Device_Library/Class/CustomHID/Src/usbd_customhid.c ****   0x01,
 167:Middlewares/ST/STM32_USB_Device_Library/Class/CustomHID/Src/usbd_customhid.c ****   0x00,         /*bCountryCode: Hardware target country*/
 168:Middlewares/ST/STM32_USB_Device_Library/Class/CustomHID/Src/usbd_customhid.c ****   0x01,         /*bNumDescriptors: Number of CUSTOM_HID class descriptors to follow*/
 169:Middlewares/ST/STM32_USB_Device_Library/Class/CustomHID/Src/usbd_customhid.c ****   0x22,         /*bDescriptorType*/
 170:Middlewares/ST/STM32_USB_Device_Library/Class/CustomHID/Src/usbd_customhid.c ****   USBD_CUSTOM_HID_REPORT_DESC_SIZE,/*wItemLength: Total length of Report descriptor*/
 171:Middlewares/ST/STM32_USB_Device_Library/Class/CustomHID/Src/usbd_customhid.c ****   0x00,
 172:Middlewares/ST/STM32_USB_Device_Library/Class/CustomHID/Src/usbd_customhid.c ****   /******************** Descriptor of Custom HID endpoints ********************/
 173:Middlewares/ST/STM32_USB_Device_Library/Class/CustomHID/Src/usbd_customhid.c ****   /* 27 */
 174:Middlewares/ST/STM32_USB_Device_Library/Class/CustomHID/Src/usbd_customhid.c ****   0x07,          /*bLength: Endpoint Descriptor size*/
 175:Middlewares/ST/STM32_USB_Device_Library/Class/CustomHID/Src/usbd_customhid.c ****   USB_DESC_TYPE_ENDPOINT, /*bDescriptorType:*/
 176:Middlewares/ST/STM32_USB_Device_Library/Class/CustomHID/Src/usbd_customhid.c ****   
 177:Middlewares/ST/STM32_USB_Device_Library/Class/CustomHID/Src/usbd_customhid.c ****   CUSTOM_HID_EPIN_ADDR,     /*bEndpointAddress: Endpoint Address (IN)*/
 178:Middlewares/ST/STM32_USB_Device_Library/Class/CustomHID/Src/usbd_customhid.c ****   USBD_EP_TYPE_INTR,          /*bmAttributes: Interrupt endpoint*/
 179:Middlewares/ST/STM32_USB_Device_Library/Class/CustomHID/Src/usbd_customhid.c ****   CUSTOM_HID_EPIN_SIZE, /*wMaxPacketSize: 2 Byte max */
 180:Middlewares/ST/STM32_USB_Device_Library/Class/CustomHID/Src/usbd_customhid.c ****   0x00,
 181:Middlewares/ST/STM32_USB_Device_Library/Class/CustomHID/Src/usbd_customhid.c ****   0x20,          /*bInterval: Polling Interval (20 ms)*/
 182:Middlewares/ST/STM32_USB_Device_Library/Class/CustomHID/Src/usbd_customhid.c ****   /* 34 */
 183:Middlewares/ST/STM32_USB_Device_Library/Class/CustomHID/Src/usbd_customhid.c ****   
 184:Middlewares/ST/STM32_USB_Device_Library/Class/CustomHID/Src/usbd_customhid.c ****   0x07,	         /* bLength: Endpoint Descriptor size */
 185:Middlewares/ST/STM32_USB_Device_Library/Class/CustomHID/Src/usbd_customhid.c ****   USB_DESC_TYPE_ENDPOINT,	/* bDescriptorType: */
 186:Middlewares/ST/STM32_USB_Device_Library/Class/CustomHID/Src/usbd_customhid.c ****   CUSTOM_HID_EPOUT_ADDR,  /*bEndpointAddress: Endpoint Address (OUT)*/
 187:Middlewares/ST/STM32_USB_Device_Library/Class/CustomHID/Src/usbd_customhid.c ****   USBD_EP_TYPE_ISOC,	/* bmAttributes: Interrupt endpoint */
 188:Middlewares/ST/STM32_USB_Device_Library/Class/CustomHID/Src/usbd_customhid.c ****   CUSTOM_HID_EPOUT_SIZE,	/* wMaxPacketSize: 2 Bytes max  */
 189:Middlewares/ST/STM32_USB_Device_Library/Class/CustomHID/Src/usbd_customhid.c ****   0x00,
 190:Middlewares/ST/STM32_USB_Device_Library/Class/CustomHID/Src/usbd_customhid.c ****   0x20,	/* bInterval: Polling Interval (20 ms) */
 191:Middlewares/ST/STM32_USB_Device_Library/Class/CustomHID/Src/usbd_customhid.c ****   /* 41 */
 192:Middlewares/ST/STM32_USB_Device_Library/Class/CustomHID/Src/usbd_customhid.c **** } ;
 193:Middlewares/ST/STM32_USB_Device_Library/Class/CustomHID/Src/usbd_customhid.c **** 
 194:Middlewares/ST/STM32_USB_Device_Library/Class/CustomHID/Src/usbd_customhid.c **** /* USB CUSTOM_HID device Configuration Descriptor */
 195:Middlewares/ST/STM32_USB_Device_Library/Class/CustomHID/Src/usbd_customhid.c **** __ALIGN_BEGIN static uint8_t USBD_CUSTOM_HID_Desc[USB_CUSTOM_HID_DESC_SIZ] __ALIGN_END =
 196:Middlewares/ST/STM32_USB_Device_Library/Class/CustomHID/Src/usbd_customhid.c **** {
 197:Middlewares/ST/STM32_USB_Device_Library/Class/CustomHID/Src/usbd_customhid.c ****   /* 18 */
 198:Middlewares/ST/STM32_USB_Device_Library/Class/CustomHID/Src/usbd_customhid.c ****   0x09,         /*bLength: CUSTOM_HID Descriptor size*/
 199:Middlewares/ST/STM32_USB_Device_Library/Class/CustomHID/Src/usbd_customhid.c ****   CUSTOM_HID_DESCRIPTOR_TYPE, /*bDescriptorType: CUSTOM_HID*/
 200:Middlewares/ST/STM32_USB_Device_Library/Class/CustomHID/Src/usbd_customhid.c ****   0x11,         /*bCUSTOM_HIDUSTOM_HID: CUSTOM_HID Class Spec release number*/
 201:Middlewares/ST/STM32_USB_Device_Library/Class/CustomHID/Src/usbd_customhid.c ****   0x01,
 202:Middlewares/ST/STM32_USB_Device_Library/Class/CustomHID/Src/usbd_customhid.c ****   0x00,         /*bCountryCode: Hardware target country*/
 203:Middlewares/ST/STM32_USB_Device_Library/Class/CustomHID/Src/usbd_customhid.c ****   0x01,         /*bNumDescriptors: Number of CUSTOM_HID class descriptors to follow*/
ARM GAS  x:\temp2\ccQ21sHb.s 			page 5


 204:Middlewares/ST/STM32_USB_Device_Library/Class/CustomHID/Src/usbd_customhid.c ****   0x22,         /*bDescriptorType*/
 205:Middlewares/ST/STM32_USB_Device_Library/Class/CustomHID/Src/usbd_customhid.c ****   USBD_CUSTOM_HID_REPORT_DESC_SIZE,/*wItemLength: Total length of Report descriptor*/
 206:Middlewares/ST/STM32_USB_Device_Library/Class/CustomHID/Src/usbd_customhid.c ****   0x00,
 207:Middlewares/ST/STM32_USB_Device_Library/Class/CustomHID/Src/usbd_customhid.c **** };
 208:Middlewares/ST/STM32_USB_Device_Library/Class/CustomHID/Src/usbd_customhid.c **** 
 209:Middlewares/ST/STM32_USB_Device_Library/Class/CustomHID/Src/usbd_customhid.c **** /* USB Standard Device Descriptor */
 210:Middlewares/ST/STM32_USB_Device_Library/Class/CustomHID/Src/usbd_customhid.c **** __ALIGN_BEGIN static uint8_t USBD_CUSTOM_HID_DeviceQualifierDesc[USB_LEN_DEV_QUALIFIER_DESC] __ALIG
 211:Middlewares/ST/STM32_USB_Device_Library/Class/CustomHID/Src/usbd_customhid.c **** {
 212:Middlewares/ST/STM32_USB_Device_Library/Class/CustomHID/Src/usbd_customhid.c ****   USB_LEN_DEV_QUALIFIER_DESC,
 213:Middlewares/ST/STM32_USB_Device_Library/Class/CustomHID/Src/usbd_customhid.c ****   USB_DESC_TYPE_DEVICE_QUALIFIER,
 214:Middlewares/ST/STM32_USB_Device_Library/Class/CustomHID/Src/usbd_customhid.c ****   0x00,
 215:Middlewares/ST/STM32_USB_Device_Library/Class/CustomHID/Src/usbd_customhid.c ****   0x02,
 216:Middlewares/ST/STM32_USB_Device_Library/Class/CustomHID/Src/usbd_customhid.c ****   0x00,
 217:Middlewares/ST/STM32_USB_Device_Library/Class/CustomHID/Src/usbd_customhid.c ****   0x00,
 218:Middlewares/ST/STM32_USB_Device_Library/Class/CustomHID/Src/usbd_customhid.c ****   0x00,
 219:Middlewares/ST/STM32_USB_Device_Library/Class/CustomHID/Src/usbd_customhid.c ****   0x40,
 220:Middlewares/ST/STM32_USB_Device_Library/Class/CustomHID/Src/usbd_customhid.c ****   0x01,
 221:Middlewares/ST/STM32_USB_Device_Library/Class/CustomHID/Src/usbd_customhid.c ****   0x00,
 222:Middlewares/ST/STM32_USB_Device_Library/Class/CustomHID/Src/usbd_customhid.c **** };
 223:Middlewares/ST/STM32_USB_Device_Library/Class/CustomHID/Src/usbd_customhid.c **** 
 224:Middlewares/ST/STM32_USB_Device_Library/Class/CustomHID/Src/usbd_customhid.c **** /**
 225:Middlewares/ST/STM32_USB_Device_Library/Class/CustomHID/Src/usbd_customhid.c ****   * @}
 226:Middlewares/ST/STM32_USB_Device_Library/Class/CustomHID/Src/usbd_customhid.c ****   */ 
 227:Middlewares/ST/STM32_USB_Device_Library/Class/CustomHID/Src/usbd_customhid.c **** 
 228:Middlewares/ST/STM32_USB_Device_Library/Class/CustomHID/Src/usbd_customhid.c **** /** @defgroup USBD_CUSTOM_HID_Private_Functions
 229:Middlewares/ST/STM32_USB_Device_Library/Class/CustomHID/Src/usbd_customhid.c ****   * @{
 230:Middlewares/ST/STM32_USB_Device_Library/Class/CustomHID/Src/usbd_customhid.c ****   */ 
 231:Middlewares/ST/STM32_USB_Device_Library/Class/CustomHID/Src/usbd_customhid.c **** 
 232:Middlewares/ST/STM32_USB_Device_Library/Class/CustomHID/Src/usbd_customhid.c **** /**
 233:Middlewares/ST/STM32_USB_Device_Library/Class/CustomHID/Src/usbd_customhid.c ****   * @brief  USBD_CUSTOM_HID_Init
 234:Middlewares/ST/STM32_USB_Device_Library/Class/CustomHID/Src/usbd_customhid.c ****   *         Initialize the CUSTOM_HID interface
 235:Middlewares/ST/STM32_USB_Device_Library/Class/CustomHID/Src/usbd_customhid.c ****   * @param  pdev: device instance
 236:Middlewares/ST/STM32_USB_Device_Library/Class/CustomHID/Src/usbd_customhid.c ****   * @param  cfgidx: Configuration index
 237:Middlewares/ST/STM32_USB_Device_Library/Class/CustomHID/Src/usbd_customhid.c ****   * @retval status
 238:Middlewares/ST/STM32_USB_Device_Library/Class/CustomHID/Src/usbd_customhid.c ****   */
 239:Middlewares/ST/STM32_USB_Device_Library/Class/CustomHID/Src/usbd_customhid.c **** static uint8_t  USBD_CUSTOM_HID_Init (USBD_HandleTypeDef *pdev, 
 240:Middlewares/ST/STM32_USB_Device_Library/Class/CustomHID/Src/usbd_customhid.c ****                                uint8_t cfgidx)
 241:Middlewares/ST/STM32_USB_Device_Library/Class/CustomHID/Src/usbd_customhid.c **** {
 242:Middlewares/ST/STM32_USB_Device_Library/Class/CustomHID/Src/usbd_customhid.c ****   uint8_t ret = 0;
 243:Middlewares/ST/STM32_USB_Device_Library/Class/CustomHID/Src/usbd_customhid.c ****   USBD_CUSTOM_HID_HandleTypeDef     *hhid;
 244:Middlewares/ST/STM32_USB_Device_Library/Class/CustomHID/Src/usbd_customhid.c ****   /* Open EP IN */
 245:Middlewares/ST/STM32_USB_Device_Library/Class/CustomHID/Src/usbd_customhid.c ****   USBD_LL_OpenEP(pdev,
 246:Middlewares/ST/STM32_USB_Device_Library/Class/CustomHID/Src/usbd_customhid.c ****                  CUSTOM_HID_EPIN_ADDR,
 247:Middlewares/ST/STM32_USB_Device_Library/Class/CustomHID/Src/usbd_customhid.c ****                  USBD_EP_TYPE_INTR,
 248:Middlewares/ST/STM32_USB_Device_Library/Class/CustomHID/Src/usbd_customhid.c ****                  CUSTOM_HID_EPIN_SIZE);  
 249:Middlewares/ST/STM32_USB_Device_Library/Class/CustomHID/Src/usbd_customhid.c ****   
 250:Middlewares/ST/STM32_USB_Device_Library/Class/CustomHID/Src/usbd_customhid.c ****   /* Open EP OUT */
 251:Middlewares/ST/STM32_USB_Device_Library/Class/CustomHID/Src/usbd_customhid.c ****   USBD_LL_OpenEP(pdev,
 252:Middlewares/ST/STM32_USB_Device_Library/Class/CustomHID/Src/usbd_customhid.c ****                  CUSTOM_HID_EPOUT_ADDR,
 253:Middlewares/ST/STM32_USB_Device_Library/Class/CustomHID/Src/usbd_customhid.c ****                  USBD_EP_TYPE_INTR,
 254:Middlewares/ST/STM32_USB_Device_Library/Class/CustomHID/Src/usbd_customhid.c ****                  CUSTOM_HID_EPOUT_SIZE);
 255:Middlewares/ST/STM32_USB_Device_Library/Class/CustomHID/Src/usbd_customhid.c ****   
 256:Middlewares/ST/STM32_USB_Device_Library/Class/CustomHID/Src/usbd_customhid.c ****   pdev->pClassData = USBD_malloc(sizeof (USBD_CUSTOM_HID_HandleTypeDef));
 257:Middlewares/ST/STM32_USB_Device_Library/Class/CustomHID/Src/usbd_customhid.c ****   
 258:Middlewares/ST/STM32_USB_Device_Library/Class/CustomHID/Src/usbd_customhid.c ****   if(pdev->pClassData == NULL)
 259:Middlewares/ST/STM32_USB_Device_Library/Class/CustomHID/Src/usbd_customhid.c ****   {
 260:Middlewares/ST/STM32_USB_Device_Library/Class/CustomHID/Src/usbd_customhid.c ****     ret = 1; 
ARM GAS  x:\temp2\ccQ21sHb.s 			page 6


 261:Middlewares/ST/STM32_USB_Device_Library/Class/CustomHID/Src/usbd_customhid.c ****   }
 262:Middlewares/ST/STM32_USB_Device_Library/Class/CustomHID/Src/usbd_customhid.c ****   else
 263:Middlewares/ST/STM32_USB_Device_Library/Class/CustomHID/Src/usbd_customhid.c ****   {
 264:Middlewares/ST/STM32_USB_Device_Library/Class/CustomHID/Src/usbd_customhid.c ****     hhid = (USBD_CUSTOM_HID_HandleTypeDef*) pdev->pClassData;
 265:Middlewares/ST/STM32_USB_Device_Library/Class/CustomHID/Src/usbd_customhid.c ****       
 266:Middlewares/ST/STM32_USB_Device_Library/Class/CustomHID/Src/usbd_customhid.c ****     hhid->state = CUSTOM_HID_IDLE;
 267:Middlewares/ST/STM32_USB_Device_Library/Class/CustomHID/Src/usbd_customhid.c ****     ((USBD_CUSTOM_HID_ItfTypeDef *)pdev->pUserData)->Init();
 268:Middlewares/ST/STM32_USB_Device_Library/Class/CustomHID/Src/usbd_customhid.c ****           /* Prepare Out endpoint to receive 1st packet */ 
 269:Middlewares/ST/STM32_USB_Device_Library/Class/CustomHID/Src/usbd_customhid.c ****     USBD_LL_PrepareReceive(pdev, CUSTOM_HID_EPOUT_ADDR, hhid->Report_buf, 
 270:Middlewares/ST/STM32_USB_Device_Library/Class/CustomHID/Src/usbd_customhid.c ****                            USBD_CUSTOMHID_OUTREPORT_BUF_SIZE);
 271:Middlewares/ST/STM32_USB_Device_Library/Class/CustomHID/Src/usbd_customhid.c ****   }
 272:Middlewares/ST/STM32_USB_Device_Library/Class/CustomHID/Src/usbd_customhid.c ****     
 273:Middlewares/ST/STM32_USB_Device_Library/Class/CustomHID/Src/usbd_customhid.c ****   return ret;
 274:Middlewares/ST/STM32_USB_Device_Library/Class/CustomHID/Src/usbd_customhid.c **** }
 275:Middlewares/ST/STM32_USB_Device_Library/Class/CustomHID/Src/usbd_customhid.c **** 
 276:Middlewares/ST/STM32_USB_Device_Library/Class/CustomHID/Src/usbd_customhid.c **** /**
 277:Middlewares/ST/STM32_USB_Device_Library/Class/CustomHID/Src/usbd_customhid.c ****   * @brief  USBD_CUSTOM_HID_Init
 278:Middlewares/ST/STM32_USB_Device_Library/Class/CustomHID/Src/usbd_customhid.c ****   *         DeInitialize the CUSTOM_HID layer
 279:Middlewares/ST/STM32_USB_Device_Library/Class/CustomHID/Src/usbd_customhid.c ****   * @param  pdev: device instance
 280:Middlewares/ST/STM32_USB_Device_Library/Class/CustomHID/Src/usbd_customhid.c ****   * @param  cfgidx: Configuration index
 281:Middlewares/ST/STM32_USB_Device_Library/Class/CustomHID/Src/usbd_customhid.c ****   * @retval status
 282:Middlewares/ST/STM32_USB_Device_Library/Class/CustomHID/Src/usbd_customhid.c ****   */
 283:Middlewares/ST/STM32_USB_Device_Library/Class/CustomHID/Src/usbd_customhid.c **** static uint8_t  USBD_CUSTOM_HID_DeInit (USBD_HandleTypeDef *pdev, 
 284:Middlewares/ST/STM32_USB_Device_Library/Class/CustomHID/Src/usbd_customhid.c ****                                  uint8_t cfgidx)
 285:Middlewares/ST/STM32_USB_Device_Library/Class/CustomHID/Src/usbd_customhid.c **** {
 286:Middlewares/ST/STM32_USB_Device_Library/Class/CustomHID/Src/usbd_customhid.c ****   /* Close CUSTOM_HID EP IN */
 287:Middlewares/ST/STM32_USB_Device_Library/Class/CustomHID/Src/usbd_customhid.c ****   USBD_LL_CloseEP(pdev,
 288:Middlewares/ST/STM32_USB_Device_Library/Class/CustomHID/Src/usbd_customhid.c ****                   CUSTOM_HID_EPIN_ADDR);
 289:Middlewares/ST/STM32_USB_Device_Library/Class/CustomHID/Src/usbd_customhid.c ****   
 290:Middlewares/ST/STM32_USB_Device_Library/Class/CustomHID/Src/usbd_customhid.c ****   /* Close CUSTOM_HID EP OUT */
 291:Middlewares/ST/STM32_USB_Device_Library/Class/CustomHID/Src/usbd_customhid.c ****   USBD_LL_CloseEP(pdev,
 292:Middlewares/ST/STM32_USB_Device_Library/Class/CustomHID/Src/usbd_customhid.c ****                   CUSTOM_HID_EPOUT_ADDR);
 293:Middlewares/ST/STM32_USB_Device_Library/Class/CustomHID/Src/usbd_customhid.c ****   
 294:Middlewares/ST/STM32_USB_Device_Library/Class/CustomHID/Src/usbd_customhid.c ****   /* FRee allocated memory */
 295:Middlewares/ST/STM32_USB_Device_Library/Class/CustomHID/Src/usbd_customhid.c ****   if(pdev->pClassData != NULL)
 296:Middlewares/ST/STM32_USB_Device_Library/Class/CustomHID/Src/usbd_customhid.c ****   {
 297:Middlewares/ST/STM32_USB_Device_Library/Class/CustomHID/Src/usbd_customhid.c ****     ((USBD_CUSTOM_HID_ItfTypeDef *)pdev->pUserData)->DeInit();
 298:Middlewares/ST/STM32_USB_Device_Library/Class/CustomHID/Src/usbd_customhid.c ****     USBD_free(pdev->pClassData);
 299:Middlewares/ST/STM32_USB_Device_Library/Class/CustomHID/Src/usbd_customhid.c ****     pdev->pClassData = NULL;
 300:Middlewares/ST/STM32_USB_Device_Library/Class/CustomHID/Src/usbd_customhid.c ****   }
 301:Middlewares/ST/STM32_USB_Device_Library/Class/CustomHID/Src/usbd_customhid.c ****   return USBD_OK;
 302:Middlewares/ST/STM32_USB_Device_Library/Class/CustomHID/Src/usbd_customhid.c **** }
 303:Middlewares/ST/STM32_USB_Device_Library/Class/CustomHID/Src/usbd_customhid.c **** 
 304:Middlewares/ST/STM32_USB_Device_Library/Class/CustomHID/Src/usbd_customhid.c **** /**
 305:Middlewares/ST/STM32_USB_Device_Library/Class/CustomHID/Src/usbd_customhid.c ****   * @brief  USBD_CUSTOM_HID_Setup
 306:Middlewares/ST/STM32_USB_Device_Library/Class/CustomHID/Src/usbd_customhid.c ****   *         Handle the CUSTOM_HID specific requests
 307:Middlewares/ST/STM32_USB_Device_Library/Class/CustomHID/Src/usbd_customhid.c ****   * @param  pdev: instance
 308:Middlewares/ST/STM32_USB_Device_Library/Class/CustomHID/Src/usbd_customhid.c ****   * @param  req: usb requests
 309:Middlewares/ST/STM32_USB_Device_Library/Class/CustomHID/Src/usbd_customhid.c ****   * @retval status
 310:Middlewares/ST/STM32_USB_Device_Library/Class/CustomHID/Src/usbd_customhid.c ****   */
 311:Middlewares/ST/STM32_USB_Device_Library/Class/CustomHID/Src/usbd_customhid.c **** static uint8_t  USBD_CUSTOM_HID_Setup (USBD_HandleTypeDef *pdev, 
 312:Middlewares/ST/STM32_USB_Device_Library/Class/CustomHID/Src/usbd_customhid.c ****                                 USBD_SetupReqTypedef *req)
 313:Middlewares/ST/STM32_USB_Device_Library/Class/CustomHID/Src/usbd_customhid.c **** {
 314:Middlewares/ST/STM32_USB_Device_Library/Class/CustomHID/Src/usbd_customhid.c ****   uint16_t len = 0;
 315:Middlewares/ST/STM32_USB_Device_Library/Class/CustomHID/Src/usbd_customhid.c ****   uint8_t  *pbuf = NULL;
 316:Middlewares/ST/STM32_USB_Device_Library/Class/CustomHID/Src/usbd_customhid.c ****   USBD_CUSTOM_HID_HandleTypeDef     *hhid = (USBD_CUSTOM_HID_HandleTypeDef*)pdev->pClassData;
 317:Middlewares/ST/STM32_USB_Device_Library/Class/CustomHID/Src/usbd_customhid.c **** 
ARM GAS  x:\temp2\ccQ21sHb.s 			page 7


 318:Middlewares/ST/STM32_USB_Device_Library/Class/CustomHID/Src/usbd_customhid.c ****   switch (req->bmRequest & USB_REQ_TYPE_MASK)
 319:Middlewares/ST/STM32_USB_Device_Library/Class/CustomHID/Src/usbd_customhid.c ****   {
 320:Middlewares/ST/STM32_USB_Device_Library/Class/CustomHID/Src/usbd_customhid.c ****   case USB_REQ_TYPE_CLASS :  
 321:Middlewares/ST/STM32_USB_Device_Library/Class/CustomHID/Src/usbd_customhid.c ****     switch (req->bRequest)
 322:Middlewares/ST/STM32_USB_Device_Library/Class/CustomHID/Src/usbd_customhid.c ****     {
 323:Middlewares/ST/STM32_USB_Device_Library/Class/CustomHID/Src/usbd_customhid.c ****       
 324:Middlewares/ST/STM32_USB_Device_Library/Class/CustomHID/Src/usbd_customhid.c ****       
 325:Middlewares/ST/STM32_USB_Device_Library/Class/CustomHID/Src/usbd_customhid.c ****     case CUSTOM_HID_REQ_SET_PROTOCOL:
 326:Middlewares/ST/STM32_USB_Device_Library/Class/CustomHID/Src/usbd_customhid.c ****       hhid->Protocol = (uint8_t)(req->wValue);
 327:Middlewares/ST/STM32_USB_Device_Library/Class/CustomHID/Src/usbd_customhid.c ****       break;
 328:Middlewares/ST/STM32_USB_Device_Library/Class/CustomHID/Src/usbd_customhid.c ****       
 329:Middlewares/ST/STM32_USB_Device_Library/Class/CustomHID/Src/usbd_customhid.c ****     case CUSTOM_HID_REQ_GET_PROTOCOL:
 330:Middlewares/ST/STM32_USB_Device_Library/Class/CustomHID/Src/usbd_customhid.c ****       USBD_CtlSendData (pdev, 
 331:Middlewares/ST/STM32_USB_Device_Library/Class/CustomHID/Src/usbd_customhid.c ****                         (uint8_t *)&hhid->Protocol,
 332:Middlewares/ST/STM32_USB_Device_Library/Class/CustomHID/Src/usbd_customhid.c ****                         1);    
 333:Middlewares/ST/STM32_USB_Device_Library/Class/CustomHID/Src/usbd_customhid.c ****       break;
 334:Middlewares/ST/STM32_USB_Device_Library/Class/CustomHID/Src/usbd_customhid.c ****       
 335:Middlewares/ST/STM32_USB_Device_Library/Class/CustomHID/Src/usbd_customhid.c ****     case CUSTOM_HID_REQ_SET_IDLE:
 336:Middlewares/ST/STM32_USB_Device_Library/Class/CustomHID/Src/usbd_customhid.c ****       hhid->IdleState = (uint8_t)(req->wValue >> 8);
 337:Middlewares/ST/STM32_USB_Device_Library/Class/CustomHID/Src/usbd_customhid.c ****       break;
 338:Middlewares/ST/STM32_USB_Device_Library/Class/CustomHID/Src/usbd_customhid.c ****       
 339:Middlewares/ST/STM32_USB_Device_Library/Class/CustomHID/Src/usbd_customhid.c ****     case CUSTOM_HID_REQ_GET_IDLE:
 340:Middlewares/ST/STM32_USB_Device_Library/Class/CustomHID/Src/usbd_customhid.c ****       USBD_CtlSendData (pdev, 
 341:Middlewares/ST/STM32_USB_Device_Library/Class/CustomHID/Src/usbd_customhid.c ****                         (uint8_t *)&hhid->IdleState,
 342:Middlewares/ST/STM32_USB_Device_Library/Class/CustomHID/Src/usbd_customhid.c ****                         1);        
 343:Middlewares/ST/STM32_USB_Device_Library/Class/CustomHID/Src/usbd_customhid.c ****       break;      
 344:Middlewares/ST/STM32_USB_Device_Library/Class/CustomHID/Src/usbd_customhid.c ****     
 345:Middlewares/ST/STM32_USB_Device_Library/Class/CustomHID/Src/usbd_customhid.c ****     case CUSTOM_HID_REQ_SET_REPORT:
 346:Middlewares/ST/STM32_USB_Device_Library/Class/CustomHID/Src/usbd_customhid.c ****       hhid->IsReportAvailable = 1;
 347:Middlewares/ST/STM32_USB_Device_Library/Class/CustomHID/Src/usbd_customhid.c ****       USBD_CtlPrepareRx (pdev, hhid->Report_buf, (uint8_t)(req->wLength));
 348:Middlewares/ST/STM32_USB_Device_Library/Class/CustomHID/Src/usbd_customhid.c ****       
 349:Middlewares/ST/STM32_USB_Device_Library/Class/CustomHID/Src/usbd_customhid.c ****       break;
 350:Middlewares/ST/STM32_USB_Device_Library/Class/CustomHID/Src/usbd_customhid.c ****     default:
 351:Middlewares/ST/STM32_USB_Device_Library/Class/CustomHID/Src/usbd_customhid.c ****       USBD_CtlError (pdev, req);
 352:Middlewares/ST/STM32_USB_Device_Library/Class/CustomHID/Src/usbd_customhid.c ****       return USBD_FAIL; 
 353:Middlewares/ST/STM32_USB_Device_Library/Class/CustomHID/Src/usbd_customhid.c ****     }
 354:Middlewares/ST/STM32_USB_Device_Library/Class/CustomHID/Src/usbd_customhid.c ****     break;
 355:Middlewares/ST/STM32_USB_Device_Library/Class/CustomHID/Src/usbd_customhid.c ****     
 356:Middlewares/ST/STM32_USB_Device_Library/Class/CustomHID/Src/usbd_customhid.c ****   case USB_REQ_TYPE_STANDARD:
 357:Middlewares/ST/STM32_USB_Device_Library/Class/CustomHID/Src/usbd_customhid.c ****     switch (req->bRequest)
 358:Middlewares/ST/STM32_USB_Device_Library/Class/CustomHID/Src/usbd_customhid.c ****     {
 359:Middlewares/ST/STM32_USB_Device_Library/Class/CustomHID/Src/usbd_customhid.c ****     case USB_REQ_GET_DESCRIPTOR: 
 360:Middlewares/ST/STM32_USB_Device_Library/Class/CustomHID/Src/usbd_customhid.c ****       if( req->wValue >> 8 == CUSTOM_HID_REPORT_DESC)
 361:Middlewares/ST/STM32_USB_Device_Library/Class/CustomHID/Src/usbd_customhid.c ****       {
 362:Middlewares/ST/STM32_USB_Device_Library/Class/CustomHID/Src/usbd_customhid.c ****         len = MIN(USBD_CUSTOM_HID_REPORT_DESC_SIZE , req->wLength);
 363:Middlewares/ST/STM32_USB_Device_Library/Class/CustomHID/Src/usbd_customhid.c ****         pbuf =  ((USBD_CUSTOM_HID_ItfTypeDef *)pdev->pUserData)->pReport;
 364:Middlewares/ST/STM32_USB_Device_Library/Class/CustomHID/Src/usbd_customhid.c ****       }
 365:Middlewares/ST/STM32_USB_Device_Library/Class/CustomHID/Src/usbd_customhid.c ****       else if( req->wValue >> 8 == CUSTOM_HID_DESCRIPTOR_TYPE)
 366:Middlewares/ST/STM32_USB_Device_Library/Class/CustomHID/Src/usbd_customhid.c ****       {
 367:Middlewares/ST/STM32_USB_Device_Library/Class/CustomHID/Src/usbd_customhid.c ****         pbuf = USBD_CUSTOM_HID_Desc;   
 368:Middlewares/ST/STM32_USB_Device_Library/Class/CustomHID/Src/usbd_customhid.c ****         len = MIN(USB_CUSTOM_HID_DESC_SIZ , req->wLength);
 369:Middlewares/ST/STM32_USB_Device_Library/Class/CustomHID/Src/usbd_customhid.c ****       }
 370:Middlewares/ST/STM32_USB_Device_Library/Class/CustomHID/Src/usbd_customhid.c ****       
 371:Middlewares/ST/STM32_USB_Device_Library/Class/CustomHID/Src/usbd_customhid.c ****       USBD_CtlSendData (pdev, 
 372:Middlewares/ST/STM32_USB_Device_Library/Class/CustomHID/Src/usbd_customhid.c ****                         pbuf,
 373:Middlewares/ST/STM32_USB_Device_Library/Class/CustomHID/Src/usbd_customhid.c ****                         len);
 374:Middlewares/ST/STM32_USB_Device_Library/Class/CustomHID/Src/usbd_customhid.c ****       
ARM GAS  x:\temp2\ccQ21sHb.s 			page 8


 375:Middlewares/ST/STM32_USB_Device_Library/Class/CustomHID/Src/usbd_customhid.c ****       break;
 376:Middlewares/ST/STM32_USB_Device_Library/Class/CustomHID/Src/usbd_customhid.c ****       
 377:Middlewares/ST/STM32_USB_Device_Library/Class/CustomHID/Src/usbd_customhid.c ****     case USB_REQ_GET_INTERFACE :
 378:Middlewares/ST/STM32_USB_Device_Library/Class/CustomHID/Src/usbd_customhid.c ****       USBD_CtlSendData (pdev,
 379:Middlewares/ST/STM32_USB_Device_Library/Class/CustomHID/Src/usbd_customhid.c ****                         (uint8_t *)&hhid->AltSetting,
 380:Middlewares/ST/STM32_USB_Device_Library/Class/CustomHID/Src/usbd_customhid.c ****                         1);
 381:Middlewares/ST/STM32_USB_Device_Library/Class/CustomHID/Src/usbd_customhid.c ****       break;
 382:Middlewares/ST/STM32_USB_Device_Library/Class/CustomHID/Src/usbd_customhid.c ****       
 383:Middlewares/ST/STM32_USB_Device_Library/Class/CustomHID/Src/usbd_customhid.c ****     case USB_REQ_SET_INTERFACE :
 384:Middlewares/ST/STM32_USB_Device_Library/Class/CustomHID/Src/usbd_customhid.c ****       hhid->AltSetting = (uint8_t)(req->wValue);
 385:Middlewares/ST/STM32_USB_Device_Library/Class/CustomHID/Src/usbd_customhid.c ****       break;
 386:Middlewares/ST/STM32_USB_Device_Library/Class/CustomHID/Src/usbd_customhid.c ****     }
 387:Middlewares/ST/STM32_USB_Device_Library/Class/CustomHID/Src/usbd_customhid.c ****   }
 388:Middlewares/ST/STM32_USB_Device_Library/Class/CustomHID/Src/usbd_customhid.c ****   return USBD_OK;
 389:Middlewares/ST/STM32_USB_Device_Library/Class/CustomHID/Src/usbd_customhid.c **** }
 390:Middlewares/ST/STM32_USB_Device_Library/Class/CustomHID/Src/usbd_customhid.c **** 
 391:Middlewares/ST/STM32_USB_Device_Library/Class/CustomHID/Src/usbd_customhid.c **** /**
 392:Middlewares/ST/STM32_USB_Device_Library/Class/CustomHID/Src/usbd_customhid.c ****   * @brief  USBD_CUSTOM_HID_SendReport 
 393:Middlewares/ST/STM32_USB_Device_Library/Class/CustomHID/Src/usbd_customhid.c ****   *         Send CUSTOM_HID Report
 394:Middlewares/ST/STM32_USB_Device_Library/Class/CustomHID/Src/usbd_customhid.c ****   * @param  pdev: device instance
 395:Middlewares/ST/STM32_USB_Device_Library/Class/CustomHID/Src/usbd_customhid.c ****   * @param  buff: pointer to report
 396:Middlewares/ST/STM32_USB_Device_Library/Class/CustomHID/Src/usbd_customhid.c ****   * @retval status
 397:Middlewares/ST/STM32_USB_Device_Library/Class/CustomHID/Src/usbd_customhid.c ****   */
 398:Middlewares/ST/STM32_USB_Device_Library/Class/CustomHID/Src/usbd_customhid.c **** uint8_t USBD_CUSTOM_HID_SendReport     (USBD_HandleTypeDef  *pdev, 
 399:Middlewares/ST/STM32_USB_Device_Library/Class/CustomHID/Src/usbd_customhid.c ****                                  uint8_t *report,
 400:Middlewares/ST/STM32_USB_Device_Library/Class/CustomHID/Src/usbd_customhid.c ****                                  uint16_t len)
 401:Middlewares/ST/STM32_USB_Device_Library/Class/CustomHID/Src/usbd_customhid.c **** {
 402:Middlewares/ST/STM32_USB_Device_Library/Class/CustomHID/Src/usbd_customhid.c ****   USBD_CUSTOM_HID_HandleTypeDef     *hhid = (USBD_CUSTOM_HID_HandleTypeDef*)pdev->pClassData;
 403:Middlewares/ST/STM32_USB_Device_Library/Class/CustomHID/Src/usbd_customhid.c ****   
 404:Middlewares/ST/STM32_USB_Device_Library/Class/CustomHID/Src/usbd_customhid.c ****   if (pdev->dev_state == USBD_STATE_CONFIGURED )
 405:Middlewares/ST/STM32_USB_Device_Library/Class/CustomHID/Src/usbd_customhid.c ****   {
 406:Middlewares/ST/STM32_USB_Device_Library/Class/CustomHID/Src/usbd_customhid.c ****     if(hhid->state == CUSTOM_HID_IDLE)
 407:Middlewares/ST/STM32_USB_Device_Library/Class/CustomHID/Src/usbd_customhid.c ****     {
 408:Middlewares/ST/STM32_USB_Device_Library/Class/CustomHID/Src/usbd_customhid.c ****       hhid->state = CUSTOM_HID_BUSY;
 409:Middlewares/ST/STM32_USB_Device_Library/Class/CustomHID/Src/usbd_customhid.c ****       USBD_LL_Transmit (pdev, 
 410:Middlewares/ST/STM32_USB_Device_Library/Class/CustomHID/Src/usbd_customhid.c ****                         CUSTOM_HID_EPIN_ADDR,                                      
 411:Middlewares/ST/STM32_USB_Device_Library/Class/CustomHID/Src/usbd_customhid.c ****                         report,
 412:Middlewares/ST/STM32_USB_Device_Library/Class/CustomHID/Src/usbd_customhid.c ****                         len);
 413:Middlewares/ST/STM32_USB_Device_Library/Class/CustomHID/Src/usbd_customhid.c ****     }
 414:Middlewares/ST/STM32_USB_Device_Library/Class/CustomHID/Src/usbd_customhid.c ****   }
 415:Middlewares/ST/STM32_USB_Device_Library/Class/CustomHID/Src/usbd_customhid.c ****   return USBD_OK;
 416:Middlewares/ST/STM32_USB_Device_Library/Class/CustomHID/Src/usbd_customhid.c **** }
 417:Middlewares/ST/STM32_USB_Device_Library/Class/CustomHID/Src/usbd_customhid.c **** 
 418:Middlewares/ST/STM32_USB_Device_Library/Class/CustomHID/Src/usbd_customhid.c **** /**
 419:Middlewares/ST/STM32_USB_Device_Library/Class/CustomHID/Src/usbd_customhid.c ****   * @brief  USBD_CUSTOM_HID_GetCfgDesc 
 420:Middlewares/ST/STM32_USB_Device_Library/Class/CustomHID/Src/usbd_customhid.c ****   *         return configuration descriptor
 421:Middlewares/ST/STM32_USB_Device_Library/Class/CustomHID/Src/usbd_customhid.c ****   * @param  speed : current device speed
 422:Middlewares/ST/STM32_USB_Device_Library/Class/CustomHID/Src/usbd_customhid.c ****   * @param  length : pointer data length
 423:Middlewares/ST/STM32_USB_Device_Library/Class/CustomHID/Src/usbd_customhid.c ****   * @retval pointer to descriptor buffer
 424:Middlewares/ST/STM32_USB_Device_Library/Class/CustomHID/Src/usbd_customhid.c ****   */
 425:Middlewares/ST/STM32_USB_Device_Library/Class/CustomHID/Src/usbd_customhid.c **** static uint8_t  *USBD_CUSTOM_HID_GetCfgDesc (uint16_t *length)
 426:Middlewares/ST/STM32_USB_Device_Library/Class/CustomHID/Src/usbd_customhid.c **** {
  27              		.loc 1 426 0
  28              		.cfi_startproc
  29              		@ args = 0, pretend = 0, frame = 0
  30              		@ frame_needed = 0, uses_anonymous_args = 0
  31              		@ link register save eliminated.
ARM GAS  x:\temp2\ccQ21sHb.s 			page 9


  32              	.LVL0:
 427:Middlewares/ST/STM32_USB_Device_Library/Class/CustomHID/Src/usbd_customhid.c ****   *length = sizeof (USBD_CUSTOM_HID_CfgDesc);
  33              		.loc 1 427 0
  34 0000 2923     		movs	r3, #41
  35 0002 0380     		strh	r3, [r0]	@ movhi
 428:Middlewares/ST/STM32_USB_Device_Library/Class/CustomHID/Src/usbd_customhid.c ****   return USBD_CUSTOM_HID_CfgDesc;
 429:Middlewares/ST/STM32_USB_Device_Library/Class/CustomHID/Src/usbd_customhid.c **** }
  36              		.loc 1 429 0
  37 0004 0048     		ldr	r0, .L2
  38              	.LVL1:
  39 0006 7047     		bx	lr
  40              	.L3:
  41              		.align	2
  42              	.L2:
  43 0008 00000000 		.word	.LANCHOR0
  44              		.cfi_endproc
  45              	.LFE130:
  47              		.section	.text.USBD_CUSTOM_HID_DataIn,"ax",%progbits
  48              		.align	1
  49              		.syntax unified
  50              		.thumb
  51              		.thumb_func
  52              		.fpu fpv4-sp-d16
  54              	USBD_CUSTOM_HID_DataIn:
  55              	.LFB131:
 430:Middlewares/ST/STM32_USB_Device_Library/Class/CustomHID/Src/usbd_customhid.c **** 
 431:Middlewares/ST/STM32_USB_Device_Library/Class/CustomHID/Src/usbd_customhid.c **** /**
 432:Middlewares/ST/STM32_USB_Device_Library/Class/CustomHID/Src/usbd_customhid.c ****   * @brief  USBD_CUSTOM_HID_DataIn
 433:Middlewares/ST/STM32_USB_Device_Library/Class/CustomHID/Src/usbd_customhid.c ****   *         handle data IN Stage
 434:Middlewares/ST/STM32_USB_Device_Library/Class/CustomHID/Src/usbd_customhid.c ****   * @param  pdev: device instance
 435:Middlewares/ST/STM32_USB_Device_Library/Class/CustomHID/Src/usbd_customhid.c ****   * @param  epnum: endpoint index
 436:Middlewares/ST/STM32_USB_Device_Library/Class/CustomHID/Src/usbd_customhid.c ****   * @retval status
 437:Middlewares/ST/STM32_USB_Device_Library/Class/CustomHID/Src/usbd_customhid.c ****   */
 438:Middlewares/ST/STM32_USB_Device_Library/Class/CustomHID/Src/usbd_customhid.c **** static uint8_t  USBD_CUSTOM_HID_DataIn (USBD_HandleTypeDef *pdev, 
 439:Middlewares/ST/STM32_USB_Device_Library/Class/CustomHID/Src/usbd_customhid.c ****                               uint8_t epnum)
 440:Middlewares/ST/STM32_USB_Device_Library/Class/CustomHID/Src/usbd_customhid.c **** {
  56              		.loc 1 440 0
  57              		.cfi_startproc
  58              		@ args = 0, pretend = 0, frame = 0
  59              		@ frame_needed = 0, uses_anonymous_args = 0
  60              		@ link register save eliminated.
  61              	.LVL2:
 441:Middlewares/ST/STM32_USB_Device_Library/Class/CustomHID/Src/usbd_customhid.c ****   
 442:Middlewares/ST/STM32_USB_Device_Library/Class/CustomHID/Src/usbd_customhid.c ****   /* Ensure that the FIFO is empty before a new transfer, this condition could 
 443:Middlewares/ST/STM32_USB_Device_Library/Class/CustomHID/Src/usbd_customhid.c ****   be caused by  a new transfer before the end of the previous transfer */
 444:Middlewares/ST/STM32_USB_Device_Library/Class/CustomHID/Src/usbd_customhid.c ****   ((USBD_CUSTOM_HID_HandleTypeDef *)pdev->pClassData)->state = CUSTOM_HID_IDLE;
  62              		.loc 1 444 0
  63 0000 D0F81832 		ldr	r3, [r0, #536]
  64 0004 0020     		movs	r0, #0
  65              	.LVL3:
  66 0006 83F85000 		strb	r0, [r3, #80]
 445:Middlewares/ST/STM32_USB_Device_Library/Class/CustomHID/Src/usbd_customhid.c **** 
 446:Middlewares/ST/STM32_USB_Device_Library/Class/CustomHID/Src/usbd_customhid.c ****   return USBD_OK;
 447:Middlewares/ST/STM32_USB_Device_Library/Class/CustomHID/Src/usbd_customhid.c **** }
  67              		.loc 1 447 0
  68 000a 7047     		bx	lr
  69              		.cfi_endproc
ARM GAS  x:\temp2\ccQ21sHb.s 			page 10


  70              	.LFE131:
  72              		.section	.text.USBD_CUSTOM_HID_EP0_RxReady,"ax",%progbits
  73              		.align	1
  74              		.syntax unified
  75              		.thumb
  76              		.thumb_func
  77              		.fpu fpv4-sp-d16
  79              	USBD_CUSTOM_HID_EP0_RxReady:
  80              	.LFB133:
 448:Middlewares/ST/STM32_USB_Device_Library/Class/CustomHID/Src/usbd_customhid.c **** 
 449:Middlewares/ST/STM32_USB_Device_Library/Class/CustomHID/Src/usbd_customhid.c **** /**
 450:Middlewares/ST/STM32_USB_Device_Library/Class/CustomHID/Src/usbd_customhid.c ****   * @brief  USBD_CUSTOM_HID_DataOut
 451:Middlewares/ST/STM32_USB_Device_Library/Class/CustomHID/Src/usbd_customhid.c ****   *         handle data OUT Stage
 452:Middlewares/ST/STM32_USB_Device_Library/Class/CustomHID/Src/usbd_customhid.c ****   * @param  pdev: device instance
 453:Middlewares/ST/STM32_USB_Device_Library/Class/CustomHID/Src/usbd_customhid.c ****   * @param  epnum: endpoint index
 454:Middlewares/ST/STM32_USB_Device_Library/Class/CustomHID/Src/usbd_customhid.c ****   * @retval status
 455:Middlewares/ST/STM32_USB_Device_Library/Class/CustomHID/Src/usbd_customhid.c ****   */
 456:Middlewares/ST/STM32_USB_Device_Library/Class/CustomHID/Src/usbd_customhid.c **** static uint8_t  USBD_CUSTOM_HID_DataOut (USBD_HandleTypeDef *pdev, 
 457:Middlewares/ST/STM32_USB_Device_Library/Class/CustomHID/Src/usbd_customhid.c ****                               uint8_t epnum)
 458:Middlewares/ST/STM32_USB_Device_Library/Class/CustomHID/Src/usbd_customhid.c **** {
 459:Middlewares/ST/STM32_USB_Device_Library/Class/CustomHID/Src/usbd_customhid.c ****   
 460:Middlewares/ST/STM32_USB_Device_Library/Class/CustomHID/Src/usbd_customhid.c ****   USBD_CUSTOM_HID_HandleTypeDef     *hhid = (USBD_CUSTOM_HID_HandleTypeDef*)pdev->pClassData;  
 461:Middlewares/ST/STM32_USB_Device_Library/Class/CustomHID/Src/usbd_customhid.c ****   
 462:Middlewares/ST/STM32_USB_Device_Library/Class/CustomHID/Src/usbd_customhid.c ****   ((USBD_CUSTOM_HID_ItfTypeDef *)pdev->pUserData)->OutEvent(hhid->Report_buf[0], 
 463:Middlewares/ST/STM32_USB_Device_Library/Class/CustomHID/Src/usbd_customhid.c ****                                                             hhid->Report_buf[1]);
 464:Middlewares/ST/STM32_USB_Device_Library/Class/CustomHID/Src/usbd_customhid.c ****     
 465:Middlewares/ST/STM32_USB_Device_Library/Class/CustomHID/Src/usbd_customhid.c ****   USBD_LL_PrepareReceive(pdev, CUSTOM_HID_EPOUT_ADDR , hhid->Report_buf, 
 466:Middlewares/ST/STM32_USB_Device_Library/Class/CustomHID/Src/usbd_customhid.c ****                          USBD_CUSTOMHID_OUTREPORT_BUF_SIZE);
 467:Middlewares/ST/STM32_USB_Device_Library/Class/CustomHID/Src/usbd_customhid.c **** 
 468:Middlewares/ST/STM32_USB_Device_Library/Class/CustomHID/Src/usbd_customhid.c ****   return USBD_OK;
 469:Middlewares/ST/STM32_USB_Device_Library/Class/CustomHID/Src/usbd_customhid.c **** }
 470:Middlewares/ST/STM32_USB_Device_Library/Class/CustomHID/Src/usbd_customhid.c **** 
 471:Middlewares/ST/STM32_USB_Device_Library/Class/CustomHID/Src/usbd_customhid.c **** /**
 472:Middlewares/ST/STM32_USB_Device_Library/Class/CustomHID/Src/usbd_customhid.c ****   * @brief  USBD_CUSTOM_HID_EP0_RxReady
 473:Middlewares/ST/STM32_USB_Device_Library/Class/CustomHID/Src/usbd_customhid.c ****   *         Handles control request data.
 474:Middlewares/ST/STM32_USB_Device_Library/Class/CustomHID/Src/usbd_customhid.c ****   * @param  pdev: device instance
 475:Middlewares/ST/STM32_USB_Device_Library/Class/CustomHID/Src/usbd_customhid.c ****   * @retval status
 476:Middlewares/ST/STM32_USB_Device_Library/Class/CustomHID/Src/usbd_customhid.c ****   */
 477:Middlewares/ST/STM32_USB_Device_Library/Class/CustomHID/Src/usbd_customhid.c **** uint8_t USBD_CUSTOM_HID_EP0_RxReady(USBD_HandleTypeDef *pdev)
 478:Middlewares/ST/STM32_USB_Device_Library/Class/CustomHID/Src/usbd_customhid.c **** {
  81              		.loc 1 478 0
  82              		.cfi_startproc
  83              		@ args = 0, pretend = 0, frame = 0
  84              		@ frame_needed = 0, uses_anonymous_args = 0
  85              	.LVL4:
  86 0000 10B5     		push	{r4, lr}
  87              	.LCFI0:
  88              		.cfi_def_cfa_offset 8
  89              		.cfi_offset 4, -8
  90              		.cfi_offset 14, -4
 479:Middlewares/ST/STM32_USB_Device_Library/Class/CustomHID/Src/usbd_customhid.c ****   USBD_CUSTOM_HID_HandleTypeDef     *hhid = (USBD_CUSTOM_HID_HandleTypeDef*)pdev->pClassData;  
  91              		.loc 1 479 0
  92 0002 D0F81842 		ldr	r4, [r0, #536]
  93              	.LVL5:
 480:Middlewares/ST/STM32_USB_Device_Library/Class/CustomHID/Src/usbd_customhid.c **** 
 481:Middlewares/ST/STM32_USB_Device_Library/Class/CustomHID/Src/usbd_customhid.c ****   if (hhid->IsReportAvailable == 1)
  94              		.loc 1 481 0
ARM GAS  x:\temp2\ccQ21sHb.s 			page 11


  95 0006 E36C     		ldr	r3, [r4, #76]
  96 0008 012B     		cmp	r3, #1
  97 000a 07D1     		bne	.L6
 482:Middlewares/ST/STM32_USB_Device_Library/Class/CustomHID/Src/usbd_customhid.c ****   {
 483:Middlewares/ST/STM32_USB_Device_Library/Class/CustomHID/Src/usbd_customhid.c ****     ((USBD_CUSTOM_HID_ItfTypeDef *)pdev->pUserData)->OutEvent(hhid->Report_buf[0], 
  98              		.loc 1 483 0
  99 000c D0F81C32 		ldr	r3, [r0, #540]
 100 0010 DB68     		ldr	r3, [r3, #12]
 101 0012 6178     		ldrb	r1, [r4, #1]	@ zero_extendqisi2
 102 0014 2078     		ldrb	r0, [r4]	@ zero_extendqisi2
 103              	.LVL6:
 104 0016 9847     		blx	r3
 105              	.LVL7:
 484:Middlewares/ST/STM32_USB_Device_Library/Class/CustomHID/Src/usbd_customhid.c ****                                                               hhid->Report_buf[1]);
 485:Middlewares/ST/STM32_USB_Device_Library/Class/CustomHID/Src/usbd_customhid.c ****     hhid->IsReportAvailable = 0;      
 106              		.loc 1 485 0
 107 0018 0023     		movs	r3, #0
 108 001a E364     		str	r3, [r4, #76]
 109              	.L6:
 486:Middlewares/ST/STM32_USB_Device_Library/Class/CustomHID/Src/usbd_customhid.c ****   }
 487:Middlewares/ST/STM32_USB_Device_Library/Class/CustomHID/Src/usbd_customhid.c **** 
 488:Middlewares/ST/STM32_USB_Device_Library/Class/CustomHID/Src/usbd_customhid.c ****   return USBD_OK;
 489:Middlewares/ST/STM32_USB_Device_Library/Class/CustomHID/Src/usbd_customhid.c **** }
 110              		.loc 1 489 0
 111 001c 0020     		movs	r0, #0
 112 001e 10BD     		pop	{r4, pc}
 113              		.cfi_endproc
 114              	.LFE133:
 116              		.section	.text.USBD_CUSTOM_HID_GetDeviceQualifierDesc,"ax",%progbits
 117              		.align	1
 118              		.syntax unified
 119              		.thumb
 120              		.thumb_func
 121              		.fpu fpv4-sp-d16
 123              	USBD_CUSTOM_HID_GetDeviceQualifierDesc:
 124              	.LFB134:
 490:Middlewares/ST/STM32_USB_Device_Library/Class/CustomHID/Src/usbd_customhid.c **** 
 491:Middlewares/ST/STM32_USB_Device_Library/Class/CustomHID/Src/usbd_customhid.c **** /**
 492:Middlewares/ST/STM32_USB_Device_Library/Class/CustomHID/Src/usbd_customhid.c **** * @brief  DeviceQualifierDescriptor 
 493:Middlewares/ST/STM32_USB_Device_Library/Class/CustomHID/Src/usbd_customhid.c **** *         return Device Qualifier descriptor
 494:Middlewares/ST/STM32_USB_Device_Library/Class/CustomHID/Src/usbd_customhid.c **** * @param  length : pointer data length
 495:Middlewares/ST/STM32_USB_Device_Library/Class/CustomHID/Src/usbd_customhid.c **** * @retval pointer to descriptor buffer
 496:Middlewares/ST/STM32_USB_Device_Library/Class/CustomHID/Src/usbd_customhid.c **** */
 497:Middlewares/ST/STM32_USB_Device_Library/Class/CustomHID/Src/usbd_customhid.c **** static uint8_t  *USBD_CUSTOM_HID_GetDeviceQualifierDesc (uint16_t *length)
 498:Middlewares/ST/STM32_USB_Device_Library/Class/CustomHID/Src/usbd_customhid.c **** {
 125              		.loc 1 498 0
 126              		.cfi_startproc
 127              		@ args = 0, pretend = 0, frame = 0
 128              		@ frame_needed = 0, uses_anonymous_args = 0
 129              		@ link register save eliminated.
 130              	.LVL8:
 499:Middlewares/ST/STM32_USB_Device_Library/Class/CustomHID/Src/usbd_customhid.c ****   *length = sizeof (USBD_CUSTOM_HID_DeviceQualifierDesc);
 131              		.loc 1 499 0
 132 0000 0A23     		movs	r3, #10
 133 0002 0380     		strh	r3, [r0]	@ movhi
 500:Middlewares/ST/STM32_USB_Device_Library/Class/CustomHID/Src/usbd_customhid.c ****   return USBD_CUSTOM_HID_DeviceQualifierDesc;
 501:Middlewares/ST/STM32_USB_Device_Library/Class/CustomHID/Src/usbd_customhid.c **** }
ARM GAS  x:\temp2\ccQ21sHb.s 			page 12


 134              		.loc 1 501 0
 135 0004 0048     		ldr	r0, .L9
 136              	.LVL9:
 137 0006 7047     		bx	lr
 138              	.L10:
 139              		.align	2
 140              	.L9:
 141 0008 00000000 		.word	.LANCHOR1
 142              		.cfi_endproc
 143              	.LFE134:
 145              		.section	.text.USBD_CUSTOM_HID_DataOut,"ax",%progbits
 146              		.align	1
 147              		.syntax unified
 148              		.thumb
 149              		.thumb_func
 150              		.fpu fpv4-sp-d16
 152              	USBD_CUSTOM_HID_DataOut:
 153              	.LFB132:
 458:Middlewares/ST/STM32_USB_Device_Library/Class/CustomHID/Src/usbd_customhid.c ****   
 154              		.loc 1 458 0
 155              		.cfi_startproc
 156              		@ args = 0, pretend = 0, frame = 0
 157              		@ frame_needed = 0, uses_anonymous_args = 0
 158              	.LVL10:
 159 0000 38B5     		push	{r3, r4, r5, lr}
 160              	.LCFI1:
 161              		.cfi_def_cfa_offset 16
 162              		.cfi_offset 3, -16
 163              		.cfi_offset 4, -12
 164              		.cfi_offset 5, -8
 165              		.cfi_offset 14, -4
 166 0002 0446     		mov	r4, r0
 460:Middlewares/ST/STM32_USB_Device_Library/Class/CustomHID/Src/usbd_customhid.c ****   
 167              		.loc 1 460 0
 168 0004 D0F81852 		ldr	r5, [r0, #536]
 169              	.LVL11:
 462:Middlewares/ST/STM32_USB_Device_Library/Class/CustomHID/Src/usbd_customhid.c ****                                                             hhid->Report_buf[1]);
 170              		.loc 1 462 0
 171 0008 D0F81C32 		ldr	r3, [r0, #540]
 172 000c DB68     		ldr	r3, [r3, #12]
 173 000e 6978     		ldrb	r1, [r5, #1]	@ zero_extendqisi2
 174              	.LVL12:
 175 0010 2878     		ldrb	r0, [r5]	@ zero_extendqisi2
 176              	.LVL13:
 177 0012 9847     		blx	r3
 178              	.LVL14:
 465:Middlewares/ST/STM32_USB_Device_Library/Class/CustomHID/Src/usbd_customhid.c ****                          USBD_CUSTOMHID_OUTREPORT_BUF_SIZE);
 179              		.loc 1 465 0
 180 0014 4023     		movs	r3, #64
 181 0016 2A46     		mov	r2, r5
 182 0018 0121     		movs	r1, #1
 183 001a 2046     		mov	r0, r4
 184 001c FFF7FEFF 		bl	USBD_LL_PrepareReceive
 185              	.LVL15:
 469:Middlewares/ST/STM32_USB_Device_Library/Class/CustomHID/Src/usbd_customhid.c **** 
 186              		.loc 1 469 0
 187 0020 0020     		movs	r0, #0
ARM GAS  x:\temp2\ccQ21sHb.s 			page 13


 188 0022 38BD     		pop	{r3, r4, r5, pc}
 189              		.cfi_endproc
 190              	.LFE132:
 192              		.section	.text.USBD_CUSTOM_HID_Setup,"ax",%progbits
 193              		.align	1
 194              		.syntax unified
 195              		.thumb
 196              		.thumb_func
 197              		.fpu fpv4-sp-d16
 199              	USBD_CUSTOM_HID_Setup:
 200              	.LFB128:
 313:Middlewares/ST/STM32_USB_Device_Library/Class/CustomHID/Src/usbd_customhid.c ****   uint16_t len = 0;
 201              		.loc 1 313 0
 202              		.cfi_startproc
 203              		@ args = 0, pretend = 0, frame = 0
 204              		@ frame_needed = 0, uses_anonymous_args = 0
 205              	.LVL16:
 206 0000 10B5     		push	{r4, lr}
 207              	.LCFI2:
 208              		.cfi_def_cfa_offset 8
 209              		.cfi_offset 4, -8
 210              		.cfi_offset 14, -4
 211              	.LVL17:
 316:Middlewares/ST/STM32_USB_Device_Library/Class/CustomHID/Src/usbd_customhid.c **** 
 212              		.loc 1 316 0
 213 0002 D0F81842 		ldr	r4, [r0, #536]
 214              	.LVL18:
 318:Middlewares/ST/STM32_USB_Device_Library/Class/CustomHID/Src/usbd_customhid.c ****   {
 215              		.loc 1 318 0
 216 0006 0B78     		ldrb	r3, [r1]	@ zero_extendqisi2
 217 0008 13F06003 		ands	r3, r3, #96
 218 000c 2FD0     		beq	.L15
 219 000e 202B     		cmp	r3, #32
 220 0010 5BD1     		bne	.L32
 321:Middlewares/ST/STM32_USB_Device_Library/Class/CustomHID/Src/usbd_customhid.c ****     {
 221              		.loc 1 321 0
 222 0012 4B78     		ldrb	r3, [r1, #1]	@ zero_extendqisi2
 223 0014 023B     		subs	r3, r3, #2
 224 0016 092B     		cmp	r3, #9
 225 0018 25D8     		bhi	.L17
 226 001a DFE803F0 		tbb	[pc, r3]
 227              	.L19:
 228 001e 15       		.byte	(.L18-.L19)/2
 229 001f 09       		.byte	(.L20-.L19)/2
 230 0020 24       		.byte	(.L17-.L19)/2
 231 0021 24       		.byte	(.L17-.L19)/2
 232 0022 24       		.byte	(.L17-.L19)/2
 233 0023 24       		.byte	(.L17-.L19)/2
 234 0024 24       		.byte	(.L17-.L19)/2
 235 0025 1C       		.byte	(.L21-.L19)/2
 236 0026 10       		.byte	(.L22-.L19)/2
 237 0027 05       		.byte	(.L23-.L19)/2
 238              		.p2align 1
 239              	.L23:
 326:Middlewares/ST/STM32_USB_Device_Library/Class/CustomHID/Src/usbd_customhid.c ****       break;
 240              		.loc 1 326 0
 241 0028 8B78     		ldrb	r3, [r1, #2]	@ zero_extendqisi2
ARM GAS  x:\temp2\ccQ21sHb.s 			page 14


 242 002a 2364     		str	r3, [r4, #64]
 388:Middlewares/ST/STM32_USB_Device_Library/Class/CustomHID/Src/usbd_customhid.c **** }
 243              		.loc 1 388 0
 244 002c 0020     		movs	r0, #0
 245              	.LVL19:
 327:Middlewares/ST/STM32_USB_Device_Library/Class/CustomHID/Src/usbd_customhid.c ****       
 246              		.loc 1 327 0
 247 002e 4DE0     		b	.L14
 248              	.LVL20:
 249              	.L20:
 330:Middlewares/ST/STM32_USB_Device_Library/Class/CustomHID/Src/usbd_customhid.c ****                         (uint8_t *)&hhid->Protocol,
 250              		.loc 1 330 0
 251 0030 0122     		movs	r2, #1
 252 0032 04F14001 		add	r1, r4, #64
 253              	.LVL21:
 254 0036 FFF7FEFF 		bl	USBD_CtlSendData
 255              	.LVL22:
 388:Middlewares/ST/STM32_USB_Device_Library/Class/CustomHID/Src/usbd_customhid.c **** }
 256              		.loc 1 388 0
 257 003a 0020     		movs	r0, #0
 333:Middlewares/ST/STM32_USB_Device_Library/Class/CustomHID/Src/usbd_customhid.c ****       
 258              		.loc 1 333 0
 259 003c 46E0     		b	.L14
 260              	.LVL23:
 261              	.L22:
 336:Middlewares/ST/STM32_USB_Device_Library/Class/CustomHID/Src/usbd_customhid.c ****       break;
 262              		.loc 1 336 0
 263 003e 4B88     		ldrh	r3, [r1, #2]
 264 0040 1B0A     		lsrs	r3, r3, #8
 265 0042 6364     		str	r3, [r4, #68]
 388:Middlewares/ST/STM32_USB_Device_Library/Class/CustomHID/Src/usbd_customhid.c **** }
 266              		.loc 1 388 0
 267 0044 0020     		movs	r0, #0
 268              	.LVL24:
 337:Middlewares/ST/STM32_USB_Device_Library/Class/CustomHID/Src/usbd_customhid.c ****       
 269              		.loc 1 337 0
 270 0046 41E0     		b	.L14
 271              	.LVL25:
 272              	.L18:
 340:Middlewares/ST/STM32_USB_Device_Library/Class/CustomHID/Src/usbd_customhid.c ****                         (uint8_t *)&hhid->IdleState,
 273              		.loc 1 340 0
 274 0048 0122     		movs	r2, #1
 275 004a 04F14401 		add	r1, r4, #68
 276              	.LVL26:
 277 004e FFF7FEFF 		bl	USBD_CtlSendData
 278              	.LVL27:
 388:Middlewares/ST/STM32_USB_Device_Library/Class/CustomHID/Src/usbd_customhid.c **** }
 279              		.loc 1 388 0
 280 0052 0020     		movs	r0, #0
 343:Middlewares/ST/STM32_USB_Device_Library/Class/CustomHID/Src/usbd_customhid.c ****     
 281              		.loc 1 343 0
 282 0054 3AE0     		b	.L14
 283              	.LVL28:
 284              	.L21:
 346:Middlewares/ST/STM32_USB_Device_Library/Class/CustomHID/Src/usbd_customhid.c ****       USBD_CtlPrepareRx (pdev, hhid->Report_buf, (uint8_t)(req->wLength));
 285              		.loc 1 346 0
 286 0056 0123     		movs	r3, #1
ARM GAS  x:\temp2\ccQ21sHb.s 			page 15


 287 0058 E364     		str	r3, [r4, #76]
 347:Middlewares/ST/STM32_USB_Device_Library/Class/CustomHID/Src/usbd_customhid.c ****       
 288              		.loc 1 347 0
 289 005a 8A79     		ldrb	r2, [r1, #6]	@ zero_extendqisi2
 290 005c 2146     		mov	r1, r4
 291              	.LVL29:
 292 005e FFF7FEFF 		bl	USBD_CtlPrepareRx
 293              	.LVL30:
 388:Middlewares/ST/STM32_USB_Device_Library/Class/CustomHID/Src/usbd_customhid.c **** }
 294              		.loc 1 388 0
 295 0062 0020     		movs	r0, #0
 349:Middlewares/ST/STM32_USB_Device_Library/Class/CustomHID/Src/usbd_customhid.c ****     default:
 296              		.loc 1 349 0
 297 0064 32E0     		b	.L14
 298              	.LVL31:
 299              	.L17:
 351:Middlewares/ST/STM32_USB_Device_Library/Class/CustomHID/Src/usbd_customhid.c ****       return USBD_FAIL; 
 300              		.loc 1 351 0
 301 0066 FFF7FEFF 		bl	USBD_CtlError
 302              	.LVL32:
 352:Middlewares/ST/STM32_USB_Device_Library/Class/CustomHID/Src/usbd_customhid.c ****     }
 303              		.loc 1 352 0
 304 006a 0220     		movs	r0, #2
 305 006c 2EE0     		b	.L14
 306              	.LVL33:
 307              	.L15:
 357:Middlewares/ST/STM32_USB_Device_Library/Class/CustomHID/Src/usbd_customhid.c ****     {
 308              		.loc 1 357 0
 309 006e 4B78     		ldrb	r3, [r1, #1]	@ zero_extendqisi2
 310 0070 0A2B     		cmp	r3, #10
 311 0072 1FD0     		beq	.L24
 312 0074 0B2B     		cmp	r3, #11
 313 0076 24D0     		beq	.L25
 314 0078 062B     		cmp	r3, #6
 315 007a 01D0     		beq	.L35
 388:Middlewares/ST/STM32_USB_Device_Library/Class/CustomHID/Src/usbd_customhid.c **** }
 316              		.loc 1 388 0
 317 007c 0020     		movs	r0, #0
 318              	.LVL34:
 319 007e 25E0     		b	.L14
 320              	.LVL35:
 321              	.L35:
 360:Middlewares/ST/STM32_USB_Device_Library/Class/CustomHID/Src/usbd_customhid.c ****       {
 322              		.loc 1 360 0
 323 0080 4B88     		ldrh	r3, [r1, #2]
 324 0082 1B0A     		lsrs	r3, r3, #8
 325 0084 222B     		cmp	r3, #34
 326 0086 07D0     		beq	.L36
 365:Middlewares/ST/STM32_USB_Device_Library/Class/CustomHID/Src/usbd_customhid.c ****       {
 327              		.loc 1 365 0
 328 0088 212B     		cmp	r3, #33
 329 008a 0DD0     		beq	.L37
 315:Middlewares/ST/STM32_USB_Device_Library/Class/CustomHID/Src/usbd_customhid.c ****   USBD_CUSTOM_HID_HandleTypeDef     *hhid = (USBD_CUSTOM_HID_HandleTypeDef*)pdev->pClassData;
 330              		.loc 1 315 0
 331 008c 0021     		movs	r1, #0
 332              	.LVL36:
 314:Middlewares/ST/STM32_USB_Device_Library/Class/CustomHID/Src/usbd_customhid.c ****   uint8_t  *pbuf = NULL;
ARM GAS  x:\temp2\ccQ21sHb.s 			page 16


 333              		.loc 1 314 0
 334 008e 0A46     		mov	r2, r1
 335              	.LVL37:
 336              	.L28:
 371:Middlewares/ST/STM32_USB_Device_Library/Class/CustomHID/Src/usbd_customhid.c ****                         pbuf,
 337              		.loc 1 371 0
 338 0090 FFF7FEFF 		bl	USBD_CtlSendData
 339              	.LVL38:
 388:Middlewares/ST/STM32_USB_Device_Library/Class/CustomHID/Src/usbd_customhid.c **** }
 340              		.loc 1 388 0
 341 0094 0020     		movs	r0, #0
 375:Middlewares/ST/STM32_USB_Device_Library/Class/CustomHID/Src/usbd_customhid.c ****       
 342              		.loc 1 375 0
 343 0096 19E0     		b	.L14
 344              	.LVL39:
 345              	.L36:
 362:Middlewares/ST/STM32_USB_Device_Library/Class/CustomHID/Src/usbd_customhid.c ****         pbuf =  ((USBD_CUSTOM_HID_ItfTypeDef *)pdev->pUserData)->pReport;
 346              		.loc 1 362 0
 347 0098 CA88     		ldrh	r2, [r1, #6]
 348 009a 142A     		cmp	r2, #20
 349 009c 28BF     		it	cs
 350 009e 1422     		movcs	r2, #20
 351              	.LVL40:
 363:Middlewares/ST/STM32_USB_Device_Library/Class/CustomHID/Src/usbd_customhid.c ****       }
 352              		.loc 1 363 0
 353 00a0 D0F81C32 		ldr	r3, [r0, #540]
 354 00a4 1968     		ldr	r1, [r3]
 355              	.LVL41:
 356 00a6 F3E7     		b	.L28
 357              	.LVL42:
 358              	.L37:
 368:Middlewares/ST/STM32_USB_Device_Library/Class/CustomHID/Src/usbd_customhid.c ****       }
 359              		.loc 1 368 0
 360 00a8 CA88     		ldrh	r2, [r1, #6]
 361 00aa 092A     		cmp	r2, #9
 362 00ac 28BF     		it	cs
 363 00ae 0922     		movcs	r2, #9
 364              	.LVL43:
 367:Middlewares/ST/STM32_USB_Device_Library/Class/CustomHID/Src/usbd_customhid.c ****         len = MIN(USB_CUSTOM_HID_DESC_SIZ , req->wLength);
 365              		.loc 1 367 0
 366 00b0 0749     		ldr	r1, .L38
 367              	.LVL44:
 368 00b2 EDE7     		b	.L28
 369              	.LVL45:
 370              	.L24:
 378:Middlewares/ST/STM32_USB_Device_Library/Class/CustomHID/Src/usbd_customhid.c ****                         (uint8_t *)&hhid->AltSetting,
 371              		.loc 1 378 0
 372 00b4 0122     		movs	r2, #1
 373 00b6 04F14801 		add	r1, r4, #72
 374              	.LVL46:
 375 00ba FFF7FEFF 		bl	USBD_CtlSendData
 376              	.LVL47:
 388:Middlewares/ST/STM32_USB_Device_Library/Class/CustomHID/Src/usbd_customhid.c **** }
 377              		.loc 1 388 0
 378 00be 0020     		movs	r0, #0
 381:Middlewares/ST/STM32_USB_Device_Library/Class/CustomHID/Src/usbd_customhid.c ****       
 379              		.loc 1 381 0
ARM GAS  x:\temp2\ccQ21sHb.s 			page 17


 380 00c0 04E0     		b	.L14
 381              	.LVL48:
 382              	.L25:
 384:Middlewares/ST/STM32_USB_Device_Library/Class/CustomHID/Src/usbd_customhid.c ****       break;
 383              		.loc 1 384 0
 384 00c2 8B78     		ldrb	r3, [r1, #2]	@ zero_extendqisi2
 385 00c4 A364     		str	r3, [r4, #72]
 388:Middlewares/ST/STM32_USB_Device_Library/Class/CustomHID/Src/usbd_customhid.c **** }
 386              		.loc 1 388 0
 387 00c6 0020     		movs	r0, #0
 388              	.LVL49:
 385:Middlewares/ST/STM32_USB_Device_Library/Class/CustomHID/Src/usbd_customhid.c ****     }
 389              		.loc 1 385 0
 390 00c8 00E0     		b	.L14
 391              	.LVL50:
 392              	.L32:
 388:Middlewares/ST/STM32_USB_Device_Library/Class/CustomHID/Src/usbd_customhid.c **** }
 393              		.loc 1 388 0
 394 00ca 0020     		movs	r0, #0
 395              	.LVL51:
 396              	.L14:
 389:Middlewares/ST/STM32_USB_Device_Library/Class/CustomHID/Src/usbd_customhid.c **** 
 397              		.loc 1 389 0
 398 00cc 10BD     		pop	{r4, pc}
 399              	.LVL52:
 400              	.L39:
 401 00ce 00BF     		.align	2
 402              	.L38:
 403 00d0 00000000 		.word	.LANCHOR2
 404              		.cfi_endproc
 405              	.LFE128:
 407              		.section	.text.USBD_CUSTOM_HID_DeInit,"ax",%progbits
 408              		.align	1
 409              		.syntax unified
 410              		.thumb
 411              		.thumb_func
 412              		.fpu fpv4-sp-d16
 414              	USBD_CUSTOM_HID_DeInit:
 415              	.LFB127:
 285:Middlewares/ST/STM32_USB_Device_Library/Class/CustomHID/Src/usbd_customhid.c ****   /* Close CUSTOM_HID EP IN */
 416              		.loc 1 285 0
 417              		.cfi_startproc
 418              		@ args = 0, pretend = 0, frame = 0
 419              		@ frame_needed = 0, uses_anonymous_args = 0
 420              	.LVL53:
 421 0000 10B5     		push	{r4, lr}
 422              	.LCFI3:
 423              		.cfi_def_cfa_offset 8
 424              		.cfi_offset 4, -8
 425              		.cfi_offset 14, -4
 426 0002 0446     		mov	r4, r0
 287:Middlewares/ST/STM32_USB_Device_Library/Class/CustomHID/Src/usbd_customhid.c ****                   CUSTOM_HID_EPIN_ADDR);
 427              		.loc 1 287 0
 428 0004 8121     		movs	r1, #129
 429              	.LVL54:
 430 0006 FFF7FEFF 		bl	USBD_LL_CloseEP
 431              	.LVL55:
ARM GAS  x:\temp2\ccQ21sHb.s 			page 18


 291:Middlewares/ST/STM32_USB_Device_Library/Class/CustomHID/Src/usbd_customhid.c ****                   CUSTOM_HID_EPOUT_ADDR);
 432              		.loc 1 291 0
 433 000a 0121     		movs	r1, #1
 434 000c 2046     		mov	r0, r4
 435 000e FFF7FEFF 		bl	USBD_LL_CloseEP
 436              	.LVL56:
 295:Middlewares/ST/STM32_USB_Device_Library/Class/CustomHID/Src/usbd_customhid.c ****   {
 437              		.loc 1 295 0
 438 0012 D4F81832 		ldr	r3, [r4, #536]
 439 0016 53B1     		cbz	r3, .L41
 297:Middlewares/ST/STM32_USB_Device_Library/Class/CustomHID/Src/usbd_customhid.c ****     USBD_free(pdev->pClassData);
 440              		.loc 1 297 0
 441 0018 D4F81C32 		ldr	r3, [r4, #540]
 442 001c 9B68     		ldr	r3, [r3, #8]
 443 001e 9847     		blx	r3
 444              	.LVL57:
 298:Middlewares/ST/STM32_USB_Device_Library/Class/CustomHID/Src/usbd_customhid.c ****     pdev->pClassData = NULL;
 445              		.loc 1 298 0
 446 0020 D4F81802 		ldr	r0, [r4, #536]
 447 0024 FFF7FEFF 		bl	free
 448              	.LVL58:
 299:Middlewares/ST/STM32_USB_Device_Library/Class/CustomHID/Src/usbd_customhid.c ****   }
 449              		.loc 1 299 0
 450 0028 0023     		movs	r3, #0
 451 002a C4F81832 		str	r3, [r4, #536]
 452              	.L41:
 302:Middlewares/ST/STM32_USB_Device_Library/Class/CustomHID/Src/usbd_customhid.c **** 
 453              		.loc 1 302 0
 454 002e 0020     		movs	r0, #0
 455 0030 10BD     		pop	{r4, pc}
 456              		.cfi_endproc
 457              	.LFE127:
 459              		.section	.text.USBD_CUSTOM_HID_Init,"ax",%progbits
 460              		.align	1
 461              		.syntax unified
 462              		.thumb
 463              		.thumb_func
 464              		.fpu fpv4-sp-d16
 466              	USBD_CUSTOM_HID_Init:
 467              	.LFB126:
 241:Middlewares/ST/STM32_USB_Device_Library/Class/CustomHID/Src/usbd_customhid.c ****   uint8_t ret = 0;
 468              		.loc 1 241 0
 469              		.cfi_startproc
 470              		@ args = 0, pretend = 0, frame = 0
 471              		@ frame_needed = 0, uses_anonymous_args = 0
 472              	.LVL59:
 473 0000 70B5     		push	{r4, r5, r6, lr}
 474              	.LCFI4:
 475              		.cfi_def_cfa_offset 16
 476              		.cfi_offset 4, -16
 477              		.cfi_offset 5, -12
 478              		.cfi_offset 6, -8
 479              		.cfi_offset 14, -4
 480 0002 0446     		mov	r4, r0
 481              	.LVL60:
 245:Middlewares/ST/STM32_USB_Device_Library/Class/CustomHID/Src/usbd_customhid.c ****                  CUSTOM_HID_EPIN_ADDR,
 482              		.loc 1 245 0
ARM GAS  x:\temp2\ccQ21sHb.s 			page 19


 483 0004 0823     		movs	r3, #8
 484 0006 0322     		movs	r2, #3
 485 0008 8121     		movs	r1, #129
 486              	.LVL61:
 487 000a FFF7FEFF 		bl	USBD_LL_OpenEP
 488              	.LVL62:
 251:Middlewares/ST/STM32_USB_Device_Library/Class/CustomHID/Src/usbd_customhid.c ****                  CUSTOM_HID_EPOUT_ADDR,
 489              		.loc 1 251 0
 490 000e 4023     		movs	r3, #64
 491 0010 0322     		movs	r2, #3
 492 0012 0121     		movs	r1, #1
 493 0014 2046     		mov	r0, r4
 494 0016 FFF7FEFF 		bl	USBD_LL_OpenEP
 495              	.LVL63:
 256:Middlewares/ST/STM32_USB_Device_Library/Class/CustomHID/Src/usbd_customhid.c ****   
 496              		.loc 1 256 0
 497 001a 5420     		movs	r0, #84
 498 001c FFF7FEFF 		bl	malloc
 499              	.LVL64:
 500 0020 C4F81802 		str	r0, [r4, #536]
 258:Middlewares/ST/STM32_USB_Device_Library/Class/CustomHID/Src/usbd_customhid.c ****   {
 501              		.loc 1 258 0
 502 0024 78B1     		cbz	r0, .L45
 503 0026 0546     		mov	r5, r0
 504              	.LVL65:
 266:Middlewares/ST/STM32_USB_Device_Library/Class/CustomHID/Src/usbd_customhid.c ****     ((USBD_CUSTOM_HID_ItfTypeDef *)pdev->pUserData)->Init();
 505              		.loc 1 266 0
 506 0028 0026     		movs	r6, #0
 507 002a 80F85060 		strb	r6, [r0, #80]
 267:Middlewares/ST/STM32_USB_Device_Library/Class/CustomHID/Src/usbd_customhid.c ****           /* Prepare Out endpoint to receive 1st packet */ 
 508              		.loc 1 267 0
 509 002e D4F81C32 		ldr	r3, [r4, #540]
 510 0032 5B68     		ldr	r3, [r3, #4]
 511 0034 9847     		blx	r3
 512              	.LVL66:
 269:Middlewares/ST/STM32_USB_Device_Library/Class/CustomHID/Src/usbd_customhid.c ****                            USBD_CUSTOMHID_OUTREPORT_BUF_SIZE);
 513              		.loc 1 269 0
 514 0036 4023     		movs	r3, #64
 515 0038 2A46     		mov	r2, r5
 516 003a 0121     		movs	r1, #1
 517 003c 2046     		mov	r0, r4
 518 003e FFF7FEFF 		bl	USBD_LL_PrepareReceive
 519              	.LVL67:
 242:Middlewares/ST/STM32_USB_Device_Library/Class/CustomHID/Src/usbd_customhid.c ****   USBD_CUSTOM_HID_HandleTypeDef     *hhid;
 520              		.loc 1 242 0
 521 0042 3046     		mov	r0, r6
 522              	.LVL68:
 523              	.L44:
 274:Middlewares/ST/STM32_USB_Device_Library/Class/CustomHID/Src/usbd_customhid.c **** 
 524              		.loc 1 274 0
 525 0044 70BD     		pop	{r4, r5, r6, pc}
 526              	.LVL69:
 527              	.L45:
 260:Middlewares/ST/STM32_USB_Device_Library/Class/CustomHID/Src/usbd_customhid.c ****   }
 528              		.loc 1 260 0
 529 0046 0120     		movs	r0, #1
 530 0048 FCE7     		b	.L44
ARM GAS  x:\temp2\ccQ21sHb.s 			page 20


 531              		.cfi_endproc
 532              	.LFE126:
 534              		.section	.text.USBD_CUSTOM_HID_SendReport,"ax",%progbits
 535              		.align	1
 536              		.global	USBD_CUSTOM_HID_SendReport
 537              		.syntax unified
 538              		.thumb
 539              		.thumb_func
 540              		.fpu fpv4-sp-d16
 542              	USBD_CUSTOM_HID_SendReport:
 543              	.LFB129:
 401:Middlewares/ST/STM32_USB_Device_Library/Class/CustomHID/Src/usbd_customhid.c ****   USBD_CUSTOM_HID_HandleTypeDef     *hhid = (USBD_CUSTOM_HID_HandleTypeDef*)pdev->pClassData;
 544              		.loc 1 401 0
 545              		.cfi_startproc
 546              		@ args = 0, pretend = 0, frame = 0
 547              		@ frame_needed = 0, uses_anonymous_args = 0
 548              	.LVL70:
 549 0000 38B5     		push	{r3, r4, r5, lr}
 550              	.LCFI5:
 551              		.cfi_def_cfa_offset 16
 552              		.cfi_offset 3, -16
 553              		.cfi_offset 4, -12
 554              		.cfi_offset 5, -8
 555              		.cfi_offset 14, -4
 402:Middlewares/ST/STM32_USB_Device_Library/Class/CustomHID/Src/usbd_customhid.c ****   
 556              		.loc 1 402 0
 557 0002 D0F81852 		ldr	r5, [r0, #536]
 558              	.LVL71:
 404:Middlewares/ST/STM32_USB_Device_Library/Class/CustomHID/Src/usbd_customhid.c ****   {
 559              		.loc 1 404 0
 560 0006 90F8FC41 		ldrb	r4, [r0, #508]	@ zero_extendqisi2
 561 000a 032C     		cmp	r4, #3
 562 000c 01D0     		beq	.L50
 563              	.LVL72:
 564              	.L48:
 416:Middlewares/ST/STM32_USB_Device_Library/Class/CustomHID/Src/usbd_customhid.c **** 
 565              		.loc 1 416 0
 566 000e 0020     		movs	r0, #0
 567 0010 38BD     		pop	{r3, r4, r5, pc}
 568              	.LVL73:
 569              	.L50:
 406:Middlewares/ST/STM32_USB_Device_Library/Class/CustomHID/Src/usbd_customhid.c ****     {
 570              		.loc 1 406 0
 571 0012 95F85030 		ldrb	r3, [r5, #80]	@ zero_extendqisi2
 572 0016 002B     		cmp	r3, #0
 573 0018 F9D1     		bne	.L48
 574 001a 1346     		mov	r3, r2
 575 001c 0A46     		mov	r2, r1
 576              	.LVL74:
 408:Middlewares/ST/STM32_USB_Device_Library/Class/CustomHID/Src/usbd_customhid.c ****       USBD_LL_Transmit (pdev, 
 577              		.loc 1 408 0
 578 001e 0121     		movs	r1, #1
 579              	.LVL75:
 580 0020 85F85010 		strb	r1, [r5, #80]
 409:Middlewares/ST/STM32_USB_Device_Library/Class/CustomHID/Src/usbd_customhid.c ****                         CUSTOM_HID_EPIN_ADDR,                                      
 581              		.loc 1 409 0
 582 0024 8121     		movs	r1, #129
ARM GAS  x:\temp2\ccQ21sHb.s 			page 21


 583 0026 FFF7FEFF 		bl	USBD_LL_Transmit
 584              	.LVL76:
 585 002a F0E7     		b	.L48
 586              		.cfi_endproc
 587              	.LFE129:
 589              		.section	.text.USBD_CUSTOM_HID_RegisterInterface,"ax",%progbits
 590              		.align	1
 591              		.global	USBD_CUSTOM_HID_RegisterInterface
 592              		.syntax unified
 593              		.thumb
 594              		.thumb_func
 595              		.fpu fpv4-sp-d16
 597              	USBD_CUSTOM_HID_RegisterInterface:
 598              	.LFB135:
 502:Middlewares/ST/STM32_USB_Device_Library/Class/CustomHID/Src/usbd_customhid.c **** 
 503:Middlewares/ST/STM32_USB_Device_Library/Class/CustomHID/Src/usbd_customhid.c **** /**
 504:Middlewares/ST/STM32_USB_Device_Library/Class/CustomHID/Src/usbd_customhid.c **** * @brief  USBD_CUSTOM_HID_RegisterInterface
 505:Middlewares/ST/STM32_USB_Device_Library/Class/CustomHID/Src/usbd_customhid.c ****   * @param  pdev: device instance
 506:Middlewares/ST/STM32_USB_Device_Library/Class/CustomHID/Src/usbd_customhid.c ****   * @param  fops: CUSTOMHID Interface callback
 507:Middlewares/ST/STM32_USB_Device_Library/Class/CustomHID/Src/usbd_customhid.c ****   * @retval status
 508:Middlewares/ST/STM32_USB_Device_Library/Class/CustomHID/Src/usbd_customhid.c ****   */
 509:Middlewares/ST/STM32_USB_Device_Library/Class/CustomHID/Src/usbd_customhid.c **** uint8_t  USBD_CUSTOM_HID_RegisterInterface  (USBD_HandleTypeDef   *pdev, 
 510:Middlewares/ST/STM32_USB_Device_Library/Class/CustomHID/Src/usbd_customhid.c ****                                              USBD_CUSTOM_HID_ItfTypeDef *fops)
 511:Middlewares/ST/STM32_USB_Device_Library/Class/CustomHID/Src/usbd_customhid.c **** {
 599              		.loc 1 511 0
 600              		.cfi_startproc
 601              		@ args = 0, pretend = 0, frame = 0
 602              		@ frame_needed = 0, uses_anonymous_args = 0
 603              		@ link register save eliminated.
 604              	.LVL77:
 512:Middlewares/ST/STM32_USB_Device_Library/Class/CustomHID/Src/usbd_customhid.c ****   uint8_t  ret = USBD_FAIL;
 513:Middlewares/ST/STM32_USB_Device_Library/Class/CustomHID/Src/usbd_customhid.c ****   
 514:Middlewares/ST/STM32_USB_Device_Library/Class/CustomHID/Src/usbd_customhid.c ****   if(fops != NULL)
 605              		.loc 1 514 0
 606 0000 19B1     		cbz	r1, .L53
 515:Middlewares/ST/STM32_USB_Device_Library/Class/CustomHID/Src/usbd_customhid.c ****   {
 516:Middlewares/ST/STM32_USB_Device_Library/Class/CustomHID/Src/usbd_customhid.c ****     pdev->pUserData= fops;
 607              		.loc 1 516 0
 608 0002 C0F81C12 		str	r1, [r0, #540]
 609              	.LVL78:
 517:Middlewares/ST/STM32_USB_Device_Library/Class/CustomHID/Src/usbd_customhid.c ****     ret = USBD_OK;    
 610              		.loc 1 517 0
 611 0006 0020     		movs	r0, #0
 612              	.LVL79:
 613 0008 7047     		bx	lr
 614              	.LVL80:
 615              	.L53:
 512:Middlewares/ST/STM32_USB_Device_Library/Class/CustomHID/Src/usbd_customhid.c ****   uint8_t  ret = USBD_FAIL;
 616              		.loc 1 512 0
 617 000a 0220     		movs	r0, #2
 618              	.LVL81:
 518:Middlewares/ST/STM32_USB_Device_Library/Class/CustomHID/Src/usbd_customhid.c ****   }
 519:Middlewares/ST/STM32_USB_Device_Library/Class/CustomHID/Src/usbd_customhid.c ****   
 520:Middlewares/ST/STM32_USB_Device_Library/Class/CustomHID/Src/usbd_customhid.c ****   return ret;
 521:Middlewares/ST/STM32_USB_Device_Library/Class/CustomHID/Src/usbd_customhid.c **** }
 619              		.loc 1 521 0
 620 000c 7047     		bx	lr
ARM GAS  x:\temp2\ccQ21sHb.s 			page 22


 621              		.cfi_endproc
 622              	.LFE135:
 624              		.global	USBD_CUSTOM_HID
 625              		.section	.data.USBD_CUSTOM_HID,"aw",%progbits
 626              		.align	2
 629              	USBD_CUSTOM_HID:
 630 0000 00000000 		.word	USBD_CUSTOM_HID_Init
 631 0004 00000000 		.word	USBD_CUSTOM_HID_DeInit
 632 0008 00000000 		.word	USBD_CUSTOM_HID_Setup
 633 000c 00000000 		.word	0
 634 0010 00000000 		.word	USBD_CUSTOM_HID_EP0_RxReady
 635 0014 00000000 		.word	USBD_CUSTOM_HID_DataIn
 636 0018 00000000 		.word	USBD_CUSTOM_HID_DataOut
 637 001c 00000000 		.word	0
 638 0020 00000000 		.word	0
 639 0024 00000000 		.word	0
 640 0028 00000000 		.word	USBD_CUSTOM_HID_GetCfgDesc
 641 002c 00000000 		.word	USBD_CUSTOM_HID_GetCfgDesc
 642 0030 00000000 		.word	USBD_CUSTOM_HID_GetCfgDesc
 643 0034 00000000 		.word	USBD_CUSTOM_HID_GetDeviceQualifierDesc
 644              		.section	.data.USBD_CUSTOM_HID_CfgDesc,"aw",%progbits
 645              		.align	2
 646              		.set	.LANCHOR0,. + 0
 649              	USBD_CUSTOM_HID_CfgDesc:
 650 0000 09       		.byte	9
 651 0001 02       		.byte	2
 652 0002 29       		.byte	41
 653 0003 00       		.byte	0
 654 0004 01       		.byte	1
 655 0005 01       		.byte	1
 656 0006 00       		.byte	0
 657 0007 C0       		.byte	-64
 658 0008 32       		.byte	50
 659 0009 09       		.byte	9
 660 000a 04       		.byte	4
 661 000b 00       		.byte	0
 662 000c 00       		.byte	0
 663 000d 02       		.byte	2
 664 000e 03       		.byte	3
 665 000f 00       		.byte	0
 666 0010 00       		.byte	0
 667 0011 00       		.byte	0
 668 0012 09       		.byte	9
 669 0013 21       		.byte	33
 670 0014 11       		.byte	17
 671 0015 01       		.byte	1
 672 0016 00       		.byte	0
 673 0017 01       		.byte	1
 674 0018 22       		.byte	34
 675 0019 14       		.byte	20
 676 001a 00       		.byte	0
 677 001b 07       		.byte	7
 678 001c 05       		.byte	5
 679 001d 81       		.byte	-127
 680 001e 03       		.byte	3
 681 001f 08       		.byte	8
 682 0020 00       		.byte	0
ARM GAS  x:\temp2\ccQ21sHb.s 			page 23


 683 0021 20       		.byte	32
 684 0022 07       		.byte	7
 685 0023 05       		.byte	5
 686 0024 01       		.byte	1
 687 0025 01       		.byte	1
 688 0026 40       		.byte	64
 689 0027 00       		.byte	0
 690 0028 20       		.byte	32
 691              		.section	.data.USBD_CUSTOM_HID_Desc,"aw",%progbits
 692              		.align	2
 693              		.set	.LANCHOR2,. + 0
 696              	USBD_CUSTOM_HID_Desc:
 697 0000 09       		.byte	9
 698 0001 21       		.byte	33
 699 0002 11       		.byte	17
 700 0003 01       		.byte	1
 701 0004 00       		.byte	0
 702 0005 01       		.byte	1
 703 0006 22       		.byte	34
 704 0007 14       		.byte	20
 705 0008 00       		.byte	0
 706              		.section	.data.USBD_CUSTOM_HID_DeviceQualifierDesc,"aw",%progbits
 707              		.align	2
 708              		.set	.LANCHOR1,. + 0
 711              	USBD_CUSTOM_HID_DeviceQualifierDesc:
 712 0000 0A       		.byte	10
 713 0001 06       		.byte	6
 714 0002 00       		.byte	0
 715 0003 02       		.byte	2
 716 0004 00       		.byte	0
 717 0005 00       		.byte	0
 718 0006 00       		.byte	0
 719 0007 40       		.byte	64
 720 0008 01       		.byte	1
 721 0009 00       		.byte	0
 722              		.text
 723              	.Letext0:
 724              		.file 2 "c:\\program files (x86)\\gnu tools arm embedded\\7 2017-q4-major\\arm-none-eabi\\include\
 725              		.file 3 "c:\\program files (x86)\\gnu tools arm embedded\\7 2017-q4-major\\arm-none-eabi\\include\
 726              		.file 4 "c:\\program files (x86)\\gnu tools arm embedded\\7 2017-q4-major\\arm-none-eabi\\include\
 727              		.file 5 "c:\\program files (x86)\\gnu tools arm embedded\\7 2017-q4-major\\lib\\gcc\\arm-none-eabi
 728              		.file 6 "c:\\program files (x86)\\gnu tools arm embedded\\7 2017-q4-major\\arm-none-eabi\\include\
 729              		.file 7 "c:\\program files (x86)\\gnu tools arm embedded\\7 2017-q4-major\\arm-none-eabi\\include\
 730              		.file 8 "c:\\program files (x86)\\gnu tools arm embedded\\7 2017-q4-major\\arm-none-eabi\\include\
 731              		.file 9 "Drivers/CMSIS/Include/core_cm4.h"
 732              		.file 10 "Drivers/CMSIS/Device/ST/STM32F4xx/Include/system_stm32f4xx.h"
 733              		.file 11 "Middlewares/ST/STM32_USB_Device_Library/Core/Inc/usbd_def.h"
 734              		.file 12 "Middlewares/ST/STM32_USB_Device_Library/Class/CustomHID/Inc/usbd_customhid.h"
 735              		.file 13 "Inc/usbd_desc.h"
 736              		.file 14 "Middlewares/ST/STM32_USB_Device_Library/Core/Inc/usbd_core.h"
 737              		.file 15 "Middlewares/ST/STM32_USB_Device_Library/Core/Inc/usbd_ioreq.h"
 738              		.file 16 "Middlewares/ST/STM32_USB_Device_Library/Core/Inc/usbd_ctlreq.h"
ARM GAS  x:\temp2\ccQ21sHb.s 			page 24

